ccopy_reg
_reconstructor
p0
(cmatplotlib.figure
Figure
p1
c__builtin__
object
p2
Ntp3
Rp4
(dp5
S'_label'
p6
V
p7
sS'_visible'
p8
I01
sS'figure'
p9
NsS'stale_callback'
p10
NsS'_rasterized'
p11
NsS'texts'
p12
(lp13
sS'_hold'
p14
I01
sS'artists'
p15
(lp16
sS'_path_effects'
p17
(lp18
sS'frameon'
p19
I01
sS'_clipon'
p20
I01
sV__mpl_version__
p21
S'1.5.1'
p22
sS'_clippath'
p23
NsS'_contains'
p24
NsS'_tight_parameters'
p25
(dp26
sS'_mouseover'
p27
I00
sS'_animated'
p28
I00
sS'_propobservers'
p29
(dp30
sS'eventson'
p31
I00
sS'_picker'
p32
NsS'_remove_method'
p33
NsS'figurePatch'
p34
g0
(cmatplotlib.patches
Rectangle
p35
g2
Ntp36
Rp37
(dp38
g6
g7
sS'_width'
p39
F1.0
sS'_fill'
p40
I01
sg9
g4
sg8
I01
sg10
NsS'_agg_filter'
p41
Nsg17
g18
sS'_gid'
p42
Nsg20
I01
sS'_combined_transform'
p43
g0
(cmatplotlib.transforms
IdentityTransform
p44
g2
Ntp45
Rp46
(dp47
S'_invalid'
p48
I1
sS'_inverted'
p49
NsS'_shorthand_name'
p50
g7
sS'_parents'
p51
(dp52
sbsS'_edgecolor'
p53
(I1
I1
I1
I0
tp54
sg23
NsS'_y'
p55
F0.0
sS'_x'
p56
F0.0
sS'_sketch'
p57
Nsg24
Nsg11
Nsg27
I00
sg28
I00
sg29
(dp58
sS'_rect_transform'
p59
g0
(g44
g2
Ntp60
Rp61
(dp62
g48
I1
sg49
Nsg50
g7
sg51
(dp63
sbsg31
I00
sS'_hatch'
p64
NsS'_stale'
p65
I01
sS'_linewidth'
p66
F0.0
sS'clipbox'
p67
NsS'_height'
p68
F1.0
sg32
NsS'_antialiased'
p69
I00
sS'_original_facecolor'
p70
(I1
I1
I1
I0
tp71
sS'_snap'
p72
NsS'_facecolor'
p73
g71
sS'_joinstyle'
p74
Vmiter
p75
sS'_linestyle'
p76
Vsolid
p77
sS'_original_edgecolor'
p78
g54
sS'_oid'
p79
I0
sS'_transformSet'
p80
I01
sS'_angle'
p81
F0.0
sS'_alpha'
p82
NsS'_transform'
p83
g0
(cmatplotlib.transforms
BboxTransformTo
p84
g2
Ntp85
Rp86
(dp87
g48
I0
sS'_mtx'
p88
cnumpy.core.multiarray
_reconstruct
p89
(cnumpy
ndarray
p90
(I0
tp91
S'b'
p92
tp93
Rp94
(I1
(I3
I3
tp95
cnumpy
dtype
p96
(S'f8'
p97
I0
I1
tp98
Rp99
(I3
S'<'
p100
NNNI-1
I-1
I0
tp101
bI00
S'\x00\x00\x00\x00\x00\x00t@\x00\x00\x00\x00\x00\x00\x00\x00\x00\x00\x00\x00\x00\x00\x00\x00\x00\x00\x00\x00\x00\x00\x00\x00\x00\x00\x00\x00\x00\x00t@\x00\x00\x00\x00\x00\x00\x00\x00\x00\x00\x00\x00\x00\x00\x00\x00\x00\x00\x00\x00\x00\x00\x00\x00\x00\x00\x00\x00\x00\x00\xf0?'
p102
tp103
bsg49
g0
(cmatplotlib.transforms
Affine2D
p104
g2
Ntp105
Rp106
(dp107
g48
I0
sg49
Nsg88
g89
(g90
(I0
tp108
g92
tp109
Rp110
(I1
(I3
I3
tp111
g99
I00
S'\x9a\x99\x99\x99\x99\x99i?\x00\x00\x00\x00\x00\x00\x00\x00\x00\x00\x00\x00\x00\x00\x00\x00\x00\x00\x00\x00\x00\x00\x00\x00\x9a\x99\x99\x99\x99\x99i?\x00\x00\x00\x00\x00\x00\x00\x00\x00\x00\x00\x00\x00\x00\x00\x00\x00\x00\x00\x00\x00\x00\x00\x00\x00\x00\x00\x00\x00\x00\xf0?'
p112
tp113
bsg50
g7
sg51
(dp114
sbsS'_boxout'
p115
g0
(cmatplotlib.transforms
TransformedBbox
p116
g2
Ntp117
Rp118
(dp119
g48
I0
sS'_bbox'
p120
g0
(cmatplotlib.transforms
Bbox
p121
g2
Ntp122
Rp123
(dp124
g48
I0
sS'_minpos'
p125
g89
(g90
(I0
tp126
g92
tp127
Rp128
(I1
(I2
tp129
g99
I00
S'H\xaf\xbc\x9a\xf2\xd7z>H\xaf\xbc\x9a\xf2\xd7z>'
p130
tp131
bsg51
(dp132
I4775221008
g118
ssS'_points_orig'
p133
g89
(g90
(I0
tp134
g92
tp135
Rp136
(I1
(I2
I2
tp137
g99
I00
S'\x00\x00\x00\x00\x00\x00\x00\x00\x00\x00\x00\x00\x00\x00\x00\x00\x00\x00\x00\x00\x00\x00\x10@\x00\x00\x00\x00\x00\x00\x10@'
p138
tp139
bsS'_points'
p140
g89
(g90
(I0
tp141
g92
tp142
Rp143
(I1
(I2
I2
tp144
g99
I00
S'\x00\x00\x00\x00\x00\x00\x00\x00\x00\x00\x00\x00\x00\x00\x00\x00\x00\x00\x00\x00\x00\x00\x10@\x00\x00\x00\x00\x00\x00\x10@'
p145
tp146
bsS'_ignore'
p147
I01
sg50
g7
sbsg83
g0
(g104
g2
Ntp148
Rp149
(dp150
g48
I0
sg49
Nsg88
g89
(g90
(I0
tp151
g92
tp152
Rp153
(I1
(I3
I3
tp154
g99
I00
S'\x00\x00\x00\x00\x00\x00T@\x00\x00\x00\x00\x00\x00\x00\x00\x00\x00\x00\x00\x00\x00\x00\x00\x00\x00\x00\x00\x00\x00\x00\x00\x00\x00\x00\x00\x00\x00T@\x00\x00\x00\x00\x00\x00\x00\x00\x00\x00\x00\x00\x00\x00\x00\x00\x00\x00\x00\x00\x00\x00\x00\x00\x00\x00\x00\x00\x00\x00\xf0?'
p155
tp156
bsg50
g7
sg51
(dp157
I4775221008
g118
sI4842061712
g0
(cmatplotlib.transforms
ScaledTranslation
p158
g2
Ntp159
Rp160
(dp161
g48
I1
sg88
NsS'_scale_trans'
p162
g149
sg49
NsS'_t'
p163
(F-0.05555555555555555
I0
tp164
sg50
g7
sg51
(dp165
I4842061392
g0
(cmatplotlib.transforms
CompositeGenericTransform
p166
g2
Ntp167
Rp168
(dp169
g48
I2
sS'input_dims'
p170
I2
sS'_a'
p171
g0
(cmatplotlib.transforms
BlendedGenericTransform
p172
g2
Ntp173
Rp174
(dp175
g48
I2
sg55
g0
(g166
g2
Ntp176
Rp177
(dp178
g48
I2
sg170
I2
sg171
g0
(cmatplotlib.transforms
TransformWrapper
p179
g2
Ntp180
Rp181
(dp182
Voutput_dims
p183
I2
sVparents
p184
(dp185
I4775222672
g0
(g116
g2
Ntp186
Rp187
(dp188
g48
I0
sg120
g0
(g121
g2
Ntp189
Rp190
(dp191
g48
I0
sg125
g89
(g90
(I0
tp192
g92
tp193
Rp194
(I1
(I2
tp195
g99
I00
S'H\xaf\xbc\x9a\xf2\xd7z>H\xaf\xbc\x9a\xf2\xd7z>'
p196
tp197
bsg51
(dp198
I4775222672
g187
ssg133
g89
(g90
(I0
tp199
g92
tp200
Rp201
(I1
(I2
I2
tp202
g99
I00
S'\x00\x00\x00\x00\x00\x00\x00\x00\x00\x00\x00\x00\x00\x00\x00\x00\x00\x00\x00\x00\x00\x00\xf0?\x00\x00\x00\x00\x00\x00\xf0?'
p203
tp204
bsg140
g89
(g90
(I0
tp205
g92
tp206
Rp207
(I1
(I2
I2
tp208
g99
I00
S'\x00\x00\x00\x00\x00`D@\x00\x00\x00\x00\x00\x00\x00\x00ffffffE@\x00\x00\x00\x00\x00\x007@'
p209
tp210
bsg147
I01
sg50
g7
sbsg83
g181
sg140
g89
(g90
(I0
tp211
g92
tp212
Rp213
(I1
(I2
I2
tp214
g99
I00
S'\x00\x00\x00\x00\x00`D@\x00\x00\x00\x00\x00\x00\x00\x00ffffffE@\x00\x00\x00\x00\x00\x007@'
p215
tp216
bsg51
(dp217
I4775222608
g0
(cmatplotlib.transforms
BboxTransformFrom
p218
g2
Ntp219
Rp220
(dp221
g48
I0
sS'_boxin'
p222
g187
sg88
g89
(g90
(I0
tp223
g92
tp224
Rp225
(I1
(I3
I3
tp226
g99
I00
S'D\x1f\x83\xf318\xdf?\x00\x00\x00\x00\x00\x00\x00\x00\xe8|\x0c\xce\xc7\xe03\xc0\x00\x00\x00\x00\x00\x00\x00\x00d!\x0bY\xc8B\xa6?\x00\x00\x00\x00\x00\x00\x00\x80\x00\x00\x00\x00\x00\x00\x00\x00\x00\x00\x00\x00\x00\x00\x00\x00\x00\x00\x00\x00\x00\x00\xf0?'
p227
tp228
bsg49
g0
(g104
g2
Ntp229
Rp230
(dp231
g48
I0
sg49
Nsg88
g89
(g90
(I0
tp232
g92
tp233
Rp234
(I1
(I3
I3
tp235
g99
I00
S'`fffff\x00@\x00\x00\x00\x00\x00\x00\x00\x00\x00\x00\x00\x00\x00`D@\x00\x00\x00\x00\x00\x00\x00\x00\x00\x00\x00\x00\x00\x007@\x00\x00\x00\x00\x00\x00\x00\x00\x00\x00\x00\x00\x00\x00\x00\x00\x00\x00\x00\x00\x00\x00\x00\x00\x00\x00\x00\x00\x00\x00\xf0?'
p236
tp237
bsg50
g7
sg51
(dp238
sbsg50
g7
sg51
(dp239
I4775222928
g0
(g166
g2
Ntp240
Rp241
(dp242
g48
I2
sg170
I2
sg171
g220
sS'output_dims'
p243
I2
sS'_b'
p244
g0
(g84
g2
Ntp245
Rp246
(dp247
g48
I2
sg88
g89
(g90
(I0
tp248
g92
tp249
Rp250
(I1
(I3
I3
tp251
g99
I00
S'\x00\x00\x00\x00\x00\x00o@\x00\x00\x00\x00\x00\x00\x00\x00\x00\x00\x00\x00\x00\x00D@\x00\x00\x00\x00\x00\x00\x00\x00\x00\x00\x00\x00\x00\x00o@\x00\x00\x00\x00\x00\x00D@\x00\x00\x00\x00\x00\x00\x00\x00\x00\x00\x00\x00\x00\x00\x00\x00\x00\x00\x00\x00\x00\x00\xf0?'
p252
tp253
bsg49
g0
(g104
g2
Ntp254
Rp255
(dp256
g48
I0
sg49
Nsg88
g89
(g90
(I0
tp257
g92
tp258
Rp259
(I1
(I3
I3
tp260
g99
I00
S'\x84\x10B\x08!\x84p?\x00\x00\x00\x00\x00\x00\x00\x00\xa5\x94RJ)\xa5\xc4\xbf\x00\x00\x00\x00\x00\x00\x00\x00\x84\x10B\x08!\x84p?\xa5\x94RJ)\xa5\xc4\xbf\x00\x00\x00\x00\x00\x00\x00\x00\x00\x00\x00\x00\x00\x00\x00\x00\x00\x00\x00\x00\x00\x00\xf0?'
p261
tp262
bsg50
g7
sg51
(dp263
sbsg115
g0
(g116
g2
Ntp264
Rp265
(dp266
g48
I2
sg120
g0
(g121
g2
Ntp267
Rp268
(dp269
g48
I2
sg125
g89
(g90
(I0
tp270
g92
tp271
Rp272
(I1
(I2
tp273
g99
I00
S'H\xaf\xbc\x9a\xf2\xd7z>H\xaf\xbc\x9a\xf2\xd7z>'
p274
tp275
bsg51
(dp276
I4775222416
g265
ssg133
g89
(g90
(I0
tp277
g92
tp278
Rp279
(I1
(I2
I2
tp280
g99
I00
S'\x00\x00\x00\x00\x00\x00\xc0?\x00\x00\x00\x00\x00\x00\xc0?\xcd\xcc\xcc\xcc\xcc\xcc\xec?\xcd\xcc\xcc\xcc\xcc\xcc\xec?'
p281
tp282
bsg140
g89
(g90
(I0
tp283
g92
tp284
Rp285
(I1
(I2
I2
tp286
g99
I00
S'-\xfa\xd9\xb0;\xbb\xc6?<p\x1b\x89A\xf2\xc6?\xcd\xcc\xcc\xcc\xcc\xcc\xee?\xcd\xcc\xcc\xcc\xcc\xcc\xee?'
p287
tp288
bsg147
I01
sg50
g7
sbsg83
g86
sg140
g89
(g90
(I0
tp289
g92
tp290
Rp291
(I1
(I2
I2
tp292
g99
I00
S'\x00\x00\x00\x00\x00\x00D@\x00\x00\x00\x00\x00\x00D@\x00\x00\x00\x00\x00\x00r@\x00\x00\x00\x00\x00\x00r@'
p293
tp294
bsg51
(dp295
I4775222736
g246
ssg50
g7
sbsg51
(dp296
I4775223056
g0
(g172
g2
Ntp297
Rp298
(dp299
g48
I2
sg55
g246
sg56
g177
sS'_affine'
p300
g0
(g104
g2
Ntp301
Rp302
(dp303
g48
I0
sg49
Nsg88
g89
(g90
(I0
tp304
g92
tp305
Rp306
(I1
(I3
I3
tp307
g99
I00
S'J\x06\xe7cp>^@\x00\x00\x00\x00\x00\x00\x00\x00\x01\x19\x9c\x8f\xc1\x19\xb3\xc0\x00\x00\x00\x00\x00\x00\x00\x00\x00\x00\x00\x00\x00\x00o@\x00\x00\x00\x00\x00\x00D@\x00\x00\x00\x00\x00\x00\x00\x00\x00\x00\x00\x00\x00\x00\x00\x00\x00\x00\x00\x00\x00\x00\xf0?'
p308
tp309
bsg50
g7
sg51
(dp310
sbsg51
(dp311
I4775426192
g0
(g166
g2
Ntp312
Rp313
(dp314
g48
I2
sg170
I2
sg171
g298
sg243
I2
sg244
g0
(g158
g2
Ntp315
Rp316
(dp317
g48
I0
sg88
g89
(g90
(I0
tp318
g92
tp319
Rp320
(I1
(I3
I3
tp321
g99
I00
S'\x00\x00\x00\x00\x00\x00\xf0?\x00\x00\x00\x00\x00\x00\x00\x00\x00\x00\x00\x00\x00\x00\x00\x00\x00\x00\x00\x00\x00\x00\x00\x00\x00\x00\x00\x00\x00\x00\xf0?r\x1c\xc7q\x1c\xc7\x11\xc0\x00\x00\x00\x00\x00\x00\x00\x00\x00\x00\x00\x00\x00\x00\x00\x00\x00\x00\x00\x00\x00\x00\xf0?'
p322
tp323
bsg162
g149
sg49
Nsg163
(I0
F-0.05555555555555555
tp324
sg50
g7
sg51
(dp325
I4775426192
g313
ssbsg51
(dp326
sg50
g7
sbsI4775293712
g0
(g166
g2
Ntp327
Rp328
(dp329
g48
I2
sg170
I2
sg171
g298
sg243
I2
sg244
g0
(g158
g2
Ntp330
Rp331
(dp332
g48
I1
sg88
Nsg162
g149
sg49
Nsg163
(I0
F0.05555555555555555
tp333
sg50
g7
sg51
(dp334
I4775293712
g328
ssbsg51
(dp335
sg50
g7
sbsI4775829456
g0
(cmatplotlib.transforms
TransformedPath
p336
g2
Ntp337
Rp338
(dp339
g48
I2
sS'_transformed_path'
p340
g0
(cmatplotlib.path
Path
p341
g2
Ntp342
Rp343
(dp344
S'_should_simplify'
p345
I00
sS'_codes'
p346
NsS'_vertices'
p347
g89
(g90
(I0
tp348
g92
tp349
Rp350
(I1
(I2
I2
tp351
g99
I00
S'\xe9\xfb\xca\xc9\x97\xb4D@\x00\x00\x00\x00\x00\x00\x00\x00\xe9\xfb\xca\xc9\x97\xb4D@\x00\x00\x00\x00\x00\x00\xf0?'
p352
tp353
bsS'_readonly'
p354
I00
sS'_simplify_threshold'
p355
F0.1111111111111111
sS'_interpolation_steps'
p356
I1
sS'_has_nonfinite'
p357
I00
sbsS'_path'
p358
g0
(g341
g2
Ntp359
Rp360
(dp361
g345
I00
sg346
Nsg347
g350
sg354
I00
sg355
F0.1111111111111111
sg356
I1
sg357
I00
sbsg83
g298
sg50
g7
sg51
(dp362
sS'_transformed_points'
p363
g0
(g341
g2
Ntp364
Rp365
(dp366
g345
I00
sg346
Nsg347
g350
sg354
I00
sg355
F0.1111111111111111
sg356
I1
sg357
I00
sbsbsI4751784208
g0
(g166
g2
Ntp367
Rp368
(dp369
g48
I2
sg170
I2
sg171
g298
sg243
I2
sg244
g0
(g158
g2
Ntp370
Rp371
(dp372
g48
I1
sg88
Nsg162
g149
sg49
Nsg163
(I0
F-0.05555555555555555
tp373
sg50
g7
sg51
(dp374
I4751784208
g368
ssbsg51
(dp375
sg50
g7
sbsI4751784848
g0
(g166
g2
Ntp376
Rp377
(dp378
g48
I2
sg170
I2
sg171
g298
sg243
I2
sg244
g0
(g158
g2
Ntp379
Rp380
(dp381
g48
I1
sg88
Nsg162
g149
sg49
Nsg163
(I0
F0.05555555555555555
tp382
sg50
g7
sg51
(dp383
I4751784848
g377
ssbsg51
(dp384
sg50
g7
sbsI4775293456
g0
(g166
g2
Ntp385
Rp386
(dp387
g48
I2
sg170
I2
sg171
g298
sg243
I2
sg244
g0
(g158
g2
Ntp388
Rp389
(dp390
g48
I1
sg88
Nsg162
g149
sg49
Nsg163
(I0
F-0.05555555555555555
tp391
sg50
g7
sg51
(dp392
I4775293456
g386
ssbsg51
(dp393
sg50
g7
sbsI4775424784
g0
(g166
g2
Ntp394
Rp395
(dp396
g48
I2
sg170
I2
sg171
g298
sg243
I2
sg244
g0
(g158
g2
Ntp397
Rp398
(dp399
g48
I1
sg88
Nsg162
g149
sg49
Nsg163
(I0
F0.05555555555555555
tp400
sg50
g7
sg51
(dp401
I4775424784
g395
ssbsg51
(dp402
sg50
g7
sbssg50
g7
sbsI4842059152
g0
(cmatplotlib.transforms
BlendedAffine2D
p403
g2
Ntp404
Rp405
(dp406
g48
I2
sg88
g89
(g90
(I0
tp407
g92
tp408
Rp409
(I1
(I3
I3
tp410
g99
I00
S'\x00\x00\x00\x00\x00\x00o@\x00\x00\x00\x00\x00\x00\x00\x00\x00\x00\x00\x00\x00\x00D@\x00\x00\x00\x00\x00\x00\x00\x00\x00\x00\x00\x00\x00\x00\xf0?\x00\x00\x00\x00\x00\x00\x00\x00\x00\x00\x00\x00\x00\x00\x00\x00\x00\x00\x00\x00\x00\x00\x00\x00\x00\x00\x00\x00\x00\x00\xf0?'
p411
tp412
bsg55
g0
(g44
g2
Ntp413
Rp414
(dp415
g48
I1
sg49
Nsg50
g7
sg51
(dp416
I4842059152
g405
ssbsg56
g246
sg49
Nsg50
g7
sg51
(dp417
sbsI4775728592
g0
(g166
g2
Ntp418
Rp419
(dp420
g48
I2
sg170
I2
sg171
g0
(g166
g2
Ntp421
Rp422
(dp423
g48
I1
sg170
I2
sg171
g0
(g84
g2
Ntp424
Rp425
(dp426
g48
I1
sg88
Nsg49
Nsg115
g0
(g121
g2
Ntp427
Rp428
(dp429
g48
I1
sg125
g89
(g90
(I0
tp430
g92
tp431
Rp432
(I1
(I2
tp433
g99
I00
S'H\xaf\xbc\x9a\xf2\xd7z>H\xaf\xbc\x9a\xf2\xd7z>'
p434
tp435
bsg51
(dp436
I4775728464
g425
ssg133
g89
(g90
(I0
tp437
g92
tp438
Rp439
(I1
(I2
I2
tp440
g99
I00
S'\x00\x00\x00\x00\x00\x00\x00\x00\x00\x00\x00\x00\x00\x00\x00\x00\x00\x00\x00\x00\x00\x00\xf0?\x00\x00\x00\x00\x00\x00\xf0?'
p441
tp442
bsg140
g89
(g90
(I0
tp443
g92
tp444
Rp445
(I1
(I2
I2
tp446
g99
I00
S'\x00\x00\x00\x00\x00\x00\x00\x00\x00\x00\x00\x00\x00\x00\x00\x00\x00\x00\x00\x00\x00\x00\xf0?\x00\x00\x00\x00\x00\x00\xf0?'
p447
tp448
bsg147
I01
sg50
g7
sbsg51
(dp449
I4775728528
g422
ssg50
g7
sbsg243
I2
sg244
g0
(g104
g2
Ntp450
Rp451
(dp452
g48
I2
sg49
Nsg88
g89
(g90
(I0
tp453
g92
tp454
Rp455
(I1
(I3
I3
tp456
g99
I00
S'\x00\x00\x00\x00\x00\x00\xf0?\x00\x00\x00\x00\x00\x00\x00\x00\x00\x00\x00\x00\x00\x00\x00\x00\x00\x00\x00\x00\x00\x00\x00\x00\x00\x00\x00\x00\x00\x00\xf0?\x00\x00\x00\x00\x00\x00\x00\x00\x00\x00\x00\x00\x00\x00\x00\x00\x00\x00\x00\x00\x00\x00\x00\x00\x00\x00\x00\x00\x00\x00\xf0?'
p457
tp458
bsg50
g7
sg51
(dp459
I4775728528
g422
ssbsg51
(dp460
I4775728592
g419
ssg50
g7
sbsg243
I2
sg244
g246
sg51
(dp461
I4775728656
g0
(g116
g2
Ntp462
Rp463
(dp464
g48
I2
sg120
g0
(g121
g2
Ntp465
Rp466
(dp467
g48
I1
sg125
g89
(g90
(I0
tp468
g92
tp469
Rp470
(I1
(I2
tp471
g99
I00
S'H\xaf\xbc\x9a\xf2\xd7z>H\xaf\xbc\x9a\xf2\xd7z>'
p472
tp473
bsg51
(dp474
I4775728656
g463
ssg133
g89
(g90
(I0
tp475
g92
tp476
Rp477
(I1
(I2
I2
tp478
g99
I00
S'\x00\x00\x00\x00\x00\x00\x00\x00\x00\x00\x00\x00\x00\x00\x00\x00\x00\x00\x00\x00\x00\x00\xf0?\x00\x00\x00\x00\x00\x00\xf0?'
p479
tp480
bsg140
g89
(g90
(I0
tp481
g92
tp482
Rp483
(I1
(I2
I2
tp484
g99
I00
S'\x00\x00\x00\x00\x00\x00\x00\x00\x00\x00\x00\x00\x00\x00\x00\x00\x00\x00\x00\x00\x00\x00\xf0?\x00\x00\x00\x00\x00\x00\xf0?'
p485
tp486
bsg147
I01
sg50
g7
sbsg83
g419
sg140
Nsg51
(dp487
sg50
g7
sbssg50
g7
sbsI4775612560
g0
(g166
g2
Ntp488
Rp489
(dp490
g48
I2
sg170
I2
sg171
g0
(g166
g2
Ntp491
Rp492
(dp493
g48
I1
sg170
I2
sg171
g0
(g84
g2
Ntp494
Rp495
(dp496
g48
I1
sg88
Nsg49
Nsg115
g0
(g121
g2
Ntp497
Rp498
(dp499
g48
I1
sg125
g89
(g90
(I0
tp500
g92
tp501
Rp502
(I1
(I2
tp503
g99
I00
S'H\xaf\xbc\x9a\xf2\xd7z>H\xaf\xbc\x9a\xf2\xd7z>'
p504
tp505
bsg51
(dp506
I4775612496
g495
ssg133
g89
(g90
(I0
tp507
g92
tp508
Rp509
(I1
(I2
I2
tp510
g99
I00
S'\x00\x00\x00\x00\x00\x00\x00\x00\x00\x00\x00\x00\x00\x00\x00\x00\x00\x00\x00\x00\x00\x00\xf0?\x00\x00\x00\x00\x00\x00\xf0?'
p511
tp512
bsg140
g89
(g90
(I0
tp513
g92
tp514
Rp515
(I1
(I2
I2
tp516
g99
I00
S'\x00\x00\x00\x00\x00\x00\x00\x00\x00\x00\x00\x00\x00\x00\x00\x00\x00\x00\x00\x00\x00\x00\xf0?\x00\x00\x00\x00\x00\x00\xf0?'
p517
tp518
bsg147
I01
sg50
g7
sbsg51
(dp519
I4775296784
g492
ssg50
g7
sbsg243
I2
sg244
g0
(g104
g2
Ntp520
Rp521
(dp522
g48
I2
sg49
Nsg88
g89
(g90
(I0
tp523
g92
tp524
Rp525
(I1
(I3
I3
tp526
g99
I00
S'\x00\x00\x00\x00\x00\x00\xf0?\x00\x00\x00\x00\x00\x00\x00\x00\x00\x00\x00\x00\x00\x00\x00\x00\x00\x00\x00\x00\x00\x00\x00\x00\x00\x00\x00\x00\x00\x00\xf0?\x00\x00\x00\x00\x00\x00\x00\x00\x00\x00\x00\x00\x00\x00\x00\x00\x00\x00\x00\x00\x00\x00\x00\x00\x00\x00\x00\x00\x00\x00\xf0?'
p527
tp528
bsg50
g7
sg51
(dp529
I4775296784
g492
ssbsg51
(dp530
I4775612560
g489
ssg50
g7
sbsg243
I2
sg244
g246
sg51
(dp531
I4775612624
g0
(g116
g2
Ntp532
Rp533
(dp534
g48
I2
sg120
g0
(g121
g2
Ntp535
Rp536
(dp537
g48
I1
sg125
g89
(g90
(I0
tp538
g92
tp539
Rp540
(I1
(I2
tp541
g99
I00
S'H\xaf\xbc\x9a\xf2\xd7z>H\xaf\xbc\x9a\xf2\xd7z>'
p542
tp543
bsg51
(dp544
I4775612624
g533
ssg133
g89
(g90
(I0
tp545
g92
tp546
Rp547
(I1
(I2
I2
tp548
g99
I00
S'\x00\x00\x00\x00\x00\x00\x00\x00\x00\x00\x00\x00\x00\x00\x00\x00\x00\x00\x00\x00\x00\x00\xf0?\x00\x00\x00\x00\x00\x00\xf0?'
p549
tp550
bsg140
g89
(g90
(I0
tp551
g92
tp552
Rp553
(I1
(I2
I2
tp554
g99
I00
S'\x00\x00\x00\x00\x00\x00\x00\x00\x00\x00\x00\x00\x00\x00\x00\x00\x00\x00\x00\x00\x00\x00\xf0?\x00\x00\x00\x00\x00\x00\xf0?'
p555
tp556
bsg147
I01
sg50
g7
sbsg83
g489
sg140
Nsg51
(dp557
sg50
g7
sbssg50
g7
sbsI4842059408
g0
(g403
g2
Ntp558
Rp559
(dp560
g48
I2
sg88
g89
(g90
(I0
tp561
g92
tp562
Rp563
(I1
(I3
I3
tp564
g99
I00
S'\x00\x00\x00\x00\x00\x00o@\x00\x00\x00\x00\x00\x00\x00\x00\x00\x00\x00\x00\x00\x00D@\x00\x00\x00\x00\x00\x00\x00\x00\x00\x00\x00\x00\x00\x00\xf0?\x00\x00\x00\x00\x00\x00\x00\x00\x00\x00\x00\x00\x00\x00\x00\x00\x00\x00\x00\x00\x00\x00\x00\x00\x00\x00\x00\x00\x00\x00\xf0?'
p565
tp566
bsg55
g0
(g44
g2
Ntp567
Rp568
(dp569
g48
I1
sg49
Nsg50
g7
sg51
(dp570
I4842059408
g559
ssbsg56
g246
sg49
Nsg50
g7
sg51
(dp571
sbsI4775296656
g0
(g166
g2
Ntp572
Rp573
(dp574
g48
I2
sg170
I2
sg171
g246
sg243
I2
sg244
g0
(g158
g2
Ntp575
Rp576
(dp577
g48
I0
sg88
g89
(g90
(I0
tp578
g92
tp579
Rp580
(I1
(I3
I3
tp581
g99
I00
S'\x00\x00\x00\x00\x00\x00\xf0?\x00\x00\x00\x00\x00\x00\x00\x00\x00\x00\x00\x00\x00\x00\x00\x00\x00\x00\x00\x00\x00\x00\x00\x00\x00\x00\x00\x00\x00\x00\xf0?\x8e\xe38\x8e\xe38\x16@\x00\x00\x00\x00\x00\x00\x00\x00\x00\x00\x00\x00\x00\x00\x00\x00\x00\x00\x00\x00\x00\x00\xf0?'
p582
tp583
bsg162
g149
sg49
Nsg163
(F0.0
F0.06944444444444445
tp584
sg50
g7
sg51
(dp585
I4775296528
g0
(g166
g2
Ntp586
Rp587
(dp588
g48
I2
sg170
I2
sg171
g246
sg243
I2
sg244
g576
sg51
(dp589
sg50
g7
sbsI4775296592
g0
(g166
g2
Ntp590
Rp591
(dp592
g48
I2
sg170
I2
sg171
g246
sg243
I2
sg244
g576
sg51
(dp593
sg50
g7
sbsI4775296656
g573
ssbsg51
(dp594
sg50
g7
sbsI4775614352
g0
(g166
g2
Ntp595
Rp596
(dp597
g48
I2
sg170
I2
sg171
g0
(g166
g2
Ntp598
Rp599
(dp600
g48
I1
sg170
I2
sg171
g0
(g84
g2
Ntp601
Rp602
(dp603
g48
I1
sg88
Nsg49
Nsg115
g0
(g121
g2
Ntp604
Rp605
(dp606
g48
I1
sg125
g89
(g90
(I0
tp607
g92
tp608
Rp609
(I1
(I2
tp610
g99
I00
S'H\xaf\xbc\x9a\xf2\xd7z>H\xaf\xbc\x9a\xf2\xd7z>'
p611
tp612
bsg51
(dp613
I4775614224
g602
ssg133
g89
(g90
(I0
tp614
g92
tp615
Rp616
(I1
(I2
I2
tp617
g99
I00
S'\x00\x00\x00\x00\x00\x00\x00\x00\x00\x00\x00\x00\x00\x00\x00\x00\x00\x00\x00\x00\x00\x00\xf0?\x00\x00\x00\x00\x00\x00\xf0?'
p618
tp619
bsg140
g89
(g90
(I0
tp620
g92
tp621
Rp622
(I1
(I2
I2
tp623
g99
I00
S'\x00\x00\x00\x00\x00\x00\x00\x00\x00\x00\x00\x00\x00\x00\x00\x00\x00\x00\x00\x00\x00\x00\xf0?\x00\x00\x00\x00\x00\x00\xf0?'
p624
tp625
bsg147
I01
sg50
g7
sbsg51
(dp626
I4775614288
g599
ssg50
g7
sbsg243
I2
sg244
g0
(g104
g2
Ntp627
Rp628
(dp629
g48
I2
sg49
Nsg88
g89
(g90
(I0
tp630
g92
tp631
Rp632
(I1
(I3
I3
tp633
g99
I00
S'\x00\x00\x00\x00\x00\x00\xf0?\x00\x00\x00\x00\x00\x00\x00\x00\x00\x00\x00\x00\x00\x00\x00\x00\x00\x00\x00\x00\x00\x00\x00\x00\x00\x00\x00\x00\x00\x00\xf0?\x00\x00\x00\x00\x00\x00\x00\x00\x00\x00\x00\x00\x00\x00\x00\x00\x00\x00\x00\x00\x00\x00\x00\x00\x00\x00\x00\x00\x00\x00\xf0?'
p634
tp635
bsg50
g7
sg51
(dp636
I4775614288
g599
ssbsg51
(dp637
I4775614352
g596
ssg50
g7
sbsg243
I2
sg244
g246
sg51
(dp638
I4775614416
g0
(g116
g2
Ntp639
Rp640
(dp641
g48
I2
sg120
g0
(g121
g2
Ntp642
Rp643
(dp644
g48
I1
sg125
g89
(g90
(I0
tp645
g92
tp646
Rp647
(I1
(I2
tp648
g99
I00
S'H\xaf\xbc\x9a\xf2\xd7z>H\xaf\xbc\x9a\xf2\xd7z>'
p649
tp650
bsg51
(dp651
I4775614416
g640
ssg133
g89
(g90
(I0
tp652
g92
tp653
Rp654
(I1
(I2
I2
tp655
g99
I00
S'\x00\x00\x00\x00\x00\x00\x00\x00\x00\x00\x00\x00\x00\x00\x00\x00\x00\x00\x00\x00\x00\x00\xf0?\x00\x00\x00\x00\x00\x00\xf0?'
p656
tp657
bsg140
g89
(g90
(I0
tp658
g92
tp659
Rp660
(I1
(I2
I2
tp661
g99
I00
S'\x00\x00\x00\x00\x00\x00\x00\x00\x00\x00\x00\x00\x00\x00\x00\x00\x00\x00\x00\x00\x00\x00\xf0?\x00\x00\x00\x00\x00\x00\xf0?'
p662
tp663
bsg147
I01
sg50
g7
sbsg83
g596
sg140
Nsg51
(dp664
sg50
g7
sbssg50
g7
sbsI4775729936
g0
(g166
g2
Ntp665
Rp666
(dp667
g48
I2
sg170
I2
sg171
g0
(g166
g2
Ntp668
Rp669
(dp670
g48
I1
sg170
I2
sg171
g0
(g84
g2
Ntp671
Rp672
(dp673
g48
I1
sg88
Nsg49
Nsg115
g0
(g121
g2
Ntp674
Rp675
(dp676
g48
I1
sg125
g89
(g90
(I0
tp677
g92
tp678
Rp679
(I1
(I2
tp680
g99
I00
S'H\xaf\xbc\x9a\xf2\xd7z>H\xaf\xbc\x9a\xf2\xd7z>'
p681
tp682
bsg51
(dp683
I4775729808
g672
ssg133
g89
(g90
(I0
tp684
g92
tp685
Rp686
(I1
(I2
I2
tp687
g99
I00
S'\x00\x00\x00\x00\x00\x00\x00\x00\x00\x00\x00\x00\x00\x00\x00\x00\x00\x00\x00\x00\x00\x00\xf0?\x00\x00\x00\x00\x00\x00\xf0?'
p688
tp689
bsg140
g89
(g90
(I0
tp690
g92
tp691
Rp692
(I1
(I2
I2
tp693
g99
I00
S'\x00\x00\x00\x00\x00\x00\x00\x00\x00\x00\x00\x00\x00\x00\x00\x00\x00\x00\x00\x00\x00\x00\xf0?\x00\x00\x00\x00\x00\x00\xf0?'
p694
tp695
bsg147
I01
sg50
g7
sbsg51
(dp696
I4775729872
g669
ssg50
g7
sbsg243
I2
sg244
g0
(g104
g2
Ntp697
Rp698
(dp699
g48
I2
sg49
Nsg88
g89
(g90
(I0
tp700
g92
tp701
Rp702
(I1
(I3
I3
tp703
g99
I00
S'\x00\x00\x00\x00\x00\x00\xf0?\x00\x00\x00\x00\x00\x00\x00\x00\x00\x00\x00\x00\x00\x00\x00\x00\x00\x00\x00\x00\x00\x00\x00\x00\x00\x00\x00\x00\x00\x00\xf0?\x00\x00\x00\x00\x00\x00\x00\x00\x00\x00\x00\x00\x00\x00\x00\x00\x00\x00\x00\x00\x00\x00\x00\x00\x00\x00\x00\x00\x00\x00\xf0?'
p704
tp705
bsg50
g7
sg51
(dp706
I4775729872
g669
ssbsg51
(dp707
I4775729936
g666
ssg50
g7
sbsg243
I2
sg244
g246
sg51
(dp708
I4775730000
g0
(g116
g2
Ntp709
Rp710
(dp711
g48
I2
sg120
g0
(g121
g2
Ntp712
Rp713
(dp714
g48
I1
sg125
g89
(g90
(I0
tp715
g92
tp716
Rp717
(I1
(I2
tp718
g99
I00
S'H\xaf\xbc\x9a\xf2\xd7z>H\xaf\xbc\x9a\xf2\xd7z>'
p719
tp720
bsg51
(dp721
I4775730000
g710
ssg133
g89
(g90
(I0
tp722
g92
tp723
Rp724
(I1
(I2
I2
tp725
g99
I00
S'\x00\x00\x00\x00\x00\x00\x00\x00\x00\x00\x00\x00\x00\x00\x00\x00\x00\x00\x00\x00\x00\x00\xf0?\x00\x00\x00\x00\x00\x00\xf0?'
p726
tp727
bsg140
g89
(g90
(I0
tp728
g92
tp729
Rp730
(I1
(I2
I2
tp731
g99
I00
S'\x00\x00\x00\x00\x00\x00\x00\x00\x00\x00\x00\x00\x00\x00\x00\x00\x00\x00\x00\x00\x00\x00\xf0?\x00\x00\x00\x00\x00\x00\xf0?'
p732
tp733
bsg147
I01
sg50
g7
sbsg83
g666
sg140
Nsg51
(dp734
sg50
g7
sbssg50
g7
sbsI4775614800
g0
(g166
g2
Ntp735
Rp736
(dp737
g48
I2
sg170
I2
sg171
g0
(g166
g2
Ntp738
Rp739
(dp740
g48
I1
sg170
I2
sg171
g0
(g84
g2
Ntp741
Rp742
(dp743
g48
I1
sg88
Nsg49
Nsg115
g0
(g121
g2
Ntp744
Rp745
(dp746
g48
I1
sg125
g89
(g90
(I0
tp747
g92
tp748
Rp749
(I1
(I2
tp750
g99
I00
S'H\xaf\xbc\x9a\xf2\xd7z>H\xaf\xbc\x9a\xf2\xd7z>'
p751
tp752
bsg51
(dp753
I4775614672
g742
ssg133
g89
(g90
(I0
tp754
g92
tp755
Rp756
(I1
(I2
I2
tp757
g99
I00
S'\x00\x00\x00\x00\x00\x00\x00\x00\x00\x00\x00\x00\x00\x00\x00\x00\x00\x00\x00\x00\x00\x00\xf0?\x00\x00\x00\x00\x00\x00\xf0?'
p758
tp759
bsg140
g89
(g90
(I0
tp760
g92
tp761
Rp762
(I1
(I2
I2
tp763
g99
I00
S'\x00\x00\x00\x00\x00\x00\x00\x00\x00\x00\x00\x00\x00\x00\x00\x00\x00\x00\x00\x00\x00\x00\xf0?\x00\x00\x00\x00\x00\x00\xf0?'
p764
tp765
bsg147
I01
sg50
g7
sbsg51
(dp766
I4775614736
g739
ssg50
g7
sbsg243
I2
sg244
g0
(g104
g2
Ntp767
Rp768
(dp769
g48
I2
sg49
Nsg88
g89
(g90
(I0
tp770
g92
tp771
Rp772
(I1
(I3
I3
tp773
g99
I00
S'\x00\x00\x00\x00\x00\x00\xf0?\x00\x00\x00\x00\x00\x00\x00\x00\x00\x00\x00\x00\x00\x00\x00\x00\x00\x00\x00\x00\x00\x00\x00\x00\x00\x00\x00\x00\x00\x00\xf0?\x00\x00\x00\x00\x00\x00\x00\x00\x00\x00\x00\x00\x00\x00\x00\x00\x00\x00\x00\x00\x00\x00\x00\x00\x00\x00\x00\x00\x00\x00\xf0?'
p774
tp775
bsg50
g7
sg51
(dp776
I4775614736
g739
ssbsg51
(dp777
I4775614800
g736
ssg50
g7
sbsg243
I2
sg244
g246
sg51
(dp778
I4775614864
g0
(g116
g2
Ntp779
Rp780
(dp781
g48
I2
sg120
g0
(g121
g2
Ntp782
Rp783
(dp784
g48
I1
sg125
g89
(g90
(I0
tp785
g92
tp786
Rp787
(I1
(I2
tp788
g99
I00
S'H\xaf\xbc\x9a\xf2\xd7z>H\xaf\xbc\x9a\xf2\xd7z>'
p789
tp790
bsg51
(dp791
I4775614864
g780
ssg133
g89
(g90
(I0
tp792
g92
tp793
Rp794
(I1
(I2
I2
tp795
g99
I00
S'\x00\x00\x00\x00\x00\x00\x00\x00\x00\x00\x00\x00\x00\x00\x00\x00\x00\x00\x00\x00\x00\x00\xf0?\x00\x00\x00\x00\x00\x00\xf0?'
p796
tp797
bsg140
g89
(g90
(I0
tp798
g92
tp799
Rp800
(I1
(I2
I2
tp801
g99
I00
S'\x00\x00\x00\x00\x00\x00\x00\x00\x00\x00\x00\x00\x00\x00\x00\x00\x00\x00\x00\x00\x00\x00\xf0?\x00\x00\x00\x00\x00\x00\xf0?'
p802
tp803
bsg147
I01
sg50
g7
sbsg83
g736
sg140
Nsg51
(dp804
sg50
g7
sbssg50
g7
sbsI4775426768
g0
(g403
g2
Ntp805
Rp806
(dp807
g48
I2
sg88
g89
(g90
(I0
tp808
g92
tp809
Rp810
(I1
(I3
I3
tp811
g99
I00
S'\x00\x00\x00\x00\x00\x00\xf0?\x00\x00\x00\x00\x00\x00\x00\x00\x00\x00\x00\x00\x00\x00\x00\x00\x00\x00\x00\x00\x00\x00\x00\x00\x00\x00\x00\x00\x00\x00o@\x00\x00\x00\x00\x00\x00D@\x00\x00\x00\x00\x00\x00\x00\x00\x00\x00\x00\x00\x00\x00\x00\x00\x00\x00\x00\x00\x00\x00\xf0?'
p812
tp813
bsg55
g246
sg56
g0
(g44
g2
Ntp814
Rp815
(dp816
g48
I1
sg49
Nsg50
g7
sg51
(dp817
I4775426768
g806
ssbsg49
Nsg50
g7
sg51
(dp818
sbsI4775615248
g0
(g166
g2
Ntp819
Rp820
(dp821
g48
I2
sg170
I2
sg171
g0
(g166
g2
Ntp822
Rp823
(dp824
g48
I1
sg170
I2
sg171
g0
(g84
g2
Ntp825
Rp826
(dp827
g48
I1
sg88
Nsg49
Nsg115
g0
(g121
g2
Ntp828
Rp829
(dp830
g48
I1
sg125
g89
(g90
(I0
tp831
g92
tp832
Rp833
(I1
(I2
tp834
g99
I00
S'H\xaf\xbc\x9a\xf2\xd7z>H\xaf\xbc\x9a\xf2\xd7z>'
p835
tp836
bsg51
(dp837
I4775615120
g826
ssg133
g89
(g90
(I0
tp838
g92
tp839
Rp840
(I1
(I2
I2
tp841
g99
I00
S'\x00\x00\x00\x00\x00\x00\x00\x00\x00\x00\x00\x00\x00\x00\x00\x00\x00\x00\x00\x00\x00\x00\xf0?\x00\x00\x00\x00\x00\x00\xf0?'
p842
tp843
bsg140
g89
(g90
(I0
tp844
g92
tp845
Rp846
(I1
(I2
I2
tp847
g99
I00
S'\x00\x00\x00\x00\x00\x00\x00\x00\x00\x00\x00\x00\x00\x00\x00\x00\x00\x00\x00\x00\x00\x00\xf0?\x00\x00\x00\x00\x00\x00\xf0?'
p848
tp849
bsg147
I01
sg50
g7
sbsg51
(dp850
I4775615184
g823
ssg50
g7
sbsg243
I2
sg244
g0
(g104
g2
Ntp851
Rp852
(dp853
g48
I2
sg49
Nsg88
g89
(g90
(I0
tp854
g92
tp855
Rp856
(I1
(I3
I3
tp857
g99
I00
S'\x00\x00\x00\x00\x00\x00\xf0?\x00\x00\x00\x00\x00\x00\x00\x00\x00\x00\x00\x00\x00\x00\x00\x00\x00\x00\x00\x00\x00\x00\x00\x00\x00\x00\x00\x00\x00\x00\xf0?\x00\x00\x00\x00\x00\x00\x00\x00\x00\x00\x00\x00\x00\x00\x00\x00\x00\x00\x00\x00\x00\x00\x00\x00\x00\x00\x00\x00\x00\x00\xf0?'
p858
tp859
bsg50
g7
sg51
(dp860
I4775615184
g823
ssbsg51
(dp861
I4775615248
g820
ssg50
g7
sbsg243
I2
sg244
g246
sg51
(dp862
I4775615312
g0
(g116
g2
Ntp863
Rp864
(dp865
g48
I2
sg120
g0
(g121
g2
Ntp866
Rp867
(dp868
g48
I1
sg125
g89
(g90
(I0
tp869
g92
tp870
Rp871
(I1
(I2
tp872
g99
I00
S'H\xaf\xbc\x9a\xf2\xd7z>H\xaf\xbc\x9a\xf2\xd7z>'
p873
tp874
bsg51
(dp875
I4775615312
g864
ssg133
g89
(g90
(I0
tp876
g92
tp877
Rp878
(I1
(I2
I2
tp879
g99
I00
S'\x00\x00\x00\x00\x00\x00\x00\x00\x00\x00\x00\x00\x00\x00\x00\x00\x00\x00\x00\x00\x00\x00\xf0?\x00\x00\x00\x00\x00\x00\xf0?'
p880
tp881
bsg140
g89
(g90
(I0
tp882
g92
tp883
Rp884
(I1
(I2
I2
tp885
g99
I00
S'\x00\x00\x00\x00\x00\x00\x00\x00\x00\x00\x00\x00\x00\x00\x00\x00\x00\x00\x00\x00\x00\x00\xf0?\x00\x00\x00\x00\x00\x00\xf0?'
p886
tp887
bsg147
I01
sg50
g7
sbsg83
g820
sg140
Nsg51
(dp888
sg50
g7
sbssg50
g7
sbsI4775616144
g0
(g166
g2
Ntp889
Rp890
(dp891
g48
I2
sg170
I2
sg171
g0
(g166
g2
Ntp892
Rp893
(dp894
g48
I1
sg170
I2
sg171
g0
(g84
g2
Ntp895
Rp896
(dp897
g48
I1
sg88
Nsg49
Nsg115
g0
(g121
g2
Ntp898
Rp899
(dp900
g48
I1
sg125
g89
(g90
(I0
tp901
g92
tp902
Rp903
(I1
(I2
tp904
g99
I00
S'H\xaf\xbc\x9a\xf2\xd7z>H\xaf\xbc\x9a\xf2\xd7z>'
p905
tp906
bsg51
(dp907
I4775616016
g896
ssg133
g89
(g90
(I0
tp908
g92
tp909
Rp910
(I1
(I2
I2
tp911
g99
I00
S'\x00\x00\x00\x00\x00\x00\x00\x00\x00\x00\x00\x00\x00\x00\x00\x00\x00\x00\x00\x00\x00\x00\xf0?\x00\x00\x00\x00\x00\x00\xf0?'
p912
tp913
bsg140
g89
(g90
(I0
tp914
g92
tp915
Rp916
(I1
(I2
I2
tp917
g99
I00
S'\x00\x00\x00\x00\x00\x00\x00\x00\x00\x00\x00\x00\x00\x00\x00\x00\x00\x00\x00\x00\x00\x00\xf0?\x00\x00\x00\x00\x00\x00\xf0?'
p918
tp919
bsg147
I01
sg50
g7
sbsg51
(dp920
I4775616080
g893
ssg50
g7
sbsg243
I2
sg244
g0
(g104
g2
Ntp921
Rp922
(dp923
g48
I2
sg49
Nsg88
g89
(g90
(I0
tp924
g92
tp925
Rp926
(I1
(I3
I3
tp927
g99
I00
S'\x00\x00\x00\x00\x00\x00\xf0?\x00\x00\x00\x00\x00\x00\x00\x00\x00\x00\x00\x00\x00\x00\x00\x00\x00\x00\x00\x00\x00\x00\x00\x00\x00\x00\x00\x00\x00\x00\xf0?\x00\x00\x00\x00\x00\x00\x00\x00\x00\x00\x00\x00\x00\x00\x00\x00\x00\x00\x00\x00\x00\x00\x00\x00\x00\x00\x00\x00\x00\x00\xf0?'
p928
tp929
bsg50
g7
sg51
(dp930
I4775616080
g893
ssbsg51
(dp931
I4775616144
g890
ssg50
g7
sbsg243
I2
sg244
g246
sg51
(dp932
I4775616208
g0
(g116
g2
Ntp933
Rp934
(dp935
g48
I2
sg120
g0
(g121
g2
Ntp936
Rp937
(dp938
g48
I1
sg125
g89
(g90
(I0
tp939
g92
tp940
Rp941
(I1
(I2
tp942
g99
I00
S'H\xaf\xbc\x9a\xf2\xd7z>H\xaf\xbc\x9a\xf2\xd7z>'
p943
tp944
bsg51
(dp945
I4775616208
g934
ssg133
g89
(g90
(I0
tp946
g92
tp947
Rp948
(I1
(I2
I2
tp949
g99
I00
S'\x00\x00\x00\x00\x00\x00\x00\x00\x00\x00\x00\x00\x00\x00\x00\x00\x00\x00\x00\x00\x00\x00\xf0?\x00\x00\x00\x00\x00\x00\xf0?'
p950
tp951
bsg140
g89
(g90
(I0
tp952
g92
tp953
Rp954
(I1
(I2
I2
tp955
g99
I00
S'\x00\x00\x00\x00\x00\x00\x00\x00\x00\x00\x00\x00\x00\x00\x00\x00\x00\x00\x00\x00\x00\x00\xf0?\x00\x00\x00\x00\x00\x00\xf0?'
p956
tp957
bsg147
I01
sg50
g7
sbsg83
g890
sg140
Nsg51
(dp958
sg50
g7
sbssg50
g7
sbsI4775427216
g0
(g166
g2
Ntp959
Rp960
(dp961
g48
I2
sg170
I2
sg171
g0
(g166
g2
Ntp962
Rp963
(dp964
g48
I1
sg170
I2
sg171
g0
(g84
g2
Ntp965
Rp966
(dp967
g48
I1
sg88
Nsg49
Nsg115
g0
(g121
g2
Ntp968
Rp969
(dp970
g48
I1
sg125
g89
(g90
(I0
tp971
g92
tp972
Rp973
(I1
(I2
tp974
g99
I00
S'H\xaf\xbc\x9a\xf2\xd7z>H\xaf\xbc\x9a\xf2\xd7z>'
p975
tp976
bsg51
(dp977
I4775613392
g966
ssg133
g89
(g90
(I0
tp978
g92
tp979
Rp980
(I1
(I2
I2
tp981
g99
I00
S'\x00\x00\x00\x00\x00\x00\x00\x00\x00\x00\x00\x00\x00\x00\x00\x00\x00\x00\x00\x00\x00\x00\xf0?\x00\x00\x00\x00\x00\x00\xf0?'
p982
tp983
bsg140
g89
(g90
(I0
tp984
g92
tp985
Rp986
(I1
(I2
I2
tp987
g99
I00
S'\x00\x00\x00\x00\x00\x00\x00\x00\x00\x00\x00\x00\x00\x00\x00\x00\x00\x00\x00\x00\x00\x00\xf0?\x00\x00\x00\x00\x00\x00\xf0?'
p988
tp989
bsg147
I01
sg50
g7
sbsg51
(dp990
I4775424336
g963
ssg50
g7
sbsg243
I2
sg244
g0
(g104
g2
Ntp991
Rp992
(dp993
g48
I2
sg49
Nsg88
g89
(g90
(I0
tp994
g92
tp995
Rp996
(I1
(I3
I3
tp997
g99
I00
S'\x00\x00\x00\x00\x00\x00\xf0?\x00\x00\x00\x00\x00\x00\x00\x00\x00\x00\x00\x00\x00\x00\x00\x00\x00\x00\x00\x00\x00\x00\x00\x00\x00\x00\x00\x00\x00\x00\xf0?\x00\x00\x00\x00\x00\x00\x00\x00\x00\x00\x00\x00\x00\x00\x00\x00\x00\x00\x00\x00\x00\x00\x00\x00\x00\x00\x00\x00\x00\x00\xf0?'
p998
tp999
bsg50
g7
sg51
(dp1000
I4775424336
g963
ssbsg51
(dp1001
I4775427216
g960
ssg50
g7
sbsg243
I2
sg244
g246
sg51
(dp1002
I4842061200
g0
(g116
g2
Ntp1003
Rp1004
(dp1005
g48
I2
sg120
g0
(g121
g2
Ntp1006
Rp1007
(dp1008
g48
I1
sg125
g89
(g90
(I0
tp1009
g92
tp1010
Rp1011
(I1
(I2
tp1012
g99
I00
S'H\xaf\xbc\x9a\xf2\xd7z>H\xaf\xbc\x9a\xf2\xd7z>'
p1013
tp1014
bsg51
(dp1015
I4842061200
g1004
ssg133
g89
(g90
(I0
tp1016
g92
tp1017
Rp1018
(I1
(I2
I2
tp1019
g99
I00
S'\x00\x00\x00\x00\x00\x00\x00\x00\x00\x00\x00\x00\x00\x00\x00\x00\x00\x00\x00\x00\x00\x00\xf0?\x00\x00\x00\x00\x00\x00\xf0?'
p1020
tp1021
bsg140
g89
(g90
(I0
tp1022
g92
tp1023
Rp1024
(I1
(I2
I2
tp1025
g99
I00
S'\x00\x00\x00\x00\x00\x00\x00\x00\x00\x00\x00\x00\x00\x00\x00\x00\x00\x00\x00\x00\x00\x00\xf0?\x00\x00\x00\x00\x00\x00\xf0?'
p1026
tp1027
bsg147
I01
sg50
g7
sbsg83
g960
sg140
Nsg51
(dp1028
sg50
g7
sbssg50
g7
sbsI4775427024
g0
(g403
g2
Ntp1029
Rp1030
(dp1031
g48
I2
sg88
g89
(g90
(I0
tp1032
g92
tp1033
Rp1034
(I1
(I3
I3
tp1035
g99
I00
S'\x00\x00\x00\x00\x00\x00o@\x00\x00\x00\x00\x00\x00\x00\x00\x00\x00\x00\x00\x00\x00D@\x00\x00\x00\x00\x00\x00\x00\x00\x00\x00\x00\x00\x00\x00\xf0?\x00\x00\x00\x00\x00\x00\x00\x00\x00\x00\x00\x00\x00\x00\x00\x00\x00\x00\x00\x00\x00\x00\x00\x00\x00\x00\x00\x00\x00\x00\xf0?'
p1036
tp1037
bsg55
g0
(g44
g2
Ntp1038
Rp1039
(dp1040
g48
I1
sg49
Nsg50
g7
sg51
(dp1041
I4775427024
g1030
ssbsg56
g246
sg49
Nsg50
g7
sg51
(dp1042
sbsI4775730256
g0
(g166
g2
Ntp1043
Rp1044
(dp1045
g48
I2
sg170
I2
sg171
g0
(g166
g2
Ntp1046
Rp1047
(dp1048
g48
I1
sg170
I2
sg171
g0
(g84
g2
Ntp1049
Rp1050
(dp1051
g48
I1
sg88
Nsg49
Nsg115
g0
(g121
g2
Ntp1052
Rp1053
(dp1054
g48
I1
sg125
g89
(g90
(I0
tp1055
g92
tp1056
Rp1057
(I1
(I2
tp1058
g99
I00
S'H\xaf\xbc\x9a\xf2\xd7z>H\xaf\xbc\x9a\xf2\xd7z>'
p1059
tp1060
bsg51
(dp1061
I4775730320
g1050
ssg133
g89
(g90
(I0
tp1062
g92
tp1063
Rp1064
(I1
(I2
I2
tp1065
g99
I00
S'\x00\x00\x00\x00\x00\x00\x00\x00\x00\x00\x00\x00\x00\x00\x00\x00\x00\x00\x00\x00\x00\x00\xf0?\x00\x00\x00\x00\x00\x00\xf0?'
p1066
tp1067
bsg140
g89
(g90
(I0
tp1068
g92
tp1069
Rp1070
(I1
(I2
I2
tp1071
g99
I00
S'\x00\x00\x00\x00\x00\x00\x00\x00\x00\x00\x00\x00\x00\x00\x00\x00\x00\x00\x00\x00\x00\x00\xf0?\x00\x00\x00\x00\x00\x00\xf0?'
p1072
tp1073
bsg147
I01
sg50
g7
sbsg51
(dp1074
I4775730384
g1047
ssg50
g7
sbsg243
I2
sg244
g0
(g104
g2
Ntp1075
Rp1076
(dp1077
g48
I2
sg49
Nsg88
g89
(g90
(I0
tp1078
g92
tp1079
Rp1080
(I1
(I3
I3
tp1081
g99
I00
S'\x00\x00\x00\x00\x00\x00\xf0?\x00\x00\x00\x00\x00\x00\x00\x00\x00\x00\x00\x00\x00\x00\x00\x00\x00\x00\x00\x00\x00\x00\x00\x00\x00\x00\x00\x00\x00\x00\xf0?\x00\x00\x00\x00\x00\x00\x00\x00\x00\x00\x00\x00\x00\x00\x00\x00\x00\x00\x00\x00\x00\x00\x00\x00\x00\x00\x00\x00\x00\x00\xf0?'
p1082
tp1083
bsg50
g7
sg51
(dp1084
I4775730384
g1047
ssbsg51
(dp1085
I4775730256
g1044
ssg50
g7
sbsg243
I2
sg244
g246
sg51
(dp1086
I4775730448
g0
(g116
g2
Ntp1087
Rp1088
(dp1089
g48
I2
sg120
g0
(g121
g2
Ntp1090
Rp1091
(dp1092
g48
I1
sg125
g89
(g90
(I0
tp1093
g92
tp1094
Rp1095
(I1
(I2
tp1096
g99
I00
S'H\xaf\xbc\x9a\xf2\xd7z>H\xaf\xbc\x9a\xf2\xd7z>'
p1097
tp1098
bsg51
(dp1099
I4775730448
g1088
ssg133
g89
(g90
(I0
tp1100
g92
tp1101
Rp1102
(I1
(I2
I2
tp1103
g99
I00
S'\x00\x00\x00\x00\x00\x00\x00\x00\x00\x00\x00\x00\x00\x00\x00\x00\x00\x00\x00\x00\x00\x00\xf0?\x00\x00\x00\x00\x00\x00\xf0?'
p1104
tp1105
bsg140
g89
(g90
(I0
tp1106
g92
tp1107
Rp1108
(I1
(I2
I2
tp1109
g99
I00
S'\x00\x00\x00\x00\x00\x00\x00\x00\x00\x00\x00\x00\x00\x00\x00\x00\x00\x00\x00\x00\x00\x00\xf0?\x00\x00\x00\x00\x00\x00\xf0?'
p1110
tp1111
bsg147
I01
sg50
g7
sbsg83
g1044
sg140
Nsg51
(dp1112
sg50
g7
sbssg50
g7
sbsI4775615632
g0
(g166
g2
Ntp1113
Rp1114
(dp1115
g48
I2
sg170
I2
sg171
g0
(g166
g2
Ntp1116
Rp1117
(dp1118
g48
I1
sg170
I2
sg171
g0
(g84
g2
Ntp1119
Rp1120
(dp1121
g48
I1
sg88
Nsg49
Nsg115
g0
(g121
g2
Ntp1122
Rp1123
(dp1124
g48
I1
sg125
g89
(g90
(I0
tp1125
g92
tp1126
Rp1127
(I1
(I2
tp1128
g99
I00
S'H\xaf\xbc\x9a\xf2\xd7z>H\xaf\xbc\x9a\xf2\xd7z>'
p1129
tp1130
bsg51
(dp1131
I4775615504
g1120
ssg133
g89
(g90
(I0
tp1132
g92
tp1133
Rp1134
(I1
(I2
I2
tp1135
g99
I00
S'\x00\x00\x00\x00\x00\x00\x00\x00\x00\x00\x00\x00\x00\x00\x00\x00\x00\x00\x00\x00\x00\x00\xf0?\x00\x00\x00\x00\x00\x00\xf0?'
p1136
tp1137
bsg140
g89
(g90
(I0
tp1138
g92
tp1139
Rp1140
(I1
(I2
I2
tp1141
g99
I00
S'\x00\x00\x00\x00\x00\x00\x00\x00\x00\x00\x00\x00\x00\x00\x00\x00\x00\x00\x00\x00\x00\x00\xf0?\x00\x00\x00\x00\x00\x00\xf0?'
p1142
tp1143
bsg147
I01
sg50
g7
sbsg51
(dp1144
I4775615568
g1117
ssg50
g7
sbsg243
I2
sg244
g0
(g104
g2
Ntp1145
Rp1146
(dp1147
g48
I2
sg49
Nsg88
g89
(g90
(I0
tp1148
g92
tp1149
Rp1150
(I1
(I3
I3
tp1151
g99
I00
S'\x00\x00\x00\x00\x00\x00\xf0?\x00\x00\x00\x00\x00\x00\x00\x00\x00\x00\x00\x00\x00\x00\x00\x00\x00\x00\x00\x00\x00\x00\x00\x00\x00\x00\x00\x00\x00\x00\xf0?\x00\x00\x00\x00\x00\x00\x00\x00\x00\x00\x00\x00\x00\x00\x00\x00\x00\x00\x00\x00\x00\x00\x00\x00\x00\x00\x00\x00\x00\x00\xf0?'
p1152
tp1153
bsg50
g7
sg51
(dp1154
I4775615568
g1117
ssbsg51
(dp1155
I4775615632
g1114
ssg50
g7
sbsg243
I2
sg244
g246
sg51
(dp1156
I4775615696
g0
(g116
g2
Ntp1157
Rp1158
(dp1159
g48
I2
sg120
g0
(g121
g2
Ntp1160
Rp1161
(dp1162
g48
I1
sg125
g89
(g90
(I0
tp1163
g92
tp1164
Rp1165
(I1
(I2
tp1166
g99
I00
S'H\xaf\xbc\x9a\xf2\xd7z>H\xaf\xbc\x9a\xf2\xd7z>'
p1167
tp1168
bsg51
(dp1169
I4775615696
g1158
ssg133
g89
(g90
(I0
tp1170
g92
tp1171
Rp1172
(I1
(I2
I2
tp1173
g99
I00
S'\x00\x00\x00\x00\x00\x00\x00\x00\x00\x00\x00\x00\x00\x00\x00\x00\x00\x00\x00\x00\x00\x00\xf0?\x00\x00\x00\x00\x00\x00\xf0?'
p1174
tp1175
bsg140
g89
(g90
(I0
tp1176
g92
tp1177
Rp1178
(I1
(I2
I2
tp1179
g99
I00
S'\x00\x00\x00\x00\x00\x00\x00\x00\x00\x00\x00\x00\x00\x00\x00\x00\x00\x00\x00\x00\x00\x00\xf0?\x00\x00\x00\x00\x00\x00\xf0?'
p1180
tp1181
bsg147
I01
sg50
g7
sbsg83
g1114
sg140
Nsg51
(dp1182
sg50
g7
sbssg50
g7
sbsI4775223120
g174
sI4842061264
g0
(g166
g2
Ntp1183
Rp1184
(dp1185
g48
I2
sg170
I2
sg171
g0
(g166
g2
Ntp1186
Rp1187
(dp1188
g48
I1
sg170
I2
sg171
g0
(g84
g2
Ntp1189
Rp1190
(dp1191
g48
I1
sg88
Nsg49
Nsg115
g0
(g121
g2
Ntp1192
Rp1193
(dp1194
g48
I1
sg125
g89
(g90
(I0
tp1195
g92
tp1196
Rp1197
(I1
(I2
tp1198
g99
I00
S'H\xaf\xbc\x9a\xf2\xd7z>H\xaf\xbc\x9a\xf2\xd7z>'
p1199
tp1200
bsg51
(dp1201
I4842060112
g1190
ssg133
g89
(g90
(I0
tp1202
g92
tp1203
Rp1204
(I1
(I2
I2
tp1205
g99
I00
S'\x00\x00\x00\x00\x00\x00\x00\x00\x00\x00\x00\x00\x00\x00\x00\x00\x00\x00\x00\x00\x00\x00\xf0?\x00\x00\x00\x00\x00\x00\xf0?'
p1206
tp1207
bsg140
g89
(g90
(I0
tp1208
g92
tp1209
Rp1210
(I1
(I2
I2
tp1211
g99
I00
S'\x00\x00\x00\x00\x00\x00\x00\x00\x00\x00\x00\x00\x00\x00\x00\x00\x00\x00\x00\x00\x00\x00\xf0?\x00\x00\x00\x00\x00\x00\xf0?'
p1212
tp1213
bsg147
I01
sg50
g7
sbsg51
(dp1214
I4842061520
g1187
ssg50
g7
sbsg243
I2
sg244
g0
(g104
g2
Ntp1215
Rp1216
(dp1217
g48
I2
sg49
Nsg88
g89
(g90
(I0
tp1218
g92
tp1219
Rp1220
(I1
(I3
I3
tp1221
g99
I00
S'\x00\x00\x00\x00\x00\x00\xf0?\x00\x00\x00\x00\x00\x00\x00\x00\x00\x00\x00\x00\x00\x00\x00\x00\x00\x00\x00\x00\x00\x00\x00\x00\x00\x00\x00\x00\x00\x00\xf0?\x00\x00\x00\x00\x00\x00\x00\x00\x00\x00\x00\x00\x00\x00\x00\x00\x00\x00\x00\x00\x00\x00\x00\x00\x00\x00\x00\x00\x00\x00\xf0?'
p1222
tp1223
bsg50
g7
sg51
(dp1224
I4842061520
g1187
ssbsg51
(dp1225
I4842061264
g1184
ssg50
g7
sbsg243
I2
sg244
g246
sg51
(dp1226
I4842059792
g0
(g116
g2
Ntp1227
Rp1228
(dp1229
g48
I2
sg120
g0
(g121
g2
Ntp1230
Rp1231
(dp1232
g48
I1
sg125
g89
(g90
(I0
tp1233
g92
tp1234
Rp1235
(I1
(I2
tp1236
g99
I00
S'H\xaf\xbc\x9a\xf2\xd7z>H\xaf\xbc\x9a\xf2\xd7z>'
p1237
tp1238
bsg51
(dp1239
I4842059792
g1228
ssg133
g89
(g90
(I0
tp1240
g92
tp1241
Rp1242
(I1
(I2
I2
tp1243
g99
I00
S'\x00\x00\x00\x00\x00\x00\x00\x00\x00\x00\x00\x00\x00\x00\x00\x00\x00\x00\x00\x00\x00\x00\xf0?\x00\x00\x00\x00\x00\x00\xf0?'
p1244
tp1245
bsg140
g89
(g90
(I0
tp1246
g92
tp1247
Rp1248
(I1
(I2
I2
tp1249
g99
I00
S'\x00\x00\x00\x00\x00\x00\x00\x00\x00\x00\x00\x00\x00\x00\x00\x00\x00\x00\x00\x00\x00\x00\xf0?\x00\x00\x00\x00\x00\x00\xf0?'
p1250
tp1251
bsg147
I01
sg50
g7
sbsg83
g1184
sg140
Nsg51
(dp1252
sg50
g7
sbssg50
g7
sbsI4775296528
g587
sI4775296592
g591
sI4775222928
g241
sI4775829200
g0
(g166
g2
Ntp1253
Rp1254
(dp1255
g48
I2
sg170
I2
sg171
g0
(g166
g2
Ntp1256
Rp1257
(dp1258
g48
I1
sg170
I2
sg171
g0
(g84
g2
Ntp1259
Rp1260
(dp1261
g48
I1
sg88
Nsg49
Nsg115
g0
(g121
g2
Ntp1262
Rp1263
(dp1264
g48
I1
sg125
g89
(g90
(I0
tp1265
g92
tp1266
Rp1267
(I1
(I2
tp1268
g99
I00
S'H\xaf\xbc\x9a\xf2\xd7z>H\xaf\xbc\x9a\xf2\xd7z>'
p1269
tp1270
bsg51
(dp1271
I4775829072
g1260
ssg133
g89
(g90
(I0
tp1272
g92
tp1273
Rp1274
(I1
(I2
I2
tp1275
g99
I00
S'\x00\x00\x00\x00\x00\x00\x00\x00\x00\x00\x00\x00\x00\x00\x00\x00\x00\x00\x00\x00\x00\x00\xf0?\x00\x00\x00\x00\x00\x00\xf0?'
p1276
tp1277
bsg140
g89
(g90
(I0
tp1278
g92
tp1279
Rp1280
(I1
(I2
I2
tp1281
g99
I00
S'\x00\x00\x00\x00\x00\x00\x00\x00\x00\x00\x00\x00\x00\x00\x00\x00\x00\x00\x00\x00\x00\x00\xf0?\x00\x00\x00\x00\x00\x00\xf0?'
p1282
tp1283
bsg147
I01
sg50
g7
sbsg51
(dp1284
I4775829136
g1257
ssg50
g7
sbsg243
I2
sg244
g0
(g104
g2
Ntp1285
Rp1286
(dp1287
g48
I2
sg49
Nsg88
g89
(g90
(I0
tp1288
g92
tp1289
Rp1290
(I1
(I3
I3
tp1291
g99
I00
S'\x00\x00\x00\x00\x00\x00\xf0?\x00\x00\x00\x00\x00\x00\x00\x00\x00\x00\x00\x00\x00\x00\x00\x00\x00\x00\x00\x00\x00\x00\x00\x00\x00\x00\x00\x00\x00\x00\xf0?\x00\x00\x00\x00\x00\x00\x00\x00\x00\x00\x00\x00\x00\x00\x00\x00\x00\x00\x00\x00\x00\x00\x00\x00\x00\x00\x00\x00\x00\x00\xf0?'
p1292
tp1293
bsg50
g7
sg51
(dp1294
I4775829136
g1257
ssbsg51
(dp1295
I4775829200
g1254
ssg50
g7
sbsg243
I2
sg244
g246
sg51
(dp1296
I4775829264
g0
(g116
g2
Ntp1297
Rp1298
(dp1299
g48
I2
sg120
g0
(g121
g2
Ntp1300
Rp1301
(dp1302
g48
I1
sg125
g89
(g90
(I0
tp1303
g92
tp1304
Rp1305
(I1
(I2
tp1306
g99
I00
S'H\xaf\xbc\x9a\xf2\xd7z>H\xaf\xbc\x9a\xf2\xd7z>'
p1307
tp1308
bsg51
(dp1309
I4775829264
g1298
ssg133
g89
(g90
(I0
tp1310
g92
tp1311
Rp1312
(I1
(I2
I2
tp1313
g99
I00
S'\x00\x00\x00\x00\x00\x00\x00\x00\x00\x00\x00\x00\x00\x00\x00\x00\x00\x00\x00\x00\x00\x00\xf0?\x00\x00\x00\x00\x00\x00\xf0?'
p1314
tp1315
bsg140
g89
(g90
(I0
tp1316
g92
tp1317
Rp1318
(I1
(I2
I2
tp1319
g99
I00
S'\x00\x00\x00\x00\x00\x00\x00\x00\x00\x00\x00\x00\x00\x00\x00\x00\x00\x00\x00\x00\x00\x00\xf0?\x00\x00\x00\x00\x00\x00\xf0?'
p1320
tp1321
bsg147
I01
sg50
g7
sbsg83
g1254
sg140
Nsg51
(dp1322
sg50
g7
sbssg50
g7
sbsI4775613904
g0
(g166
g2
Ntp1323
Rp1324
(dp1325
g48
I2
sg170
I2
sg171
g0
(g166
g2
Ntp1326
Rp1327
(dp1328
g48
I1
sg170
I2
sg171
g0
(g84
g2
Ntp1329
Rp1330
(dp1331
g48
I1
sg88
Nsg49
Nsg115
g0
(g121
g2
Ntp1332
Rp1333
(dp1334
g48
I1
sg125
g89
(g90
(I0
tp1335
g92
tp1336
Rp1337
(I1
(I2
tp1338
g99
I00
S'H\xaf\xbc\x9a\xf2\xd7z>H\xaf\xbc\x9a\xf2\xd7z>'
p1339
tp1340
bsg51
(dp1341
I4775613776
g1330
ssg133
g89
(g90
(I0
tp1342
g92
tp1343
Rp1344
(I1
(I2
I2
tp1345
g99
I00
S'\x00\x00\x00\x00\x00\x00\x00\x00\x00\x00\x00\x00\x00\x00\x00\x00\x00\x00\x00\x00\x00\x00\xf0?\x00\x00\x00\x00\x00\x00\xf0?'
p1346
tp1347
bsg140
g89
(g90
(I0
tp1348
g92
tp1349
Rp1350
(I1
(I2
I2
tp1351
g99
I00
S'\x00\x00\x00\x00\x00\x00\x00\x00\x00\x00\x00\x00\x00\x00\x00\x00\x00\x00\x00\x00\x00\x00\xf0?\x00\x00\x00\x00\x00\x00\xf0?'
p1352
tp1353
bsg147
I01
sg50
g7
sbsg51
(dp1354
I4775613840
g1327
ssg50
g7
sbsg243
I2
sg244
g0
(g104
g2
Ntp1355
Rp1356
(dp1357
g48
I2
sg49
Nsg88
g89
(g90
(I0
tp1358
g92
tp1359
Rp1360
(I1
(I3
I3
tp1361
g99
I00
S'\x00\x00\x00\x00\x00\x00\xf0?\x00\x00\x00\x00\x00\x00\x00\x00\x00\x00\x00\x00\x00\x00\x00\x00\x00\x00\x00\x00\x00\x00\x00\x00\x00\x00\x00\x00\x00\x00\xf0?\x00\x00\x00\x00\x00\x00\x00\x00\x00\x00\x00\x00\x00\x00\x00\x00\x00\x00\x00\x00\x00\x00\x00\x00\x00\x00\x00\x00\x00\x00\xf0?'
p1362
tp1363
bsg50
g7
sg51
(dp1364
I4775613840
g1327
ssbsg51
(dp1365
I4775613904
g1324
ssg50
g7
sbsg243
I2
sg244
g246
sg51
(dp1366
I4775613968
g0
(g116
g2
Ntp1367
Rp1368
(dp1369
g48
I2
sg120
g0
(g121
g2
Ntp1370
Rp1371
(dp1372
g48
I1
sg125
g89
(g90
(I0
tp1373
g92
tp1374
Rp1375
(I1
(I2
tp1376
g99
I00
S'H\xaf\xbc\x9a\xf2\xd7z>H\xaf\xbc\x9a\xf2\xd7z>'
p1377
tp1378
bsg51
(dp1379
I4775613968
g1368
ssg133
g89
(g90
(I0
tp1380
g92
tp1381
Rp1382
(I1
(I2
I2
tp1383
g99
I00
S'\x00\x00\x00\x00\x00\x00\x00\x00\x00\x00\x00\x00\x00\x00\x00\x00\x00\x00\x00\x00\x00\x00\xf0?\x00\x00\x00\x00\x00\x00\xf0?'
p1384
tp1385
bsg140
g89
(g90
(I0
tp1386
g92
tp1387
Rp1388
(I1
(I2
I2
tp1389
g99
I00
S'\x00\x00\x00\x00\x00\x00\x00\x00\x00\x00\x00\x00\x00\x00\x00\x00\x00\x00\x00\x00\x00\x00\xf0?\x00\x00\x00\x00\x00\x00\xf0?'
p1390
tp1391
bsg147
I01
sg50
g7
sbsg83
g1324
sg140
Nsg51
(dp1392
sg50
g7
sbssg50
g7
sbsI4775729040
g0
(g166
g2
Ntp1393
Rp1394
(dp1395
g48
I2
sg170
I2
sg171
g0
(g166
g2
Ntp1396
Rp1397
(dp1398
g48
I1
sg170
I2
sg171
g0
(g84
g2
Ntp1399
Rp1400
(dp1401
g48
I1
sg88
Nsg49
Nsg115
g0
(g121
g2
Ntp1402
Rp1403
(dp1404
g48
I1
sg125
g89
(g90
(I0
tp1405
g92
tp1406
Rp1407
(I1
(I2
tp1408
g99
I00
S'H\xaf\xbc\x9a\xf2\xd7z>H\xaf\xbc\x9a\xf2\xd7z>'
p1409
tp1410
bsg51
(dp1411
I4775728912
g1400
ssg133
g89
(g90
(I0
tp1412
g92
tp1413
Rp1414
(I1
(I2
I2
tp1415
g99
I00
S'\x00\x00\x00\x00\x00\x00\x00\x00\x00\x00\x00\x00\x00\x00\x00\x00\x00\x00\x00\x00\x00\x00\xf0?\x00\x00\x00\x00\x00\x00\xf0?'
p1416
tp1417
bsg140
g89
(g90
(I0
tp1418
g92
tp1419
Rp1420
(I1
(I2
I2
tp1421
g99
I00
S'\x00\x00\x00\x00\x00\x00\x00\x00\x00\x00\x00\x00\x00\x00\x00\x00\x00\x00\x00\x00\x00\x00\xf0?\x00\x00\x00\x00\x00\x00\xf0?'
p1422
tp1423
bsg147
I01
sg50
g7
sbsg51
(dp1424
I4775728976
g1397
ssg50
g7
sbsg243
I2
sg244
g0
(g104
g2
Ntp1425
Rp1426
(dp1427
g48
I2
sg49
Nsg88
g89
(g90
(I0
tp1428
g92
tp1429
Rp1430
(I1
(I3
I3
tp1431
g99
I00
S'\x00\x00\x00\x00\x00\x00\xf0?\x00\x00\x00\x00\x00\x00\x00\x00\x00\x00\x00\x00\x00\x00\x00\x00\x00\x00\x00\x00\x00\x00\x00\x00\x00\x00\x00\x00\x00\x00\xf0?\x00\x00\x00\x00\x00\x00\x00\x00\x00\x00\x00\x00\x00\x00\x00\x00\x00\x00\x00\x00\x00\x00\x00\x00\x00\x00\x00\x00\x00\x00\xf0?'
p1432
tp1433
bsg50
g7
sg51
(dp1434
I4775728976
g1397
ssbsg51
(dp1435
I4775729040
g1394
ssg50
g7
sbsg243
I2
sg244
g246
sg51
(dp1436
I4775729104
g0
(g116
g2
Ntp1437
Rp1438
(dp1439
g48
I2
sg120
g0
(g121
g2
Ntp1440
Rp1441
(dp1442
g48
I1
sg125
g89
(g90
(I0
tp1443
g92
tp1444
Rp1445
(I1
(I2
tp1446
g99
I00
S'H\xaf\xbc\x9a\xf2\xd7z>H\xaf\xbc\x9a\xf2\xd7z>'
p1447
tp1448
bsg51
(dp1449
I4775729104
g1438
ssg133
g89
(g90
(I0
tp1450
g92
tp1451
Rp1452
(I1
(I2
I2
tp1453
g99
I00
S'\x00\x00\x00\x00\x00\x00\x00\x00\x00\x00\x00\x00\x00\x00\x00\x00\x00\x00\x00\x00\x00\x00\xf0?\x00\x00\x00\x00\x00\x00\xf0?'
p1454
tp1455
bsg140
g89
(g90
(I0
tp1456
g92
tp1457
Rp1458
(I1
(I2
I2
tp1459
g99
I00
S'\x00\x00\x00\x00\x00\x00\x00\x00\x00\x00\x00\x00\x00\x00\x00\x00\x00\x00\x00\x00\x00\x00\xf0?\x00\x00\x00\x00\x00\x00\xf0?'
p1460
tp1461
bsg147
I01
sg50
g7
sbsg83
g1394
sg140
Nsg51
(dp1462
sg50
g7
sbssg50
g7
sbsI4775729488
g0
(g166
g2
Ntp1463
Rp1464
(dp1465
g48
I2
sg170
I2
sg171
g0
(g166
g2
Ntp1466
Rp1467
(dp1468
g48
I1
sg170
I2
sg171
g0
(g84
g2
Ntp1469
Rp1470
(dp1471
g48
I1
sg88
Nsg49
Nsg115
g0
(g121
g2
Ntp1472
Rp1473
(dp1474
g48
I1
sg125
g89
(g90
(I0
tp1475
g92
tp1476
Rp1477
(I1
(I2
tp1478
g99
I00
S'H\xaf\xbc\x9a\xf2\xd7z>H\xaf\xbc\x9a\xf2\xd7z>'
p1479
tp1480
bsg51
(dp1481
I4775729360
g1470
ssg133
g89
(g90
(I0
tp1482
g92
tp1483
Rp1484
(I1
(I2
I2
tp1485
g99
I00
S'\x00\x00\x00\x00\x00\x00\x00\x00\x00\x00\x00\x00\x00\x00\x00\x00\x00\x00\x00\x00\x00\x00\xf0?\x00\x00\x00\x00\x00\x00\xf0?'
p1486
tp1487
bsg140
g89
(g90
(I0
tp1488
g92
tp1489
Rp1490
(I1
(I2
I2
tp1491
g99
I00
S'\x00\x00\x00\x00\x00\x00\x00\x00\x00\x00\x00\x00\x00\x00\x00\x00\x00\x00\x00\x00\x00\x00\xf0?\x00\x00\x00\x00\x00\x00\xf0?'
p1492
tp1493
bsg147
I01
sg50
g7
sbsg51
(dp1494
I4775729424
g1467
ssg50
g7
sbsg243
I2
sg244
g0
(g104
g2
Ntp1495
Rp1496
(dp1497
g48
I2
sg49
Nsg88
g89
(g90
(I0
tp1498
g92
tp1499
Rp1500
(I1
(I3
I3
tp1501
g99
I00
S'\x00\x00\x00\x00\x00\x00\xf0?\x00\x00\x00\x00\x00\x00\x00\x00\x00\x00\x00\x00\x00\x00\x00\x00\x00\x00\x00\x00\x00\x00\x00\x00\x00\x00\x00\x00\x00\x00\xf0?\x00\x00\x00\x00\x00\x00\x00\x00\x00\x00\x00\x00\x00\x00\x00\x00\x00\x00\x00\x00\x00\x00\x00\x00\x00\x00\x00\x00\x00\x00\xf0?'
p1502
tp1503
bsg50
g7
sg51
(dp1504
I4775729424
g1467
ssbsg51
(dp1505
I4775729488
g1464
ssg50
g7
sbsg243
I2
sg244
g246
sg51
(dp1506
I4775729552
g0
(g116
g2
Ntp1507
Rp1508
(dp1509
g48
I2
sg120
g0
(g121
g2
Ntp1510
Rp1511
(dp1512
g48
I1
sg125
g89
(g90
(I0
tp1513
g92
tp1514
Rp1515
(I1
(I2
tp1516
g99
I00
S'H\xaf\xbc\x9a\xf2\xd7z>H\xaf\xbc\x9a\xf2\xd7z>'
p1517
tp1518
bsg51
(dp1519
I4775729552
g1508
ssg133
g89
(g90
(I0
tp1520
g92
tp1521
Rp1522
(I1
(I2
I2
tp1523
g99
I00
S'\x00\x00\x00\x00\x00\x00\x00\x00\x00\x00\x00\x00\x00\x00\x00\x00\x00\x00\x00\x00\x00\x00\xf0?\x00\x00\x00\x00\x00\x00\xf0?'
p1524
tp1525
bsg140
g89
(g90
(I0
tp1526
g92
tp1527
Rp1528
(I1
(I2
I2
tp1529
g99
I00
S'\x00\x00\x00\x00\x00\x00\x00\x00\x00\x00\x00\x00\x00\x00\x00\x00\x00\x00\x00\x00\x00\x00\xf0?\x00\x00\x00\x00\x00\x00\xf0?'
p1530
tp1531
bsg147
I01
sg50
g7
sbsg83
g1464
sg140
Nsg51
(dp1532
sg50
g7
sbssg50
g7
sbsI4775727248
g0
(g166
g2
Ntp1533
Rp1534
(dp1535
g48
I2
sg170
I2
sg171
g0
(g166
g2
Ntp1536
Rp1537
(dp1538
g48
I1
sg170
I2
sg171
g0
(g84
g2
Ntp1539
Rp1540
(dp1541
g48
I1
sg88
Nsg49
Nsg115
g0
(g121
g2
Ntp1542
Rp1543
(dp1544
g48
I1
sg125
g89
(g90
(I0
tp1545
g92
tp1546
Rp1547
(I1
(I2
tp1548
g99
I00
S'H\xaf\xbc\x9a\xf2\xd7z>H\xaf\xbc\x9a\xf2\xd7z>'
p1549
tp1550
bsg51
(dp1551
I4775616464
g1540
ssg133
g89
(g90
(I0
tp1552
g92
tp1553
Rp1554
(I1
(I2
I2
tp1555
g99
I00
S'\x00\x00\x00\x00\x00\x00\x00\x00\x00\x00\x00\x00\x00\x00\x00\x00\x00\x00\x00\x00\x00\x00\xf0?\x00\x00\x00\x00\x00\x00\xf0?'
p1556
tp1557
bsg140
g89
(g90
(I0
tp1558
g92
tp1559
Rp1560
(I1
(I2
I2
tp1561
g99
I00
S'\x00\x00\x00\x00\x00\x00\x00\x00\x00\x00\x00\x00\x00\x00\x00\x00\x00\x00\x00\x00\x00\x00\xf0?\x00\x00\x00\x00\x00\x00\xf0?'
p1562
tp1563
bsg147
I01
sg50
g7
sbsg51
(dp1564
I4775727184
g1537
ssg50
g7
sbsg243
I2
sg244
g0
(g104
g2
Ntp1565
Rp1566
(dp1567
g48
I2
sg49
Nsg88
g89
(g90
(I0
tp1568
g92
tp1569
Rp1570
(I1
(I3
I3
tp1571
g99
I00
S'\x00\x00\x00\x00\x00\x00\xf0?\x00\x00\x00\x00\x00\x00\x00\x00\x00\x00\x00\x00\x00\x00\x00\x00\x00\x00\x00\x00\x00\x00\x00\x00\x00\x00\x00\x00\x00\x00\xf0?\x00\x00\x00\x00\x00\x00\x00\x00\x00\x00\x00\x00\x00\x00\x00\x00\x00\x00\x00\x00\x00\x00\x00\x00\x00\x00\x00\x00\x00\x00\xf0?'
p1572
tp1573
bsg50
g7
sg51
(dp1574
I4775727184
g1537
ssbsg51
(dp1575
I4775727248
g1534
ssg50
g7
sbsg243
I2
sg244
g246
sg51
(dp1576
I4775727312
g0
(g116
g2
Ntp1577
Rp1578
(dp1579
g48
I2
sg120
g0
(g121
g2
Ntp1580
Rp1581
(dp1582
g48
I1
sg125
g89
(g90
(I0
tp1583
g92
tp1584
Rp1585
(I1
(I2
tp1586
g99
I00
S'H\xaf\xbc\x9a\xf2\xd7z>H\xaf\xbc\x9a\xf2\xd7z>'
p1587
tp1588
bsg51
(dp1589
I4775727312
g1578
ssg133
g89
(g90
(I0
tp1590
g92
tp1591
Rp1592
(I1
(I2
I2
tp1593
g99
I00
S'\x00\x00\x00\x00\x00\x00\x00\x00\x00\x00\x00\x00\x00\x00\x00\x00\x00\x00\x00\x00\x00\x00\xf0?\x00\x00\x00\x00\x00\x00\xf0?'
p1594
tp1595
bsg140
g89
(g90
(I0
tp1596
g92
tp1597
Rp1598
(I1
(I2
I2
tp1599
g99
I00
S'\x00\x00\x00\x00\x00\x00\x00\x00\x00\x00\x00\x00\x00\x00\x00\x00\x00\x00\x00\x00\x00\x00\xf0?\x00\x00\x00\x00\x00\x00\xf0?'
p1600
tp1601
bsg147
I01
sg50
g7
sbsg83
g1534
sg140
Nsg51
(dp1602
sg50
g7
sbssg50
g7
sbsI4775727696
g0
(g166
g2
Ntp1603
Rp1604
(dp1605
g48
I2
sg170
I2
sg171
g0
(g166
g2
Ntp1606
Rp1607
(dp1608
g48
I1
sg170
I2
sg171
g0
(g84
g2
Ntp1609
Rp1610
(dp1611
g48
I1
sg88
Nsg49
Nsg115
g0
(g121
g2
Ntp1612
Rp1613
(dp1614
g48
I1
sg125
g89
(g90
(I0
tp1615
g92
tp1616
Rp1617
(I1
(I2
tp1618
g99
I00
S'H\xaf\xbc\x9a\xf2\xd7z>H\xaf\xbc\x9a\xf2\xd7z>'
p1619
tp1620
bsg51
(dp1621
I4775727568
g1610
ssg133
g89
(g90
(I0
tp1622
g92
tp1623
Rp1624
(I1
(I2
I2
tp1625
g99
I00
S'\x00\x00\x00\x00\x00\x00\x00\x00\x00\x00\x00\x00\x00\x00\x00\x00\x00\x00\x00\x00\x00\x00\xf0?\x00\x00\x00\x00\x00\x00\xf0?'
p1626
tp1627
bsg140
g89
(g90
(I0
tp1628
g92
tp1629
Rp1630
(I1
(I2
I2
tp1631
g99
I00
S'\x00\x00\x00\x00\x00\x00\x00\x00\x00\x00\x00\x00\x00\x00\x00\x00\x00\x00\x00\x00\x00\x00\xf0?\x00\x00\x00\x00\x00\x00\xf0?'
p1632
tp1633
bsg147
I01
sg50
g7
sbsg51
(dp1634
I4775727632
g1607
ssg50
g7
sbsg243
I2
sg244
g0
(g104
g2
Ntp1635
Rp1636
(dp1637
g48
I2
sg49
Nsg88
g89
(g90
(I0
tp1638
g92
tp1639
Rp1640
(I1
(I3
I3
tp1641
g99
I00
S'\x00\x00\x00\x00\x00\x00\xf0?\x00\x00\x00\x00\x00\x00\x00\x00\x00\x00\x00\x00\x00\x00\x00\x00\x00\x00\x00\x00\x00\x00\x00\x00\x00\x00\x00\x00\x00\x00\xf0?\x00\x00\x00\x00\x00\x00\x00\x00\x00\x00\x00\x00\x00\x00\x00\x00\x00\x00\x00\x00\x00\x00\x00\x00\x00\x00\x00\x00\x00\x00\xf0?'
p1642
tp1643
bsg50
g7
sg51
(dp1644
I4775727632
g1607
ssbsg51
(dp1645
I4775727696
g1604
ssg50
g7
sbsg243
I2
sg244
g246
sg51
(dp1646
I4775727760
g0
(g116
g2
Ntp1647
Rp1648
(dp1649
g48
I2
sg120
g0
(g121
g2
Ntp1650
Rp1651
(dp1652
g48
I1
sg125
g89
(g90
(I0
tp1653
g92
tp1654
Rp1655
(I1
(I2
tp1656
g99
I00
S'H\xaf\xbc\x9a\xf2\xd7z>H\xaf\xbc\x9a\xf2\xd7z>'
p1657
tp1658
bsg51
(dp1659
I4775727760
g1648
ssg133
g89
(g90
(I0
tp1660
g92
tp1661
Rp1662
(I1
(I2
I2
tp1663
g99
I00
S'\x00\x00\x00\x00\x00\x00\x00\x00\x00\x00\x00\x00\x00\x00\x00\x00\x00\x00\x00\x00\x00\x00\xf0?\x00\x00\x00\x00\x00\x00\xf0?'
p1664
tp1665
bsg140
g89
(g90
(I0
tp1666
g92
tp1667
Rp1668
(I1
(I2
I2
tp1669
g99
I00
S'\x00\x00\x00\x00\x00\x00\x00\x00\x00\x00\x00\x00\x00\x00\x00\x00\x00\x00\x00\x00\x00\x00\xf0?\x00\x00\x00\x00\x00\x00\xf0?'
p1670
tp1671
bsg147
I01
sg50
g7
sbsg83
g1604
sg140
Nsg51
(dp1672
sg50
g7
sbssg50
g7
sbsI4775825552
g0
(g166
g2
Ntp1673
Rp1674
(dp1675
g48
I2
sg170
I2
sg171
g0
(g166
g2
Ntp1676
Rp1677
(dp1678
g48
I1
sg170
I2
sg171
g0
(g84
g2
Ntp1679
Rp1680
(dp1681
g48
I1
sg88
Nsg49
Nsg115
g0
(g121
g2
Ntp1682
Rp1683
(dp1684
g48
I1
sg125
g89
(g90
(I0
tp1685
g92
tp1686
Rp1687
(I1
(I2
tp1688
g99
I00
S'H\xaf\xbc\x9a\xf2\xd7z>H\xaf\xbc\x9a\xf2\xd7z>'
p1689
tp1690
bsg51
(dp1691
I4775825488
g1680
ssg133
g89
(g90
(I0
tp1692
g92
tp1693
Rp1694
(I1
(I2
I2
tp1695
g99
I00
S'\x00\x00\x00\x00\x00\x00\x00\x00\x00\x00\x00\x00\x00\x00\x00\x00\x00\x00\x00\x00\x00\x00\xf0?\x00\x00\x00\x00\x00\x00\xf0?'
p1696
tp1697
bsg140
g89
(g90
(I0
tp1698
g92
tp1699
Rp1700
(I1
(I2
I2
tp1701
g99
I00
S'\x00\x00\x00\x00\x00\x00\x00\x00\x00\x00\x00\x00\x00\x00\x00\x00\x00\x00\x00\x00\x00\x00\xf0?\x00\x00\x00\x00\x00\x00\xf0?'
p1702
tp1703
bsg147
I01
sg50
g7
sbsg51
(dp1704
I4775825616
g1677
ssg50
g7
sbsg243
I2
sg244
g0
(g104
g2
Ntp1705
Rp1706
(dp1707
g48
I2
sg49
Nsg88
g89
(g90
(I0
tp1708
g92
tp1709
Rp1710
(I1
(I3
I3
tp1711
g99
I00
S'\x00\x00\x00\x00\x00\x00\xf0?\x00\x00\x00\x00\x00\x00\x00\x00\x00\x00\x00\x00\x00\x00\x00\x00\x00\x00\x00\x00\x00\x00\x00\x00\x00\x00\x00\x00\x00\x00\xf0?\x00\x00\x00\x00\x00\x00\x00\x00\x00\x00\x00\x00\x00\x00\x00\x00\x00\x00\x00\x00\x00\x00\x00\x00\x00\x00\x00\x00\x00\x00\xf0?'
p1712
tp1713
bsg50
g7
sg51
(dp1714
I4775825616
g1677
ssbsg51
(dp1715
I4775825552
g1674
ssg50
g7
sbsg243
I2
sg244
g246
sg51
(dp1716
I4775825744
g0
(g116
g2
Ntp1717
Rp1718
(dp1719
g48
I2
sg120
g0
(g121
g2
Ntp1720
Rp1721
(dp1722
g48
I1
sg125
g89
(g90
(I0
tp1723
g92
tp1724
Rp1725
(I1
(I2
tp1726
g99
I00
S'H\xaf\xbc\x9a\xf2\xd7z>H\xaf\xbc\x9a\xf2\xd7z>'
p1727
tp1728
bsg51
(dp1729
I4775825744
g1718
ssg133
g89
(g90
(I0
tp1730
g92
tp1731
Rp1732
(I1
(I2
I2
tp1733
g99
I00
S'\x00\x00\x00\x00\x00\x00\x00\x00\x00\x00\x00\x00\x00\x00\x00\x00\x00\x00\x00\x00\x00\x00\xf0?\x00\x00\x00\x00\x00\x00\xf0?'
p1734
tp1735
bsg140
g89
(g90
(I0
tp1736
g92
tp1737
Rp1738
(I1
(I2
I2
tp1739
g99
I00
S'\x00\x00\x00\x00\x00\x00\x00\x00\x00\x00\x00\x00\x00\x00\x00\x00\x00\x00\x00\x00\x00\x00\xf0?\x00\x00\x00\x00\x00\x00\xf0?'
p1740
tp1741
bsg147
I01
sg50
g7
sbsg83
g1674
sg140
Nsg51
(dp1742
sg50
g7
sbssg50
g7
sbsI4775613072
g0
(g166
g2
Ntp1743
Rp1744
(dp1745
g48
I2
sg170
I2
sg171
g0
(g166
g2
Ntp1746
Rp1747
(dp1748
g48
I1
sg170
I2
sg171
g0
(g84
g2
Ntp1749
Rp1750
(dp1751
g48
I1
sg88
Nsg49
Nsg115
g0
(g121
g2
Ntp1752
Rp1753
(dp1754
g48
I1
sg125
g89
(g90
(I0
tp1755
g92
tp1756
Rp1757
(I1
(I2
tp1758
g99
I00
S'H\xaf\xbc\x9a\xf2\xd7z>H\xaf\xbc\x9a\xf2\xd7z>'
p1759
tp1760
bsg51
(dp1761
I4775612944
g1750
ssg133
g89
(g90
(I0
tp1762
g92
tp1763
Rp1764
(I1
(I2
I2
tp1765
g99
I00
S'\x00\x00\x00\x00\x00\x00\x00\x00\x00\x00\x00\x00\x00\x00\x00\x00\x00\x00\x00\x00\x00\x00\xf0?\x00\x00\x00\x00\x00\x00\xf0?'
p1766
tp1767
bsg140
g89
(g90
(I0
tp1768
g92
tp1769
Rp1770
(I1
(I2
I2
tp1771
g99
I00
S'\x00\x00\x00\x00\x00\x00\x00\x00\x00\x00\x00\x00\x00\x00\x00\x00\x00\x00\x00\x00\x00\x00\xf0?\x00\x00\x00\x00\x00\x00\xf0?'
p1772
tp1773
bsg147
I01
sg50
g7
sbsg51
(dp1774
I4775613008
g1747
ssg50
g7
sbsg243
I2
sg244
g0
(g104
g2
Ntp1775
Rp1776
(dp1777
g48
I2
sg49
Nsg88
g89
(g90
(I0
tp1778
g92
tp1779
Rp1780
(I1
(I3
I3
tp1781
g99
I00
S'\x00\x00\x00\x00\x00\x00\xf0?\x00\x00\x00\x00\x00\x00\x00\x00\x00\x00\x00\x00\x00\x00\x00\x00\x00\x00\x00\x00\x00\x00\x00\x00\x00\x00\x00\x00\x00\x00\xf0?\x00\x00\x00\x00\x00\x00\x00\x00\x00\x00\x00\x00\x00\x00\x00\x00\x00\x00\x00\x00\x00\x00\x00\x00\x00\x00\x00\x00\x00\x00\xf0?'
p1782
tp1783
bsg50
g7
sg51
(dp1784
I4775613008
g1747
ssbsg51
(dp1785
I4775613072
g1744
ssg50
g7
sbsg243
I2
sg244
g246
sg51
(dp1786
I4775613136
g0
(g116
g2
Ntp1787
Rp1788
(dp1789
g48
I2
sg120
g0
(g121
g2
Ntp1790
Rp1791
(dp1792
g48
I1
sg125
g89
(g90
(I0
tp1793
g92
tp1794
Rp1795
(I1
(I2
tp1796
g99
I00
S'H\xaf\xbc\x9a\xf2\xd7z>H\xaf\xbc\x9a\xf2\xd7z>'
p1797
tp1798
bsg51
(dp1799
I4775613136
g1788
ssg133
g89
(g90
(I0
tp1800
g92
tp1801
Rp1802
(I1
(I2
I2
tp1803
g99
I00
S'\x00\x00\x00\x00\x00\x00\x00\x00\x00\x00\x00\x00\x00\x00\x00\x00\x00\x00\x00\x00\x00\x00\xf0?\x00\x00\x00\x00\x00\x00\xf0?'
p1804
tp1805
bsg140
g89
(g90
(I0
tp1806
g92
tp1807
Rp1808
(I1
(I2
I2
tp1809
g99
I00
S'\x00\x00\x00\x00\x00\x00\x00\x00\x00\x00\x00\x00\x00\x00\x00\x00\x00\x00\x00\x00\x00\x00\xf0?\x00\x00\x00\x00\x00\x00\xf0?'
p1810
tp1811
bsg147
I01
sg50
g7
sbsg83
g1744
sg140
Nsg51
(dp1812
sg50
g7
sbssg50
g7
sbssg50
g7
sbsg51
(dp1813
I4775222992
g177
ssg50
g7
sbssbssg50
g7
sbsI4775222992
g177
ssVinput_dims
p1814
I2
sVchild
p1815
g0
(g403
g2
Ntp1816
Rp1817
(dp1818
g48
I0
sg88
g89
(g90
(I0
tp1819
g92
tp1820
Rp1821
(I1
(I3
I3
tp1822
g99
I00
S'\x00\x00\x00\x00\x00\x00\xf0?\x00\x00\x00\x00\x00\x00\x00\x00\x00\x00\x00\x00\x00\x00\x00\x00\x00\x00\x00\x00\x00\x00\x00\x00\x00\x00\x00\x00\x00\x00\xf0?\x00\x00\x00\x00\x00\x00\x00\x00\x00\x00\x00\x00\x00\x00\x00\x00\x00\x00\x00\x00\x00\x00\x00\x00\x00\x00\x00\x00\x00\x00\xf0?'
p1823
tp1824
bsg55
g0
(g44
g2
Ntp1825
Rp1826
(dp1827
g48
I1
sg49
Nsg50
g7
sg51
(dp1828
I4775295888
g1817
ssbsg56
g0
(g44
g2
Ntp1829
Rp1830
(dp1831
g48
I1
sg49
Nsg50
g7
sg51
(dp1832
I4775295888
g1817
ssbsg49
g0
(g104
g2
Ntp1833
Rp1834
(dp1835
g48
I0
sg49
Nsg88
g89
(g90
(I0
tp1836
g92
tp1837
Rp1838
(I1
(I3
I3
tp1839
g99
I00
S'\x00\x00\x00\x00\x00\x00\xf0?\x00\x00\x00\x00\x00\x00\x00\x00\x00\x00\x00\x00\x00\x00\x00\x00\x00\x00\x00\x00\x00\x00\x00\x00\x00\x00\x00\x00\x00\x00\xf0?\x00\x00\x00\x00\x00\x00\x00\x00\x00\x00\x00\x00\x00\x00\x00\x00\x00\x00\x00\x00\x00\x00\x00\x00\x00\x00\x00\x00\x00\x00\xf0?'
p1840
tp1841
bsg50
g7
sg51
(dp1842
sbsg50
g7
sg51
(dp1843
I4775222864
g181
ssbsbsg243
I2
sg244
g241
sg51
(dp1844
I4775223056
g298
sI4775223120
g174
ssg50
g7
sbsg56
g246
sg300
g0
(g104
g2
Ntp1845
Rp1846
(dp1847
g48
I0
sg49
Nsg88
g89
(g90
(I0
tp1848
g92
tp1849
Rp1850
(I1
(I3
I3
tp1851
g99
I00
S'\x00\x00\x00\x00\x00\x00o@\x00\x00\x00\x00\x00\x00\x00\x00\x00\x00\x00\x00\x00\x00D@\x00\x00\x00\x00\x00\x00\x00\x00Y\xc8B\x16\xb2\x90%@\x00\x00\x00\x00\x00\x00D@\x00\x00\x00\x00\x00\x00\x00\x00\x00\x00\x00\x00\x00\x00\x00\x00\x00\x00\x00\x00\x00\x00\xf0?'
p1852
tp1853
bsg50
g7
sg51
(dp1854
sbsg51
(dp1855
I4842060880
g0
(g166
g2
Ntp1856
Rp1857
(dp1858
g48
I2
sg170
I2
sg171
g174
sg243
I2
sg244
g0
(g158
g2
Ntp1859
Rp1860
(dp1861
g48
I1
sg88
Nsg162
g149
sg49
Nsg163
(F0.05555555555555555
I0
tp1862
sg50
g7
sg51
(dp1863
I4842060880
g1857
ssbsg51
(dp1864
sg50
g7
sbsI4775295248
g0
(g166
g2
Ntp1865
Rp1866
(dp1867
g48
I2
sg170
I2
sg171
g174
sg243
I2
sg244
g0
(g158
g2
Ntp1868
Rp1869
(dp1870
g48
I1
sg88
Nsg162
g149
sg49
Nsg163
(F-0.05555555555555555
I0
tp1871
sg50
g7
sg51
(dp1872
I4775295248
g1866
ssbsg51
(dp1873
sg50
g7
sbsI4751888720
g0
(g166
g2
Ntp1874
Rp1875
(dp1876
g48
I2
sg170
I2
sg171
g174
sg243
I2
sg244
g0
(g158
g2
Ntp1877
Rp1878
(dp1879
g48
I1
sg88
Nsg162
g149
sg49
Nsg163
(F0.05555555555555555
I0
tp1880
sg50
g7
sg51
(dp1881
I4751888720
g1875
ssbsg51
(dp1882
sg50
g7
sbsI4751888912
g0
(g166
g2
Ntp1883
Rp1884
(dp1885
g48
I2
sg170
I2
sg171
g174
sg243
I2
sg244
g0
(g158
g2
Ntp1886
Rp1887
(dp1888
g48
I0
sg88
g89
(g90
(I0
tp1889
g92
tp1890
Rp1891
(I1
(I3
I3
tp1892
g99
I00
S'\x00\x00\x00\x00\x00\x00\xf0?\x00\x00\x00\x00\x00\x00\x00\x00r\x1c\xc7q\x1c\xc7\x11\xc0\x00\x00\x00\x00\x00\x00\x00\x00\x00\x00\x00\x00\x00\x00\xf0?\x00\x00\x00\x00\x00\x00\x00\x00\x00\x00\x00\x00\x00\x00\x00\x00\x00\x00\x00\x00\x00\x00\x00\x00\x00\x00\x00\x00\x00\x00\xf0?'
p1893
tp1894
bsg162
g149
sg49
Nsg163
(F-0.05555555555555555
I0
tp1895
sg50
g7
sg51
(dp1896
I4751888912
g1884
ssbsg51
(dp1897
sg50
g7
sbsI4842061392
g168
sI4775295504
g0
(g166
g2
Ntp1898
Rp1899
(dp1900
g48
I2
sg170
I2
sg171
g174
sg243
I2
sg244
g0
(g158
g2
Ntp1901
Rp1902
(dp1903
g48
I1
sg88
Nsg162
g149
sg49
Nsg163
(F0.05555555555555555
I0
tp1904
sg50
g7
sg51
(dp1905
I4775295504
g1899
ssbsg51
(dp1906
sg50
g7
sbssg50
g7
sbsg243
I2
sg244
g160
sg51
(dp1907
sg50
g7
sbssbsI4751784912
g380
sI4775424976
g316
sI4751784016
g371
sI4775295184
g1869
sI4751890704
g1887
sI4775424400
g398
sI4775293392
g389
sI4775295440
g1902
sI4842061328
g1860
sI4751890768
g1878
sI4775296080
g576
sI4775293648
g331
ssbsg140
g89
(g90
(I0
tp1908
g92
tp1909
Rp1910
(I1
(I2
I2
tp1911
g99
I00
S'\x00\x00\x00\x00\x00\x00\x00\x00\x00\x00\x00\x00\x00\x00\x00\x00\x00\x00\x00\x00\x00\x00t@\x00\x00\x00\x00\x00\x00t@'
p1912
tp1913
bsg51
(dp1914
I4775221072
g86
ssg50
g7
sbsg51
(dp1915
I4775222416
g265
ssg50
g7
sbsS'_capstyle'
p1916
Vbutt
p1917
sS'_url'
p1918
NsS'_axes'
p1919
Nsg33
Nsbsg41
Nsg67
NsV_restore_to_pylab
p1920
I01
sS'images'
p1921
(lp1922
sS'_suptitle'
p1923
NsS'dpi_scale_trans'
p1924
g149
sS'number'
p1925
I1
sS'callbacks'
p1926
g0
(cmatplotlib.cbook
CallbackRegistry
p1927
g2
Ntp1928
Rp1929
sg72
NsS'_tight'
p1930
I00
sg65
I01
sS'bbox'
p1931
g118
sg57
Nsg79
I0
sS'patches'
p1932
(lp1933
sS'legends'
p1934
(lp1935
sS'suppressComposite'
p1936
Nsg80
I00
sg82
NsS'_axstack'
p1937
g0
(cmatplotlib.figure
AxesStack
p1938
g2
Ntp1939
Rp1940
(dp1941
S'_default'
p1942
NsS'_elements'
p1943
(lp1944
(((g0
(cmatplotlib.gridspec
SubplotSpec
p1945
g2
Ntp1946
Rp1947
(dp1948
S'num1'
p1949
I0
sS'num2'
p1950
I0
sS'_gridspec'
p1951
g0
(cmatplotlib.gridspec
GridSpec
p1952
g2
Ntp1953
Rp1954
(dp1955
S'_nrows'
p1956
I1
sS'right'
p1957
NsS'_col_width_ratios'
p1958
NsS'bottom'
p1959
NsS'top'
p1960
NsS'wspace'
p1961
NsS'_ncols'
p1962
I1
sS'hspace'
p1963
NsS'_row_height_ratios'
p1964
NsS'left'
p1965
Nsbsbtp1966
(ttp1967
(I1
g0
(cmatplotlib.axes._subplots
_PicklableSubplotClassConstructor
p1968
g2
Ntp1969
Rp1970
(cmatplotlib.axes._axes
Axes
p1971
tp1972
Rp1973
(dp1974
S'transLimits'
p1975
g220
sS'_get_patches_for_fill'
p1976
g0
(cmatplotlib.axes._base
_process_plot_var_args
p1977
g2
Ntp1978
Rp1979
(dp1980
Vaxes
p1981
g1973
sVcommand
p1982
Vfill
p1983
sbsS'_xcid'
p1984
I1
sg6
V
p1985
sS'legend_'
p1986
g0
(cmatplotlib.legend
Legend
p1987
g2
Ntp1988
Rp1989
(dp1990
g6
g7
sS'markerscale'
p1991
F1.0
sg9
g4
sS'legendHandles'
p1992
(lp1993
g0
(g35
g2
Ntp1994
Rp1995
(dp1996
g6
V$\u005cmathrm{Q_{z}=3}$
p1997
sg39
F24.0
sg40
I01
sg9
g4
sg8
I01
sg10
Nsg41
Nsg17
g18
sg42
Nsg20
I01
sg43
g0
(g44
g2
Ntp1998
Rp1999
(dp2000
g48
I1
sg49
Nsg50
g7
sg51
(dp2001
sbsg53
(F0.0
F0.39215686274509803
F0.0
F1.0
tp2002
sg23
Nsg55
F-0.0
sg56
F-0.0
sg57
Nsg24
Nsg11
Nsg27
I00
sg28
I00
sg29
(dp2003
sg59
g0
(g44
g2
Ntp2004
Rp2005
(dp2006
g48
I1
sg49
Nsg50
g7
sg51
(dp2007
sbsg31
I00
sg64
V/
p2008
sg65
I01
sg66
F1.0
sg67
Nsg68
F8.399999999999999
sg32
Nsg69
I01
sg70
(cnumpy.core.multiarray
scalar
p2009
(g99
S'\x19\x19\x19\x19\x19\x19\xc9?'
p2010
tp2011
Rp2012
g2009
(g99
S'\xba\xb9\xb9\xb9\xb9\xb9\xe9?'
p2013
tp2014
Rp2015
g2009
(g99
S'\x19\x19\x19\x19\x19\x19\xc9?'
p2016
tp2017
Rp2018
g2009
(g99
S'\x00\x00\x00\x00\x00\x00\xf0?'
p2019
tp2020
Rp2021
tp2022
sg72
Nsg73
g2022
sg74
g75
sg76
g77
sg78
g2002
sg79
I0
sg80
I01
sg81
F0.0
sg82
Nsg83
g0
(cmatplotlib.transforms
CompositeAffine2D
p2023
g2
Ntp2024
Rp2025
(dp2026
g48
I1
sg170
I2
sg49
Nsg50
g7
sg88
Nsg51
(dp2027
sg243
I2
sg244
g0
(g104
g2
Ntp2028
Rp2029
(dp2030
g48
I2
sg49
Nsg88
g89
(g90
(I0
tp2031
g92
tp2032
Rp2033
(I1
(I3
I3
tp2034
g99
I00
S'\x00\x00\x00\x00\x00\x00\xf0?\x00\x00\x00\x00\x00\x00\x00\x00\x00\x00\x00\x00\x00\x00\x00\x00\x00\x00\x00\x00\x00\x00\x00\x00\x00\x00\x00\x00\x00\x00\xf0?\x00\x00\x00\x00\x00\x00\x00\x00\x00\x00\x00\x00\x00\x00\x00\x00\x00\x00\x00\x00\x00\x00\x00\x00\x00\x00\x00\x00\x00\x00\xf0?'
p2035
tp2036
bsg50
g7
sg51
(dp2037
I4775826704
g2025
ssbsg171
g0
(g104
g2
Ntp2038
Rp2039
(dp2040
g48
I0
sg49
Nsg88
g89
(g90
(I0
tp2041
g92
tp2042
Rp2043
(I1
(I3
I3
tp2044
g99
I00
S'\x00\x00\x00\x00\x00\x00\xf0?\x00\x00\x00\x00\x00\x00\x00\x00\x00\x00\x00\x00\x00\x00\x00\x00\x00\x00\x00\x00\x00\x00\x00\x00\x00\x00\x00\x00\x00\x00\xf0?\x00\x00\x00\x00\x00\x00\x00\x00\x00\x00\x00\x00\x00\x00\x00\x00\x00\x00\x00\x00\x00\x00\x00\x00\x00\x00\x00\x00\x00\x00\xf0?'
p2045
tp2046
bsg50
g7
sg51
(dp2047
I4775826704
g2025
ssbsbsg1916
g1917
sg1918
Nsg1919
g1973
sg33
Nsbag0
(g35
g2
Ntp2048
Rp2049
(dp2050
g6
V$\u005cmathrm{Q_{z}=2}$
p2051
sg39
F24.0
sg40
I01
sg9
g4
sg8
I01
sg10
Nsg41
Nsg17
g18
sg42
Nsg20
I01
sg43
g0
(g44
g2
Ntp2052
Rp2053
(dp2054
g48
I1
sg49
Nsg50
g7
sg51
(dp2055
sbsg53
(F0.8627450980392157
F0.0784313725490196
F0.23529411764705882
F0.8
tp2056
sg23
Nsg55
F-0.0
sg56
F-0.0
sg57
Nsg24
Nsg11
Nsg27
I00
sg28
I00
sg29
(dp2057
sg59
g0
(g44
g2
Ntp2058
Rp2059
(dp2060
g48
I1
sg49
Nsg50
g7
sg51
(dp2061
sbsg31
I00
sg64
Nsg65
I01
sg66
F2.0
sg67
Nsg68
F8.399999999999999
sg32
Nsg69
I01
sg70
(g2009
(g99
S'\x00\x00\x00\x00\x00\x00\xf0?'
p2062
tp2063
Rp2064
g2009
(g99
S'\x00\x00\x00\x00\x00\x00\xf0?'
p2065
tp2066
Rp2067
g2009
(g99
S'\x1e\x1e\x1e\x1e\x1e\x1e\xee?'
p2068
tp2069
Rp2070
F0.8
tp2071
sg72
Nsg73
(g2064
g2067
g2070
F0.8
tp2072
sg74
g75
sg76
g77
sg78
(F0.8627450980392157
F0.0784313725490196
F0.23529411764705882
F0.8
tp2073
sg79
I0
sg80
I01
sg81
F0.0
sg82
F0.8
sg83
g0
(g2023
g2
Ntp2074
Rp2075
(dp2076
g48
I1
sg170
I2
sg49
Nsg50
g7
sg88
Nsg51
(dp2077
sg243
I2
sg244
g0
(g104
g2
Ntp2078
Rp2079
(dp2080
g48
I2
sg49
Nsg88
g89
(g90
(I0
tp2081
g92
tp2082
Rp2083
(I1
(I3
I3
tp2084
g99
I00
S'\x00\x00\x00\x00\x00\x00\xf0?\x00\x00\x00\x00\x00\x00\x00\x00\x00\x00\x00\x00\x00\x00\x00\x00\x00\x00\x00\x00\x00\x00\x00\x00\x00\x00\x00\x00\x00\x00\xf0?\x00\x00\x00\x00\x00\x00\x00\x00\x00\x00\x00\x00\x00\x00\x00\x00\x00\x00\x00\x00\x00\x00\x00\x00\x00\x00\x00\x00\x00\x00\xf0?'
p2085
tp2086
bsg50
g7
sg51
(dp2087
I4775827472
g2075
ssbsg171
g0
(g104
g2
Ntp2088
Rp2089
(dp2090
g48
I0
sg49
Nsg88
g89
(g90
(I0
tp2091
g92
tp2092
Rp2093
(I1
(I3
I3
tp2094
g99
I00
S'\x00\x00\x00\x00\x00\x00\xf0?\x00\x00\x00\x00\x00\x00\x00\x00\x00\x00\x00\x00\x00\x00\x00\x00\x00\x00\x00\x00\x00\x00\x00\x00\x00\x00\x00\x00\x00\x00\xf0?\x00\x00\x00\x00\x00\x00\x00\x00\x00\x00\x00\x00\x00\x00\x00\x00\x00\x00\x00\x00\x00\x00\x00\x00\x00\x00\x00\x00\x00\x00\xf0?'
p2095
tp2096
bsg50
g7
sg51
(dp2097
I4775827472
g2075
ssbsbsg1916
g1917
sg1918
Nsg1919
g1973
sg33
NsbasS'_legend_title_box'
p2098
g0
(cmatplotlib.offsetbox
TextArea
p2099
g2
Ntp2100
Rp2101
(dp2102
g6
g7
sg8
I00
sg9
g4
sS'_children'
p2103
(lp2104
g0
(cmatplotlib.text
Text
p2105
g2
Ntp2106
Rp2107
(dp2108
g6
g7
sg8
I01
sg9
g4
sg10
NsS'_fontproperties'
p2109
g0
(cmatplotlib.font_manager
FontProperties
p2110
g2
Ntp2111
Rp2112
(dp2113
S'_family'
p2114
(lp2115
Vserif
p2116
asS'_file'
p2117
NsS'_variant'
p2118
Vnormal
p2119
sS'_slant'
p2120
g2119
sS'_size'
p2121
F10.0
sS'_weight'
p2122
I400
sS'_stretch'
p2123
g2119
sbsg41
Nsg17
g18
sS'_multialignment'
p2124
Nsg20
I01
sg23
Nsg55
I0
sg56
I0
sg24
Nsg11
Nsg27
I00
sg28
I00
sg29
(dp2125
sS'_renderer'
p2126
Nsg31
I00
sg1919
Nsg67
Nsg1918
NsS'_rotation_mode'
p2127
Nsg32
Nsg72
Nsg65
I01
sS'_verticalalignment'
p2128
Vbaseline
p2129
sS'_text'
p2130
VNone
p2131
sS'_bbox_patch'
p2132
Nsg57
Nsg79
I0
sS'_rotation'
p2133
Nsg80
I01
sg82
NsS'_linespacing'
p2134
F1.2
sg83
g0
(g2023
g2
Ntp2135
Rp2136
(dp2137
g48
I1
sg170
I2
sg49
Nsg50
g7
sg88
Nsg51
(dp2138
sg243
I2
sg244
g0
(g104
g2
Ntp2139
Rp2140
(dp2141
g48
I0
sg49
Nsg88
g89
(g90
(I0
tp2142
g92
tp2143
Rp2144
(I1
(I3
I3
tp2145
g99
I00
S'\x00\x00\x00\x00\x00\x00\xf0?\x00\x00\x00\x00\x00\x00\x00\x00\x00\x00\x00\x00\x00\x00\x00\x00\x00\x00\x00\x00\x00\x00\x00\x00\x00\x00\x00\x00\x00\x00\xf0?\x00\x00\x00\x00\x00\x00\x00\x00\x00\x00\x00\x00\x00\x00\x00\x00\x00\x00\x00\x00\x00\x00\x00\x00\x00\x00\x00\x00\x00\x00\xf0?'
p2146
tp2147
bsg50
g7
sg51
(dp2148
I4775828240
g2136
ssbsg171
g0
(g104
g2
Ntp2149
Rp2150
(dp2151
g48
I2
sg49
Nsg88
g89
(g90
(I0
tp2152
g92
tp2153
Rp2154
(I1
(I3
I3
tp2155
g99
I00
S'\x00\x00\x00\x00\x00\x00\xf0?\x00\x00\x00\x00\x00\x00\x00\x00\x00\x00\x00\x00\x00\x00\x00\x00\x00\x00\x00\x00\x00\x00\x00\x00\x00\x00\x00\x00\x00\x00\xf0?\x00\x00\x00\x00\x00\x00\x00\x00\x00\x00\x00\x00\x00\x00\x00\x00\x00\x00\x00\x00\x00\x00\x00\x00\x00\x00\x00\x00\x00\x00\xf0?'
p2156
tp2157
bsg50
g7
sg51
(dp2158
I4775828240
g2136
ssbsbsS'_usetex'
p2159
NsS'_wrap'
p2160
I00
sg42
NsS'_color'
p2161
Vk
p2162
sS'_horizontalalignment'
p2163
Vleft
p2164
sg33
Nsbasg2130
g2107
sg10
Nsg41
NsS'_minimumdescent'
p2165
I01
sg17
g18
sg20
I00
sg23
Nsg24
Nsg11
Nsg27
I00
sg1919
Nsg29
(dp2166
sg31
I00
sg28
I00
sg67
Nsg32
Nsg72
Nsg65
I01
sS'_multilinebaseline'
p2167
Nsg57
Nsg79
I0
sS'offset_transform'
p2168
g2150
sg80
I00
sg82
NsS'_baseline_transform'
p2169
g2140
sg83
NsS'_offset'
p2170
(I0
I0
tp2171
sg42
Nsg1918
Nsg33
Nsbsg8
I01
sS'_fontsize'
p2172
F12.0
sg10
NsS'_draggable'
p2173
Nsg11
NsS'columnspacing'
p2174
F2.0
sg12
(lp2175
g0
(g2105
g2
Ntp2176
Rp2177
(dp2178
g6
g7
sg8
I01
sg9
g4
sg10
Nsg2109
g0
(g2110
g2
Ntp2179
Rp2180
(dp2181
g2114
(lp2182
g2116
asg2117
Nsg2118
g2119
sg2120
g2119
sg2121
Vlarge
p2183
sg2122
I400
sg2123
g2119
sbsg41
Nsg17
g18
sg2124
Nsg20
I01
sg23
Nsg55
I0
sg56
I0
sg24
Nsg11
Nsg27
I00
sg28
I00
sg29
(dp2184
sg2126
Nsg31
I00
sg1919
Nsg67
Nsg1918
Nsg2127
Nsg32
Nsg72
Nsg65
I01
sg2128
g2129
sg2130
V$\u005cmathrm{Q_{z}=3}$
p2185
sg2132
Nsg57
Nsg79
I0
sg2133
Nsg80
I01
sg82
Nsg2134
F1.2
sg83
g0
(g2023
g2
Ntp2186
Rp2187
(dp2188
g48
I1
sg170
I2
sg49
Nsg50
g7
sg88
Nsg51
(dp2189
sg243
I2
sg244
g0
(g104
g2
Ntp2190
Rp2191
(dp2192
g48
I0
sg49
Nsg88
g89
(g90
(I0
tp2193
g92
tp2194
Rp2195
(I1
(I3
I3
tp2196
g99
I00
S'\x00\x00\x00\x00\x00\x00\xf0?\x00\x00\x00\x00\x00\x00\x00\x00\x00\x00\x00\x00\x00\x00\x00\x00\x00\x00\x00\x00\x00\x00\x00\x00\x00\x00\x00\x00\x00\x00\xf0?\x00\x00\x00\x00\x00\x00\x00\x00\x00\x00\x00\x00\x00\x00\x00\x00\x00\x00\x00\x00\x00\x00\x00\x00\x00\x00\x00\x00\x00\x00\xf0?'
p2197
tp2198
bsg50
g7
sg51
(dp2199
I4775826448
g2187
ssbsg171
g0
(g104
g2
Ntp2200
Rp2201
(dp2202
g48
I2
sg49
Nsg88
g89
(g90
(I0
tp2203
g92
tp2204
Rp2205
(I1
(I3
I3
tp2206
g99
I00
S'\x00\x00\x00\x00\x00\x00\xf0?\x00\x00\x00\x00\x00\x00\x00\x00\x00\x00\x00\x00\x00\x00\x00\x00\x00\x00\x00\x00\x00\x00\x00\x00\x00\x00\x00\x00\x00\x00\xf0?\x00\x00\x00\x00\x00\x00\x00\x00\x00\x00\x00\x00\x00\x00\x00\x00\x00\x00\x00\x00\x00\x00\x00\x00\x00\x00\x00\x00\x00\x00\xf0?'
p2207
tp2208
bsg50
g7
sg51
(dp2209
I4775826448
g2187
ssbsbsg2159
Nsg2160
I00
sg42
Nsg2161
g2162
sg2163
Vleft
p2210
sg33
Nsbag0
(g2105
g2
Ntp2211
Rp2212
(dp2213
g6
g7
sg8
I01
sg9
g4
sg10
Nsg2109
g2180
sg41
Nsg17
g18
sg2124
Nsg20
I01
sg23
Nsg55
I0
sg56
I0
sg24
Nsg11
Nsg27
I00
sg28
I00
sg29
(dp2214
sg2126
Nsg31
I00
sg1919
Nsg67
Nsg1918
Nsg2127
Nsg32
Nsg72
Nsg65
I01
sg2128
g2129
sg2130
V$\u005cmathrm{Q_{z}=2}$
p2215
sg2132
Nsg57
Nsg79
I0
sg2133
Nsg80
I01
sg82
Nsg2134
F1.2
sg83
g0
(g2023
g2
Ntp2216
Rp2217
(dp2218
g48
I1
sg170
I2
sg49
Nsg50
g7
sg88
Nsg51
(dp2219
sg243
I2
sg244
g0
(g104
g2
Ntp2220
Rp2221
(dp2222
g48
I0
sg49
Nsg88
g89
(g90
(I0
tp2223
g92
tp2224
Rp2225
(I1
(I3
I3
tp2226
g99
I00
S'\x00\x00\x00\x00\x00\x00\xf0?\x00\x00\x00\x00\x00\x00\x00\x00\x00\x00\x00\x00\x00\x00\x00\x00\x00\x00\x00\x00\x00\x00\x00\x00\x00\x00\x00\x00\x00\x00\xf0?\x00\x00\x00\x00\x00\x00\x00\x00\x00\x00\x00\x00\x00\x00\x00\x00\x00\x00\x00\x00\x00\x00\x00\x00\x00\x00\x00\x00\x00\x00\xf0?'
p2227
tp2228
bsg50
g7
sg51
(dp2229
I4775827216
g2217
ssbsg171
g0
(g104
g2
Ntp2230
Rp2231
(dp2232
g48
I2
sg49
Nsg88
g89
(g90
(I0
tp2233
g92
tp2234
Rp2235
(I1
(I3
I3
tp2236
g99
I00
S'\x00\x00\x00\x00\x00\x00\xf0?\x00\x00\x00\x00\x00\x00\x00\x00\x00\x00\x00\x00\x00\x00\x00\x00\x00\x00\x00\x00\x00\x00\x00\x00\x00\x00\x00\x00\x00\x00\xf0?\x00\x00\x00\x00\x00\x00\x00\x00\x00\x00\x00\x00\x00\x00\x00\x00\x00\x00\x00\x00\x00\x00\x00\x00\x00\x00\x00\x00\x00\x00\xf0?'
p2237
tp2238
bsg50
g7
sg51
(dp2239
I4775827216
g2217
ssbsbsg2159
Nsg2160
I00
sg42
Nsg2161
g2162
sg2163
g2210
sg33
NsbasS'handletextpad'
p2240
F0.8
sS'borderaxespad'
p2241
F0.5
sg17
g18
sS'_legend_handle_box'
p2242
g0
(cmatplotlib.offsetbox
HPacker
p2243
g2
Ntp2244
Rp2245
(dp2246
g6
g7
sg8
I01
sg9
g4
sg2103
(lp2247
g0
(cmatplotlib.offsetbox
VPacker
p2248
g2
Ntp2249
Rp2250
(dp2251
g6
g7
sg8
I01
sg9
g4
sg2103
(lp2252
g0
(g2243
g2
Ntp2253
Rp2254
(dp2255
g6
g7
sg8
I01
sg9
g4
sg2103
(lp2256
g0
(cmatplotlib.offsetbox
DrawingArea
p2257
g2
Ntp2258
Rp2259
(dp2260
g6
g7
sg8
I01
sg9
g4
sg2103
(lp2261
g1995
asg10
NsS'height'
p2262
F8.399999999999999
sg41
Nsg17
g18
sg20
I00
sg23
Nsg24
NsS'dpi_transform'
p2263
g2039
sg11
NsS'_clip_children'
p2264
I00
sg27
I00
sS'width'
p2265
F24.0
sg28
I00
sg29
(dp2266
sg31
I00
sg1919
Nsg67
NsS'ydescent'
p2267
F0.0
sg32
Nsg72
Nsg65
I01
sg57
Nsg79
I0
sg2168
g2029
sg80
I00
sg82
Nsg83
Nsg2170
g2171
sS'xdescent'
p2268
F0.0
sg42
Nsg1918
Nsg33
Nsbag0
(g2099
g2
Ntp2269
Rp2270
(dp2271
g6
g7
sg8
I01
sg9
g4
sg2103
(lp2272
g2177
asg2130
g2177
sg10
Nsg41
Nsg2165
I01
sg17
g18
sg20
I00
sg23
Nsg24
Nsg11
Nsg27
I00
sg1919
Nsg29
(dp2273
sg31
I00
sg28
I00
sg67
Nsg32
Nsg72
Nsg65
I01
sg2167
I01
sg57
Nsg79
I0
sg2168
g2201
sg80
I00
sg82
Nsg2169
g2191
sg83
Nsg2170
g2171
sg42
Nsg1918
Nsg33
Nsbasg10
Nsg2262
Nsg41
Nsg17
g18
sg20
I00
sg23
Nsg24
NsS'sep'
p2274
F9.600000000000001
sg11
Nsg27
I00
sg2265
NsS'pad'
p2275
I0
sg28
I00
sg29
(dp2276
sg31
I00
sg1919
Nsg67
Nsg32
Nsg72
Nsg65
I01
sg57
Nsg79
I0
sg80
I00
sg82
NsS'align'
p2277
Vbaseline
p2278
sg83
Nsg2170
g2171
sg42
Nsg1918
NsS'mode'
p2279
Vfixed
p2280
sg33
Nsbag0
(g2243
g2
Ntp2281
Rp2282
(dp2283
g6
g7
sg8
I01
sg9
g4
sg2103
(lp2284
g0
(g2257
g2
Ntp2285
Rp2286
(dp2287
g6
g7
sg8
I01
sg9
g4
sg2103
(lp2288
g2049
asg10
Nsg2262
F8.399999999999999
sg41
Nsg17
g18
sg20
I00
sg23
Nsg24
Nsg2263
g2089
sg11
Nsg2264
I00
sg27
I00
sg2265
F24.0
sg28
I00
sg29
(dp2289
sg31
I00
sg1919
Nsg67
Nsg2267
F0.0
sg32
Nsg72
Nsg65
I01
sg57
Nsg79
I0
sg2168
g2079
sg80
I00
sg82
Nsg83
Nsg2170
g2171
sg2268
F0.0
sg42
Nsg1918
Nsg33
Nsbag0
(g2099
g2
Ntp2290
Rp2291
(dp2292
g6
g7
sg8
I01
sg9
g4
sg2103
(lp2293
g2212
asg2130
g2212
sg10
Nsg41
Nsg2165
I00
sg17
g18
sg20
I00
sg23
Nsg24
Nsg11
Nsg27
I00
sg1919
Nsg29
(dp2294
sg31
I00
sg28
I00
sg67
Nsg32
Nsg72
Nsg65
I01
sg2167
I01
sg57
Nsg79
I0
sg2168
g2231
sg80
I00
sg82
Nsg2169
g2221
sg83
Nsg2170
g2171
sg42
Nsg1918
Nsg33
Nsbasg10
Nsg2262
Nsg41
Nsg17
g18
sg20
I00
sg23
Nsg24
Nsg2274
F9.600000000000001
sg11
Nsg27
I00
sg2265
Nsg2275
I0
sg28
I00
sg29
(dp2295
sg31
I00
sg1919
Nsg67
Nsg32
Nsg72
Nsg65
I01
sg57
Nsg79
I0
sg80
I00
sg82
Nsg2277
g2278
sg83
Nsg2170
g2171
sg42
Nsg1918
Nsg2279
g2280
sg33
Nsbasg10
Nsg2262
Nsg41
Nsg17
g18
sg20
I00
sg23
Nsg24
Nsg2274
F6.0
sg11
Nsg27
I00
sg2265
Nsg2275
I0
sg28
I00
sg29
(dp2296
sg31
I00
sg1919
Nsg67
Nsg32
Nsg72
Nsg65
I01
sg57
Nsg79
I0
sg80
I00
sg82
Nsg2277
g2278
sg83
Nsg2170
g2171
sg42
Nsg1918
Nsg2279
Vfixed
p2297
sg33
Nsbasg10
Nsg2262
Nsg41
Nsg17
g18
sg20
I00
sg23
Nsg24
Nsg2274
F24.0
sg11
Nsg27
I00
sg2265
Nsg2275
I0
sg28
I00
sg29
(dp2298
sg31
I00
sg1919
Nsg67
Nsg32
Nsg72
Nsg65
I01
sg57
Nsg79
I0
sg80
I00
sg82
Nsg2277
g2278
sg83
Nsg2170
g2171
sg42
Nsg1918
Nsg2279
Vfixed
p2299
sg33
Nsbsg20
I01
sg27
I00
sg23
Nsg57
Nsg24
NsS'_mode'
p2300
NsS'numpoints'
p2301
I1
sS'_bbox_to_anchor'
p2302
NsS'prop'
p2303
g2180
sS'_scatteryoffsets'
p2304
g89
(g90
(I0
tp2305
g92
tp2306
Rp2307
(I1
(I3
tp2308
g99
I00
S'\x00\x00\x00\x00\x00\x00\xd8?\x00\x00\x00\x00\x00\x00\xe0?\x00\x00\x00\x00\x00\x00\xd4?'
p2309
tp2310
bsS'_custom_handler_map'
p2311
Nsg28
I00
sg29
(dp2312
sS'_drawFrame'
p2313
I01
sg31
I00
sS'handlelength'
p2314
F2.0
sg1919
g1973
sg41
Nsg67
NsS'parent'
p2315
g1973
sg32
NsS'scatterpoints'
p2316
I3
sS'labelspacing'
p2317
F0.5
sg72
Nsg65
I01
sS'_legend_box'
p2318
g0
(g2248
g2
Ntp2319
Rp2320
(dp2321
g6
g7
sg8
I01
sg9
g4
sg2103
(lp2322
g2101
ag2245
asg10
Nsg2262
Nsg41
Nsg17
g18
sg20
I00
sg23
Nsg24
Nsg2274
F6.0
sg11
Nsg27
I00
sg2265
Nsg2275
F4.800000000000001
sg28
I00
sg29
(dp2323
sg31
I00
sg1919
Nsg67
Nsg32
Nsg72
Nsg65
I01
sg57
Nsg79
I0
sg80
I00
sg82
Nsg2277
Vcenter
p2324
sg83
Nsg2170
g0
(cmatplotlib.cbook
_InstanceMethodPickler
p2325
g2
Ntp2326
Rp2327
(dp2328
S'parent_obj'
p2329
g1989
sS'instancemethod_name'
p2330
S'_findoffset_loc'
p2331
sbsg42
Nsg1918
Nsg2279
g2297
sg33
NsbsS'shadow'
p2332
I00
sS'legendPatch'
p2333
g0
(cmatplotlib.patches
FancyBboxPatch
p2334
g2
Ntp2335
Rp2336
(dp2337
g6
g7
sg39
F1.0
sg40
I01
sg9
g4
sS'_mutation_aspect'
p2338
Nsg10
Nsg41
Nsg17
g18
sg42
Nsg20
I01
sg43
g0
(g44
g2
Ntp2339
Rp2340
(dp2341
g48
I1
sg49
Nsg50
g7
sg51
(dp2342
sbsg53
(F0.0
F0.0
F0.0
F1.0
tp2343
sg23
Nsg55
F0.0
sg56
F0.0
sg57
Nsg24
Nsg11
Nsg27
I00
sg28
I00
sg29
(dp2344
sg31
I00
sg64
Nsg65
I01
sg66
F1.0
sg67
Nsg68
F1.0
sg32
Nsg69
I01
sg70
Vw
p2345
sg72
I01
sg73
(F1.0
F1.0
F1.0
F1.0
tp2346
sg74
g75
sS'_bbox_transmuter'
p2347
g0
(cmatplotlib.cbook
_NestedClassGetter
p2348
g2
Ntp2349
Rp2350
(cmatplotlib.patches
BoxStyle
p2351
S'Square'
p2352
tp2353
Rp2354
(dp2355
g2275
I0
sbsg76
g77
sg78
g2162
sg79
I0
sg80
I01
sg82
Nsg83
g0
(g44
g2
Ntp2356
Rp2357
(dp2358
g48
I1
sg49
Nsg50
g7
sg51
(dp2359
sbsg8
I01
sS'_mutation_scale'
p2360
F12.0
sg1916
g1917
sg1918
Nsg1919
g1973
sg33
Nsbsg79
I0
sg82
NsS'isaxes'
p2361
I01
sS'handleheight'
p2362
F0.7
sg80
I00
sS'_last_fontsize_points'
p2363
F12.0
sS'borderpad'
p2364
F0.4
sS'_ncol'
p2365
I1
sg83
g2357
sS'_loc_real'
p2366
I2
sg42
Nsg1918
Nsg33
Nsbsg12
(lp2367
sS'_frameon'
p2368
I01
sS'_autoscaleYon'
p2369
I00
sg14
I01
sg15
(lp2370
sg20
I01
sS'tables'
p2371
(lp2372
sg1932
(lp2373
g0
(cmatplotlib.patches
Polygon
p2374
g2
Ntp2375
Rp2376
(dp2377
g6
V$\u005cmathrm{Q_{z}=3}$
p2378
sg8
I01
sg40
I01
sg9
g4
sS'_closed'
p2379
I01
sg10
Nsg41
Nsg17
g18
sg42
Nsg20
I01
sg43
g0
(g44
g2
Ntp2380
Rp2381
(dp2382
g48
I1
sg49
Nsg50
g7
sg51
(dp2383
sbsg53
g2002
sg23
Nsg57
Nsg24
Nsg11
Nsg27
I00
sg28
I00
sg29
(dp2384
sg31
I00
sg64
g2008
sg65
I01
sg66
F1.0
sg67
g1088
sg32
Nsg69
I01
sg70
g89
(g90
(I0
tp2385
g92
tp2386
Rp2387
(I1
(I4
tp2388
g99
I00
S'\x19\x19\x19\x19\x19\x19\xc9?\xba\xb9\xb9\xb9\xb9\xb9\xe9?\x19\x19\x19\x19\x19\x19\xc9?\x00\x00\x00\x00\x00\x00\xf0?'
p2389
tp2390
bsg72
I00
sg73
g2022
sg74
g75
sg76
g77
sg78
Vdarkgreen
p2391
sg79
I0
sg80
I01
sg82
Nsg83
g177
sg1916
g1917
sg1918
Nsg1919
g1973
sg33
Nsg358
g0
(g341
g2
Ntp2392
Rp2393
(dp2394
g345
I00
sg346
g89
(g90
(I0
tp2395
g92
tp2396
Rp2397
(I1
(I81
tp2398
g96
(S'u1'
p2399
I0
I1
tp2400
Rp2401
(I3
S'|'
p2402
NNNI-1
I-1
I0
tp2403
bI00
S'\x01\x02\x02\x02\x02\x02\x02\x02\x02\x02\x02\x02\x02\x02\x02\x02\x02\x02\x02\x02\x02\x02\x02\x02\x02\x02\x02\x02\x02\x02\x02\x02\x02\x02\x02\x02\x02\x02\x02\x02\x02\x02\x02\x02\x02\x02\x02\x02\x02\x02\x02\x02\x02\x02\x02\x02\x02\x02\x02\x02\x02\x02\x02\x02\x02\x02\x02\x02\x02\x02\x02\x02\x02\x02\x02\x02\x02\x02\x02\x02O'
p2404
tp2405
bsg347
g89
(g90
(I0
tp2406
g92
tp2407
Rp2408
(I1
(I81
I2
tp2409
g99
I00
S'\x00\x00\x00\x00\x00\x80D@\x00\x00\x00\x00\x00\x00\x00\x00\x00\x00\x00\x00\x00\x80D@\x00\x00\x00\x00\x00\x00\x00\x00\xcd\xcc\xcc\xcc\xcc\x8cD@\x00\x00\x00\x00\x00\x00\x00\x00\xcd\xcc\xcc\xcc\xcc\x8cD@\x00\x00\x00\x00\x00\x00\x00\x00\x9a\x99\x99\x99\x99\x99D@\x00\x00\x00\x00\x00\x00\x00\x00\x9a\x99\x99\x99\x99\x99D@\x00\x00\x00\x00\x00\x00\x00@fffff\xa6D@\x00\x00\x00\x00\x00\x00\x00@fffff\xa6D@\x00\x00\x00\x00\x00\x00\x14@33333\xb3D@\x00\x00\x00\x00\x00\x00\x14@33333\xb3D@\x00\x00\x00\x00\x00\x00\x10@\x00\x00\x00\x00\x00\xc0D@\x00\x00\x00\x00\x00\x00\x10@\x00\x00\x00\x00\x00\xc0D@\x00\x00\x00\x00\x00\x00 @\xcd\xcc\xcc\xcc\xcc\xccD@\x00\x00\x00\x00\x00\x00 @\xcd\xcc\xcc\xcc\xcc\xccD@\x00\x00\x00\x00\x00\x00"@\x9a\x99\x99\x99\x99\xd9D@\x00\x00\x00\x00\x00\x00"@\x9a\x99\x99\x99\x99\xd9D@\x00\x00\x00\x00\x00\x00*@fffff\xe6D@\x00\x00\x00\x00\x00\x00*@fffff\xe6D@\x00\x00\x00\x00\x00\x001@33333\xf3D@\x00\x00\x00\x00\x00\x001@33333\xf3D@\x00\x00\x00\x00\x00\x005@\x00\x00\x00\x00\x00\x00E@\x00\x00\x00\x00\x00\x005@\x00\x00\x00\x00\x00\x00E@\x00\x00\x00\x00\x00\x001@\xcd\xcc\xcc\xcc\xcc\x0cE@\x00\x00\x00\x00\x00\x001@\xcd\xcc\xcc\xcc\xcc\x0cE@\x00\x00\x00\x00\x00\x00(@\x9a\x99\x99\x99\x99\x19E@\x00\x00\x00\x00\x00\x00(@\x9a\x99\x99\x99\x99\x19E@\x00\x00\x00\x00\x00\x00$@fffff&E@\x00\x00\x00\x00\x00\x00$@fffff&E@\x00\x00\x00\x00\x00\x00\x1c@333333E@\x00\x00\x00\x00\x00\x00\x1c@333333E@\x00\x00\x00\x00\x00\x00\x18@\x00\x00\x00\x00\x00@E@\x00\x00\x00\x00\x00\x00\x18@\x00\x00\x00\x00\x00@E@\x00\x00\x00\x00\x00\x00\x00\x00\xcd\xcc\xcc\xcc\xccLE@\x00\x00\x00\x00\x00\x00\x00\x00\xcd\xcc\xcc\xcc\xccLE@\x00\x00\x00\x00\x00\x00\x08@\x9a\x99\x99\x99\x99YE@\x00\x00\x00\x00\x00\x00\x08@\x9a\x99\x99\x99\x99YE@\x00\x00\x00\x00\x00\x00\x00\x00ffffffE@\x00\x00\x00\x00\x00\x00\x00\x00ffffffE@\x00\x00\x00\x00\x00\x00\x00\x0033333sE@\x00\x00\x00\x00\x00\x00\x00\x0033333sE@\x00\x00\x00\x00\x00\x00\x00\x00\x00\x00\x00\x00\x00\x80E@\x00\x00\x00\x00\x00\x00\x00\x00\x00\x00\x00\x00\x00\x80E@\x00\x00\x00\x00\x00\x00\x00\x0033333sE@\x00\x00\x00\x00\x00\x00\x00\x0033333sE@\x00\x00\x00\x00\x00\x00\x00\x00ffffffE@\x00\x00\x00\x00\x00\x00\x00\x00ffffffE@\x00\x00\x00\x00\x00\x00\x00\x00\x9a\x99\x99\x99\x99YE@\x00\x00\x00\x00\x00\x00\x00\x00\x9a\x99\x99\x99\x99YE@\x00\x00\x00\x00\x00\x00\x00\x00\xcd\xcc\xcc\xcc\xccLE@\x00\x00\x00\x00\x00\x00\x00\x00\xcd\xcc\xcc\xcc\xccLE@\x00\x00\x00\x00\x00\x00\x00\x00\x00\x00\x00\x00\x00@E@\x00\x00\x00\x00\x00\x00\x00\x00\x00\x00\x00\x00\x00@E@\x00\x00\x00\x00\x00\x00\x00\x00333333E@\x00\x00\x00\x00\x00\x00\x00\x00333333E@\x00\x00\x00\x00\x00\x00\x00\x00fffff&E@\x00\x00\x00\x00\x00\x00\x00\x00fffff&E@\x00\x00\x00\x00\x00\x00\x00\x00\x9a\x99\x99\x99\x99\x19E@\x00\x00\x00\x00\x00\x00\x00\x00\x9a\x99\x99\x99\x99\x19E@\x00\x00\x00\x00\x00\x00\x00\x00\xcd\xcc\xcc\xcc\xcc\x0cE@\x00\x00\x00\x00\x00\x00\x00\x00\xcd\xcc\xcc\xcc\xcc\x0cE@\x00\x00\x00\x00\x00\x00\x00\x00\x00\x00\x00\x00\x00\x00E@\x00\x00\x00\x00\x00\x00\x00\x00\x00\x00\x00\x00\x00\x00E@\x00\x00\x00\x00\x00\x00\x00\x0033333\xf3D@\x00\x00\x00\x00\x00\x00\x00\x0033333\xf3D@\x00\x00\x00\x00\x00\x00\x00\x00fffff\xe6D@\x00\x00\x00\x00\x00\x00\x00\x00fffff\xe6D@\x00\x00\x00\x00\x00\x00\x00\x00\x9a\x99\x99\x99\x99\xd9D@\x00\x00\x00\x00\x00\x00\x00\x00\x9a\x99\x99\x99\x99\xd9D@\x00\x00\x00\x00\x00\x00\x00\x00\xcd\xcc\xcc\xcc\xcc\xccD@\x00\x00\x00\x00\x00\x00\x00\x00\xcd\xcc\xcc\xcc\xcc\xccD@\x00\x00\x00\x00\x00\x00\x00\x00\x00\x00\x00\x00\x00\xc0D@\x00\x00\x00\x00\x00\x00\x00\x00\x00\x00\x00\x00\x00\xc0D@\x00\x00\x00\x00\x00\x00\x00\x0033333\xb3D@\x00\x00\x00\x00\x00\x00\x00\x0033333\xb3D@\x00\x00\x00\x00\x00\x00\x00\x00fffff\xa6D@\x00\x00\x00\x00\x00\x00\x00\x00fffff\xa6D@\x00\x00\x00\x00\x00\x00\x00\x00\x9a\x99\x99\x99\x99\x99D@\x00\x00\x00\x00\x00\x00\x00\x00\x9a\x99\x99\x99\x99\x99D@\x00\x00\x00\x00\x00\x00\x00\x00\xcd\xcc\xcc\xcc\xcc\x8cD@\x00\x00\x00\x00\x00\x00\x00\x00\xcd\xcc\xcc\xcc\xcc\x8cD@\x00\x00\x00\x00\x00\x00\x00\x00\x00\x00\x00\x00\x00\x80D@\x00\x00\x00\x00\x00\x00\x00\x00'
p2410
tp2411
bsg354
I00
sg355
F0.1111111111111111
sg356
I1
sg357
I00
sbsbag0
(g2374
g2
Ntp2412
Rp2413
(dp2414
g6
V$\u005cmathrm{Q_{z}=2}$
p2415
sg8
I01
sg40
I01
sg9
g4
sg2379
I01
sg10
Nsg41
Nsg17
g18
sg42
Nsg20
I01
sg43
g0
(g44
g2
Ntp2416
Rp2417
(dp2418
g48
I1
sg49
Nsg50
g7
sg51
(dp2419
sbsg53
g2073
sg23
Nsg57
Nsg24
Nsg11
Nsg27
I00
sg28
I00
sg29
(dp2420
sg31
I00
sg64
Nsg65
I01
sg66
F2.0
sg67
g1718
sg32
Nsg69
I01
sg70
g89
(g90
(I0
tp2421
g92
tp2422
Rp2423
(I1
(I4
tp2424
g99
I00
S'\x00\x00\x00\x00\x00\x00\xf0?\x00\x00\x00\x00\x00\x00\xf0?\x1e\x1e\x1e\x1e\x1e\x1e\xee?\x00\x00\x00\x00\x00\x00\xf0?'
p2425
tp2426
bsg72
I00
sg73
g2071
sg74
g75
sg76
g77
sg78
Vcrimson
p2427
sg79
I0
sg80
I01
sg82
F0.8
sg83
g177
sg1916
g1917
sg1918
Nsg1919
g1973
sg33
Nsg358
g0
(g341
g2
Ntp2428
Rp2429
(dp2430
g345
I00
sg346
g89
(g90
(I0
tp2431
g92
tp2432
Rp2433
(I1
(I41
tp2434
g2401
I00
S'\x01\x02\x02\x02\x02\x02\x02\x02\x02\x02\x02\x02\x02\x02\x02\x02\x02\x02\x02\x02\x02\x02\x02\x02\x02\x02\x02\x02\x02\x02\x02\x02\x02\x02\x02\x02\x02\x02\x02\x02O'
p2435
tp2436
bsg347
g89
(g90
(I0
tp2437
g92
tp2438
Rp2439
(I1
(I41
I2
tp2440
g99
I00
S'[2\xcd\x1b\x15\x83D@\x00\x00\x00\x00\x00\x00\x00\x00[2\xcd\x1b\x15\x83D@\x00\x00\x00\x00\x00\x00\xf0?`@\x05A\x8f\x91D@\x00\x00\x00\x00\x00\x00\xf0?`@\x05A\x8f\x91D@\x00\x00\x00\x00\x00\x00\x00\x00fN=f\t\xa0D@\x00\x00\x00\x00\x00\x00\x00\x00fN=f\t\xa0D@\x00\x00\x00\x00\x00\x00\xf0?l\\u\x8b\x83\xaeD@\x00\x00\x00\x00\x00\x00\xf0?l\\u\x8b\x83\xaeD@\x00\x00\x00\x00\x00\x00\x00\x00qj\xad\xb0\xfd\xbcD@\x00\x00\x00\x00\x00\x00\x00\x00qj\xad\xb0\xfd\xbcD@\x00\x00\x00\x00\x00\x00\x00\x00vx\xe5\xd5w\xcbD@\x00\x00\x00\x00\x00\x00\x00\x00vx\xe5\xd5w\xcbD@\x00\x00\x00\x00\x00\x00\xf0?|\x86\x1d\xfb\xf1\xd9D@\x00\x00\x00\x00\x00\x00\xf0?|\x86\x1d\xfb\xf1\xd9D@\x00\x00\x00\x00\x00\x00\x00\x00\x82\x94U l\xe8D@\x00\x00\x00\x00\x00\x00\x00\x00\x82\x94U l\xe8D@\x00\x00\x00\x00\x00\x00\x00@\x87\xa2\x8dE\xe6\xf6D@\x00\x00\x00\x00\x00\x00\x00@\x87\xa2\x8dE\xe6\xf6D@\x00\x00\x00\x00\x00\x00\xf0?\x8c\xb0\xc5j`\x05E@\x00\x00\x00\x00\x00\x00\xf0?\x8c\xb0\xc5j`\x05E@\x00\x00\x00\x00\x00\x00\xf0?\x92\xbe\xfd\x8f\xda\x13E@\x00\x00\x00\x00\x00\x00\xf0?\x92\xbe\xfd\x8f\xda\x13E@\x00\x00\x00\x00\x00\x00\x00\x00\x8c\xb0\xc5j`\x05E@\x00\x00\x00\x00\x00\x00\x00\x00\x8c\xb0\xc5j`\x05E@\x00\x00\x00\x00\x00\x00\x00\x00\x87\xa2\x8dE\xe6\xf6D@\x00\x00\x00\x00\x00\x00\x00\x00\x87\xa2\x8dE\xe6\xf6D@\x00\x00\x00\x00\x00\x00\x00\x00\x82\x94U l\xe8D@\x00\x00\x00\x00\x00\x00\x00\x00\x82\x94U l\xe8D@\x00\x00\x00\x00\x00\x00\x00\x00|\x86\x1d\xfb\xf1\xd9D@\x00\x00\x00\x00\x00\x00\x00\x00|\x86\x1d\xfb\xf1\xd9D@\x00\x00\x00\x00\x00\x00\x00\x00vx\xe5\xd5w\xcbD@\x00\x00\x00\x00\x00\x00\x00\x00vx\xe5\xd5w\xcbD@\x00\x00\x00\x00\x00\x00\x00\x00qj\xad\xb0\xfd\xbcD@\x00\x00\x00\x00\x00\x00\x00\x00qj\xad\xb0\xfd\xbcD@\x00\x00\x00\x00\x00\x00\x00\x00l\\u\x8b\x83\xaeD@\x00\x00\x00\x00\x00\x00\x00\x00l\\u\x8b\x83\xaeD@\x00\x00\x00\x00\x00\x00\x00\x00fN=f\t\xa0D@\x00\x00\x00\x00\x00\x00\x00\x00fN=f\t\xa0D@\x00\x00\x00\x00\x00\x00\x00\x00`@\x05A\x8f\x91D@\x00\x00\x00\x00\x00\x00\x00\x00`@\x05A\x8f\x91D@\x00\x00\x00\x00\x00\x00\x00\x00[2\xcd\x1b\x15\x83D@\x00\x00\x00\x00\x00\x00\x00\x00'
p2441
tp2442
bsg354
I00
sg355
F0.1111111111111111
sg356
I1
sg357
I00
sbsbasS'title'
p2443
g0
(g2105
g2
Ntp2444
Rp2445
(dp2446
g6
g7
sg8
I01
sg9
g4
sg10
Nsg2109
g0
(g2110
g2
Ntp2447
Rp2448
(dp2449
g2114
(lp2450
g2116
asg2117
Nsg2118
g2119
sg2120
g2119
sg2121
Vlarge
p2451
sg2122
I400
sg2123
g2119
sbsg41
Nsg17
g18
sg2124
Nsg20
I01
sg23
Nsg55
F1.0
sg56
F0.5
sg24
Nsg11
Nsg27
I00
sg28
I00
sg29
(dp2452
sg2126
Nsg31
I00
sg1919
g1973
sg67
Nsg1918
Nsg2127
Nsg32
Nsg72
Nsg65
I01
sg2128
Vbaseline
p2453
sg2130
V
p2454
sg2132
Nsg57
Nsg79
I0
sg2133
Nsg80
I01
sg82
Nsg2134
F1.2
sg83
g587
sg2159
Nsg2160
I00
sg42
Nsg2161
g2162
sg2163
Vcenter
p2455
sg33
NsbsS'_current_image'
p2456
NsS'mouseover_set'
p2457
c__builtin__
set
p2458
((lp2459
tp2460
Rp2461
sg11
NsS'_cursorProps'
p2462
(I1
(F0.0
F0.0
F0.0
F1.0
tp2463
tp2464
sS'numRows'
p2465
I1
sS'collections'
p2466
(lp2467
sg1919
g1973
sg29
(dp2468
sg31
I00
sS'containers'
p2469
(lp2470
sg28
I00
sg67
NsS'_get_lines'
p2471
g0
(g1977
g2
Ntp2472
Rp2473
(dp2474
g1981
g1973
sg1982
Vplot
p2475
sbsS'_aspect'
p2476
Vauto
p2477
sS'fmt_xdata'
p2478
Nsg1926
g0
(g1927
g2
Ntp2479
Rp2480
sg72
NsS'_anchor'
p2481
VC
p2482
sg65
I01
sg1931
g265
sS'ignore_existing_data_limits'
p2483
I00
sg57
Nsg79
I0
sg80
I00
sS'_left_title'
p2484
g0
(g2105
g2
Ntp2485
Rp2486
(dp2487
g6
g7
sg8
I01
sg9
g4
sg10
Nsg2109
g0
(g2110
g2
Ntp2488
Rp2489
(dp2490
g2114
g2450
sg2117
Nsg2118
g2119
sg2120
g2119
sg2121
g2451
sg2122
I400
sg2123
g2119
sbsg41
Nsg17
g18
sg2124
Nsg20
I01
sg23
Nsg55
F1.0
sg56
F0.0
sg24
Nsg11
Nsg27
I00
sg28
I00
sg29
(dp2491
sg2126
Nsg31
I00
sg1919
g1973
sg67
Nsg1918
Nsg2127
Nsg32
Nsg72
Nsg65
I01
sg2128
g2453
sg2130
V
p2492
sg2132
Nsg57
Nsg79
I0
sg2133
Nsg80
I01
sg82
Nsg2134
F1.2
sg83
g591
sg2159
Nsg2160
I00
sg42
Nsg2161
g2162
sg2163
Vleft
p2493
sg33
NsbsS'_right_title'
p2494
g0
(g2105
g2
Ntp2495
Rp2496
(dp2497
g6
g7
sg8
I01
sg9
g4
sg10
Nsg2109
g0
(g2110
g2
Ntp2498
Rp2499
(dp2500
g2114
g2450
sg2117
Nsg2118
g2119
sg2120
g2119
sg2121
g2451
sg2122
I400
sg2123
g2119
sbsg41
Nsg17
g18
sg2124
Nsg20
I01
sg23
Nsg55
F1.0
sg56
F1.0
sg24
Nsg11
Nsg27
I00
sg28
I00
sg29
(dp2501
sg2126
Nsg31
I00
sg1919
g1973
sg67
Nsg1918
Nsg2127
Nsg32
Nsg72
Nsg65
I01
sg2128
g2453
sg2130
V
p2502
sg2132
Nsg57
Nsg79
I0
sg2133
Nsg80
I01
sg82
Nsg2134
F1.2
sg83
g573
sg2159
Nsg2160
I00
sg42
Nsg2161
g2162
sg2163
Vright
p2503
sg33
NsbsS'transScale'
p2504
g181
sg83
NsS'axison'
p2505
I01
sS'patch'
p2506
g0
(g35
g2
Ntp2507
Rp2508
(dp2509
g6
g7
sg39
F1.0
sg40
I01
sg9
g4
sg8
I01
sg10
Nsg41
Nsg17
g18
sg42
Nsg20
I01
sg43
g0
(g44
g2
Ntp2510
Rp2511
(dp2512
g48
I1
sg49
Nsg50
g7
sg51
(dp2513
sbsg53
(F0.0
F0.0
F0.0
F0.0
tp2514
sg23
Nsg55
F0.0
sg56
F0.0
sg57
Nsg24
Nsg11
Nsg27
I00
sg28
I00
sg29
(dp2515
sg59
g1257
sg31
I00
sg64
Nsg65
I01
sg66
F0.0
sg67
Nsg68
F1.0
sg32
Nsg69
I01
sg70
g2345
sg72
Nsg73
(F1.0
F1.0
F1.0
F1.0
tp2516
sg74
g75
sg76
g77
sg78
VNone
p2517
sg79
I0
sg80
I01
sg81
F0.0
sg82
Nsg83
g246
sg1916
g1917
sg1918
Nsg1919
Nsg33
NsbsS'viewLim'
p2518
g190
sg17
g18
sS'_subplotspec'
p2519
g1947
sS'_adjustable'
p2520
Vbox
p2521
sg9
g4
sS'titleOffsetTrans'
p2522
g576
sS'_yaxis_transform'
p2523
g174
sS'_gridOn'
p2524
I00
sg10
NsS'colNum'
p2525
I0
sg41
Nsg1921
(lp2526
sS'_autoscaleXon'
p2527
I00
sS'_xmargin'
p2528
F0.0
sS'rowNum'
p2529
I0
sS'_position'
p2530
g268
sS'_rasterization_zorder'
p2531
NsS'_cachedRenderer'
p2532
NsS'_navigate'
p2533
I01
sg23
NsS'_originalPosition'
p2534
g0
(g121
g2
Ntp2535
Rp2536
(dp2537
g48
I2
sg125
g89
(g90
(I0
tp2538
g92
tp2539
Rp2540
(I1
(I2
tp2541
g99
I00
S'H\xaf\xbc\x9a\xf2\xd7z>H\xaf\xbc\x9a\xf2\xd7z>'
p2542
tp2543
bsg51
(dp2544
sg133
g89
(g90
(I0
tp2545
g92
tp2546
Rp2547
(I1
(I2
I2
tp2548
g99
I00
S'\x00\x00\x00\x00\x00\x00\xc0?\x00\x00\x00\x00\x00\x00\xc0?\xcd\xcc\xcc\xcc\xcc\xcc\xec?\xcd\xcc\xcc\xcc\xcc\xcc\xec?'
p2549
tp2550
bsg140
g285
sg147
I01
sg50
g7
sbsg24
NsS'_xaxis_transform'
p2551
g298
sg27
I00
sS'figbox'
p2552
g0
(g121
g2
Ntp2553
Rp2554
(dp2555
g48
I0
sg125
g89
(g90
(I0
tp2556
g92
tp2557
Rp2558
(I1
(I2
tp2559
g99
I00
S'H\xaf\xbc\x9a\xf2\xd7z>H\xaf\xbc\x9a\xf2\xd7z>'
p2560
tp2561
bsg51
(dp2562
sg133
g89
(g90
(I0
tp2563
g92
tp2564
Rp2565
(I1
(I2
I2
tp2566
g99
I00
S'-\xfa\xd9\xb0;\xbb\xc6?<p\x1b\x89A\xf2\xc6?\xcd\xcc\xcc\xcc\xcc\xcc\xee?\xcd\xcc\xcc\xcc\xcc\xcc\xee?'
p2567
tp2568
bsg140
g285
sg147
I01
sg50
g7
sbsS'xaxis'
p2569
g0
(cmatplotlib.axis
XAxis
p2570
g2
Ntp2571
Rp2572
(dp2573
g6
g7
sS'major'
p2574
g0
(cmatplotlib.axis
Ticker
p2575
g2
Ntp2576
Rp2577
(dp2578
S'locator'
p2579
g0
(cmatplotlib.ticker
AutoLocator
p2580
g2
Ntp2581
Rp2582
(dp2583
S'_symmetric'
p2584
I00
sS'_nbins'
p2585
I9
sS'_steps'
p2586
(lp2587
I1
aI2
aI5
aI10
asS'_prune'
p2588
NsS'_integer'
p2589
I00
sS'_trim'
p2590
I01
sS'axis'
p2591
g2572
sbsS'formatter'
p2592
g0
(cmatplotlib.ticker
ScalarFormatter
p2593
g2
Ntp2594
Rp2595
(dp2596
S'_powerlimits'
p2597
(lp2598
I-7
aI7
asS'orderOfMagnitude'
p2599
I0
sS'_useMathText'
p2600
I00
sS'format'
p2601
V$%1.1f$
p2602
sS'_useLocale'
p2603
I00
sS'_useOffset'
p2604
I01
sS'locs'
p2605
g89
(g90
(I0
tp2606
g92
tp2607
Rp2608
(I1
(I6
tp2609
g99
I00
S'\x00\x00\x00\x00\x00@D@\x00\x00\x00\x00\x00\x80D@\x00\x00\x00\x00\x00\xc0D@\x00\x00\x00\x00\x00\x00E@\x00\x00\x00\x00\x00@E@\x00\x00\x00\x00\x00\x80E@'
p2610
tp2611
bsS'offset'
p2612
I0
sg2159
I01
sS'_scientific'
p2613
I01
sg2591
g2572
sbsbsS'isDefault_label'
p2614
I00
sS'_scale'
p2615
g0
(cmatplotlib.scale
LinearScale
p2616
g2
Ntp2617
Rp2618
sg9
g4
sg8
I01
sS'_gridOnMinor'
p2619
I00
sg10
Nsg41
NsS'_smart_bounds'
p2620
I00
sg17
g18
sg20
I01
sg23
NsS'offsetText'
p2621
g0
(g2105
g2
Ntp2622
Rp2623
(dp2624
g6
g7
sg8
I01
sg9
g4
sg10
Nsg2109
g0
(g2110
g2
Ntp2625
Rp2626
(dp2627
g2114
(lp2628
g2116
asg2117
Nsg2118
g2119
sg2120
g2119
sg2121
Vmedium
p2629
sg2122
I400
sg2123
g2119
sbsg41
Nsg17
g18
sg2124
Nsg20
I01
sg23
Nsg55
g2009
(g99
S'\xe9P\xfc\xb7B\xbf0@'
p2630
tp2631
Rp2632
sg56
I1
sg24
Nsg11
Nsg27
I00
sg28
I00
sg29
(dp2633
sg2126
Nsg31
I00
sg1919
Nsg67
Nsg1918
Nsg2127
Nsg32
Nsg72
Nsg65
I01
sg2128
Vtop
p2634
sg2130
V
p2635
sg2132
Nsg57
Nsg79
I0
sg2133
Nsg80
I01
sg82
Nsg2134
F1.2
sg83
g559
sg2159
Nsg2160
I00
sg42
Nsg2161
g2162
sg2163
Vright
p2636
sg33
Nsbsg24
Nsg11
NsS'label'
p2637
g0
(g2105
g2
Ntp2638
Rp2639
(dp2640
g6
g7
sg8
I01
sg9
g4
sg10
Nsg2109
g0
(g2110
g2
Ntp2641
Rp2642
(dp2643
g2114
(lp2644
g2116
asg2117
Nsg2118
g2119
sg2120
g2119
sg2121
F18.0
sg2122
I400
sg2123
g2119
sbsg41
Nsg17
g18
sg2124
Nsg20
I01
sg23
Nsg55
g2009
(g99
S'\xb5\xda\x86S\xbe\x0c-@'
p2645
tp2646
Rp2647
sg56
F0.5
sg24
Nsg11
Nsg27
I00
sg28
I00
sg29
(dp2648
sg2126
Nsg31
I00
sg1919
Nsg67
Nsg1918
Nsg2127
Nsg32
Nsg72
Nsg65
I01
sg2128
Vtop
p2649
sg2130
V$\u005cmathrm{log_{10}(L[H \u005calpha])}$
p2650
sg2132
Nsg57
Nsg79
I0
sg2133
Nsg80
I01
sg82
Nsg2134
F1.2
sg83
g405
sg2159
Nsg2160
I00
sg42
Nsg2161
g2162
sg2163
Vcenter
p2651
sg33
Nsbsg27
I00
sS'isDefault_majfmt'
p2652
I01
sg28
I00
sg29
(dp2653
sS'units'
p2654
Nsg31
I00
sS'minor'
p2655
g0
(g2575
g2
Ntp2656
Rp2657
(dp2658
g2579
g0
(cmatplotlib.ticker
NullLocator
p2659
g2
Ntp2660
Rp2661
(dp2662
g2591
g2572
sbsg2592
g0
(cmatplotlib.ticker
NullFormatter
p2663
g2
Ntp2664
Rp2665
(dp2666
g2605
(lp2667
sg2591
g2572
sbsbsg1919
g1973
sS'_major_tick_kw'
p2668
(dp2669
S'labelsize'
p2670
I15
sVgridOn
p2671
I00
ssS'isDefault_minloc'
p2672
I01
sg67
g533
sg32
NsS'_gridOnMajor'
p2673
I00
sS'_lastNumMinorTicks'
p2674
I0
sS'labelpad'
p2675
F5.0
sS'majorTicks'
p2676
(lp2677
g0
(cmatplotlib.axis
XTick
p2678
g2
Ntp2679
Rp2680
(dp2681
g6
g7
sg39
F0.5
sg9
g4
sS'tick1On'
p2682
I01
sg8
I01
sg10
Nsg79
I0
sg41
NsS'_pad'
p2683
F4.0
sS'_labelcolor'
p2684
g2162
sS'gridOn'
p2685
I00
sg2121
F15.0
sg17
g18
sS'_tickdir'
p2686
Vin
p2687
sg2637
g0
(g2105
g2
Ntp2688
Rp2689
(dp2690
g6
g7
sg8
I01
sg9
g4
sg10
Nsg2109
g0
(g2110
g2
Ntp2691
Rp2692
(dp2693
g2114
(lp2694
g2116
asg2117
Nsg2118
g2119
sg2120
g2119
sg2121
F15.0
sg2122
I400
sg2123
g2119
sbsg41
Nsg17
g18
sg2124
Nsg20
I01
sg23
Nsg55
I0
sg56
I0
sg24
Nsg11
Nsg27
I00
sg28
I00
sg29
(dp2695
sg2126
Nsg31
I00
sg1919
Nsg67
Nsg1918
Nsg2127
Nsg32
Nsg72
Nsg65
I01
sg2128
Vtop
p2696
sg2130
V
p2697
sg2132
Nsg57
Nsg79
I0
sg2133
Nsg80
I01
sg82
Nsg2134
F1.2
sg83
g313
sg2159
Nsg2160
I00
sg42
Nsg2161
g2162
sg2163
Vcenter
p2698
sg33
Nsbsg20
I01
sg23
NsS'label2On'
p2699
I00
sg24
Nsg11
NsS'tick2On'
p2700
I01
sg27
I00
sg28
I00
sg29
(dp2701
sS'_tickmarkers'
p2702
(I2
I3
tp2703
sg31
I00
sS'_zorder'
p2704
F2.01
sg1919
g1973
sS'label1On'
p2705
I01
sg67
g1788
sg1918
NsS'label1'
p2706
g2689
sS'label2'
p2707
g0
(g2105
g2
Ntp2708
Rp2709
(dp2710
g6
g7
sg8
I01
sg9
g4
sg10
Nsg2109
g0
(g2110
g2
Ntp2711
Rp2712
(dp2713
g2114
(lp2714
g2116
asg2117
Nsg2118
g2119
sg2120
g2119
sg2121
F15.0
sg2122
I400
sg2123
g2119
sbsg41
Nsg17
g18
sg2124
Nsg20
I01
sg23
Nsg55
I1
sg56
I0
sg24
Nsg11
Nsg27
I00
sg28
I00
sg29
(dp2715
sg2126
Nsg31
I00
sg1919
Nsg67
Nsg1918
Nsg2127
Nsg32
Nsg72
Nsg65
I01
sg2128
Vbottom
p2716
sg2130
V
p2717
sg2132
Nsg57
Nsg79
I0
sg2133
Nsg80
I01
sg82
Nsg2134
F1.2
sg83
g395
sg2159
Nsg2160
I00
sg42
Nsg2161
g2162
sg2163
Vcenter
p2718
sg33
Nsbsg72
NsS'_loc'
p2719
I0
sg65
I01
sg57
NsS'_base_pad'
p2720
F4.0
sS'tick1line'
p2721
g0
(cmatplotlib.lines
Line2D
p2722
g2
Ntp2723
Rp2724
(dp2725
g6
g7
sg8
I01
sS'_solidcapstyle'
p2726
Vprojecting
p2727
sg9
g4
sS'_dashcapstyle'
p2728
Vbutt
p2729
sS'_linestyles'
p2730
Nsg10
Nsg41
Nsg17
g18
sS'_solidjoinstyle'
p2731
Vround
p2732
sg20
I01
sS'_x_filled'
p2733
Nsg23
Nsg55
Nsg56
Nsg57
Nsg24
Nsg11
Nsg27
I00
sS'_markevery'
p2734
Nsg28
I00
sg29
(dp2735
sS'verticalOffset'
p2736
Nsg31
I00
sS'_subslice'
p2737
I00
sg1919
Nsg340
NsS'_markeredgewidth'
p2738
F0.5
sS'_markerfacecolor'
p2739
Vauto
p2740
sS'_dashSeq'
p2741
Nsg2161
g2162
sS'_marker'
p2742
g0
(cmatplotlib.markers
MarkerStyle
p2743
g2
Ntp2744
Rp2745
(dp2746
g2742
I2
sS'_alt_path'
p2747
NsS'_snap_threshold'
p2748
F1.0
sg83
g0
(g104
g2
Ntp2749
Rp2750
(dp2751
g48
I2
sg49
Nsg88
g89
(g90
(I0
tp2752
g92
tp2753
Rp2754
(I1
(I3
I3
tp2755
g99
I00
S'\x00\x00\x00\x00\x00\x00\xf0?\x00\x00\x00\x00\x00\x00\x00\x00\x00\x00\x00\x00\x00\x00\x00\x00\x00\x00\x00\x00\x00\x00\x00\x00\x00\x00\x00\x00\x00\x00\xf0?\x00\x00\x00\x00\x00\x00\x00\x00\x00\x00\x00\x00\x00\x00\x00\x00\x00\x00\x00\x00\x00\x00\x00\x00\x00\x00\x00\x00\x00\x00\xf0?'
p2756
tp2757
bsg50
g7
sg51
(dp2758
sbsS'_filled'
p2759
I00
sS'_fillstyle'
p2760
Vfull
p2761
sS'_alt_transform'
p2762
Nsg1916
Vbutt
p2763
sg74
Vround
p2764
sg358
g0
(g341
g2
Ntp2765
Rp2766
(dp2767
g345
I00
sg346
Nsg347
g89
(g90
(I0
tp2768
g92
tp2769
Rp2770
(I1
(I2
I2
tp2771
g99
I00
S'\x00\x00\x00\x00\x00\x00\x00\x80\x00\x00\x00\x00\x00\x00\x00\x00\x00\x00\x00\x00\x00\x00\x00\x80\x00\x00\x00\x00\x00\x00\xf0?'
p2772
tp2773
bsg354
I00
sg355
F0.1111111111111111
sg356
I1
sg357
I00
sbsbsg32
NsS'_markerfacecoloralt'
p2774
Vnone
p2775
sg69
I01
sS'_markeredgecolor'
p2776
Vauto
p2777
sg72
NsS'_markersize'
p2778
F4.0
sg65
I01
sS'_xy'
p2779
Nsg76
VNone
p2780
sS'_xorig'
p2781
(I0
tp2782
sg79
I0
sS'_drawstyle'
p2783
Vdefault
p2784
sS'ind_offset'
p2785
I0
sS'pickradius'
p2786
I5
sg80
I01
sg82
NsS'_dashjoinstyle'
p2787
g2732
sS'_invalidx'
p2788
I01
sg83
g298
sS'_invalidy'
p2789
I01
sS'zorder'
p2790
F2.01
sg42
Nsg1918
NsS'_yorig'
p2791
(I0
tp2792
sg67
Nsg66
F1.0
sg33
Nsg358
Nsbsg80
I00
sS'gridline'
p2793
g0
(g2722
g2
Ntp2794
Rp2795
(dp2796
g6
g7
sg8
I01
sg2726
g2727
sg9
g4
sg2728
g2729
sg2730
Nsg10
Nsg41
Nsg17
g18
sg2731
g2732
sg20
I01
sg2733
Nsg23
Nsg55
g89
(g90
(I0
tp2797
g92
tp2798
Rp2799
(I1
(I2
tp2800
g99
I00
S'\x00\x00\x00\x00\x00\x00\x00\x00\x00\x00\x00\x00\x00\x00\xf0?'
p2801
tp2802
bsg56
g89
(g90
(I0
tp2803
g92
tp2804
Rp2805
(I1
(I2
tp2806
g99
I00
S'\x00\x00\x00\x00\x00\x00\x00\x00\x00\x00\x00\x00\x00\x00\x00\x00'
p2807
tp2808
bsg57
Nsg24
Nsg11
Nsg27
I00
sg2734
Nsg28
I00
sg29
(dp2809
sg2736
Nsg31
I00
sg2737
I00
sg1919
Nsg340
Nsg2738
F0.5
sg2739
g2740
sg2741
Nsg2161
g2162
sg2742
g0
(g2743
g2
Ntp2810
Rp2811
(dp2812
g2742
VNone
p2813
sg2747
Nsg2748
Nsg83
g0
(g44
g2
Ntp2814
Rp2815
(dp2816
g48
I1
sg49
Nsg50
g7
sg51
(dp2817
sbsg2759
I00
sg2760
g2761
sg2762
Nsg1916
g2763
sg74
g2764
sg358
g0
(g341
g2
Ntp2818
Rp2819
(dp2820
g345
I00
sg346
Nsg347
g89
(g90
(I0
tp2821
g92
tp2822
Rp2823
(I1
(I0
I2
tp2824
g99
I00
S''
p2825
tp2826
bsg354
I00
sg355
F0.1111111111111111
sg356
I1
sg357
I00
sbsbsg32
Nsg2774
g2775
sg69
I01
sg2776
g2777
sg72
Nsg2778
F0.0
sg65
I01
sg2779
g89
(g90
(I0
tp2827
g92
tp2828
Rp2829
(I1
(I2
I2
tp2830
g99
I00
S'\x00\x00\x00\x00\x00\x00\x00\x00\x00\x00\x00\x00\x00\x00\x00\x00\x00\x00\x00\x00\x00\x00\x00\x00\x00\x00\x00\x00\x00\x00\xf0?'
p2831
tp2832
bsg76
V:
p2833
sg2781
(F0.0
F0.0
tp2834
sg79
I0
sg2783
g2784
sg2785
I0
sg2786
I5
sg80
I01
sg82
F1.0
sg2787
g2732
sg2788
I00
sg83
g298
sg2789
I00
sg42
Nsg1918
Nsg2791
(I0
F1.0
tp2835
sg67
g1004
sg66
F0.5
sg33
Nsg358
g0
(g341
g2
Ntp2836
Rp2837
(dp2838
g345
I00
sg346
Nsg347
g2829
sg354
I00
sg355
F0.1111111111111111
sg356
I180
sg357
I00
sbsbsg82
Nsg32
NsS'tick2line'
p2839
g0
(g2722
g2
Ntp2840
Rp2841
(dp2842
g6
g7
sg8
I01
sg2726
g2727
sg9
g4
sg2728
g2729
sg2730
Nsg10
Nsg41
Nsg17
g18
sg2731
g2732
sg20
I01
sg2733
Nsg23
Nsg55
Nsg56
Nsg57
Nsg24
Nsg11
Nsg27
I00
sg2734
Nsg28
I00
sg29
(dp2843
sg2736
Nsg31
I00
sg2737
I00
sg1919
Nsg340
Nsg2738
F0.5
sg2739
g2740
sg2741
Nsg2161
g2162
sg2742
g0
(g2743
g2
Ntp2844
Rp2845
(dp2846
g2742
I3
sg2747
Nsg2748
F1.0
sg83
g0
(g104
g2
Ntp2847
Rp2848
(dp2849
g48
I2
sg49
Nsg88
g89
(g90
(I0
tp2850
g92
tp2851
Rp2852
(I1
(I3
I3
tp2853
g99
I00
S'\x00\x00\x00\x00\x00\x00\xf0?\x00\x00\x00\x00\x00\x00\x00\x00\x00\x00\x00\x00\x00\x00\x00\x00\x00\x00\x00\x00\x00\x00\x00\x00\x00\x00\x00\x00\x00\x00\xf0\xbf\x00\x00\x00\x00\x00\x00\x00\x00\x00\x00\x00\x00\x00\x00\x00\x00\x00\x00\x00\x00\x00\x00\x00\x00\x00\x00\x00\x00\x00\x00\xf0?'
p2854
tp2855
bsg50
g7
sg51
(dp2856
sbsg2759
I00
sg2760
g2761
sg2762
Nsg1916
g2763
sg74
g2764
sg358
g2766
sbsg32
Nsg2774
g2775
sg69
I01
sg2776
g2777
sg72
Nsg2778
F4.0
sg65
I01
sg2779
Nsg76
VNone
p2857
sg2781
(I0
tp2858
sg79
I0
sg2783
g2784
sg2785
I0
sg2786
I5
sg80
I01
sg82
Nsg2787
g2732
sg2788
I01
sg83
g298
sg2789
I01
sg2790
F2.01
sg42
Nsg1918
Nsg2791
(I1
tp2859
sg67
Nsg66
F1.0
sg33
Nsg358
Nsbsg83
NsS'_labelsize'
p2860
g2629
sS'_name'
p2861
Vxtick
p2862
sg42
Nsg2161
g2162
sg33
Nsbag0
(g2678
g2
Ntp2863
Rp2864
(dp2865
g6
g7
sg39
F0.5
sg9
g4
sg2682
I01
sg8
I01
sg10
Nsg79
I0
sg41
Nsg2683
F4.0
sg2684
g2162
sg2685
I00
sg2121
F15.0
sg17
g18
sg2686
g2687
sg2637
g0
(g2105
g2
Ntp2866
Rp2867
(dp2868
g6
g7
sg8
I01
sg9
g4
sg10
Nsg2109
g0
(g2110
g2
Ntp2869
Rp2870
(dp2871
g2114
g2694
sg2117
Nsg2118
g2119
sg2120
g2119
sg2121
F15.0
sg2122
I400
sg2123
g2119
sbsg41
Nsg17
g18
sg2124
Nsg20
I01
sg23
Nsg55
I0
sg56
g2009
(g99
S'\x00\x00\x00\x00\x00\x80D@'
p2872
tp2873
Rp2874
sg24
Nsg11
Nsg27
I00
sg28
I00
sg29
(dp2875
sg2126
Nsg31
I00
sg1919
Nsg67
Nsg1918
Nsg2127
Nsg32
Nsg72
Nsg65
I01
sg2128
g2696
sg2130
V$41.0$
p2876
sg2132
Nsg57
Nsg79
I0
sg2133
Nsg80
I01
sg82
Nsg2134
F1.2
sg83
g313
sg2159
Nsg2160
I00
sg42
Nsg2161
g2162
sg2163
g2698
sg33
Nsbsg20
I01
sg23
Nsg2699
I00
sg24
Nsg11
Nsg2700
I01
sg27
I00
sg28
I00
sg29
(dp2877
sg2702
(I2
I3
tp2878
sg31
I00
sg2704
F2.01
sg1919
g1973
sg2705
I01
sg67
g1228
sg1918
Nsg2706
g2867
sg2707
g0
(g2105
g2
Ntp2879
Rp2880
(dp2881
g6
g7
sg8
I01
sg9
g4
sg10
Nsg2109
g0
(g2110
g2
Ntp2882
Rp2883
(dp2884
g2114
g2714
sg2117
Nsg2118
g2119
sg2120
g2119
sg2121
F15.0
sg2122
I400
sg2123
g2119
sbsg41
Nsg17
g18
sg2124
Nsg20
I01
sg23
Nsg55
I1
sg56
I0
sg24
Nsg11
Nsg27
I00
sg28
I00
sg29
(dp2885
sg2126
Nsg31
I00
sg1919
Nsg67
Nsg1918
Nsg2127
Nsg32
Nsg72
Nsg65
I01
sg2128
g2716
sg2130
V$41.0$
p2886
sg2132
Nsg57
Nsg79
I0
sg2133
Nsg80
I01
sg82
Nsg2134
F1.2
sg83
g395
sg2159
Nsg2160
I00
sg42
Nsg2161
g2162
sg2163
g2718
sg33
Nsbsg72
Nsg2719
g2874
sg65
I01
sg57
Nsg2720
F4.0
sg2721
g0
(g2722
g2
Ntp2887
Rp2888
(dp2889
g6
g7
sg8
I01
sg2726
g2727
sg9
g4
sg2728
g2729
sg2730
Nsg10
Nsg41
Nsg17
g18
sg2731
g2732
sg20
I01
sg2733
Nsg23
Nsg55
Nsg56
Nsg57
Nsg24
Nsg11
Nsg27
I00
sg2734
Nsg28
I00
sg29
(dp2890
sg2736
Nsg31
I00
sg2737
I00
sg1919
Nsg340
Nsg2738
F0.5
sg2739
g2740
sg2741
Nsg2161
g2162
sg2742
g0
(g2743
g2
Ntp2891
Rp2892
(dp2893
g2742
I2
sg2747
Nsg2748
F1.0
sg83
g0
(g104
g2
Ntp2894
Rp2895
(dp2896
g48
I2
sg49
Nsg88
g89
(g90
(I0
tp2897
g92
tp2898
Rp2899
(I1
(I3
I3
tp2900
g99
I00
S'\x00\x00\x00\x00\x00\x00\xf0?\x00\x00\x00\x00\x00\x00\x00\x00\x00\x00\x00\x00\x00\x00\x00\x00\x00\x00\x00\x00\x00\x00\x00\x00\x00\x00\x00\x00\x00\x00\xf0?\x00\x00\x00\x00\x00\x00\x00\x00\x00\x00\x00\x00\x00\x00\x00\x00\x00\x00\x00\x00\x00\x00\x00\x00\x00\x00\x00\x00\x00\x00\xf0?'
p2901
tp2902
bsg50
g7
sg51
(dp2903
sbsg2759
I00
sg2760
g2761
sg2762
Nsg1916
g2763
sg74
g2764
sg358
g2766
sbsg32
Nsg2774
g2775
sg69
I01
sg2776
g2777
sg72
Nsg2778
F4.0
sg65
I01
sg2779
Nsg76
g2780
sg2781
(g2874
tp2904
sg79
I0
sg2783
g2784
sg2785
I0
sg2786
I5
sg80
I01
sg82
Nsg2787
g2732
sg2788
I01
sg83
g298
sg2789
I01
sg2790
F2.01
sg42
Nsg1918
Nsg2791
g2792
sg67
Nsg66
F1.0
sg33
Nsg358
Nsbsg80
I00
sg2793
g0
(g2722
g2
Ntp2905
Rp2906
(dp2907
g6
g7
sg8
I01
sg2726
g2727
sg9
g4
sg2728
g2729
sg2730
Nsg10
Nsg41
Nsg17
g18
sg2731
g2732
sg20
I01
sg2733
Nsg23
Nsg55
g89
(g90
(I0
tp2908
g92
tp2909
Rp2910
(I1
(I2
tp2911
g99
I00
S'\x00\x00\x00\x00\x00\x00\x00\x00\x00\x00\x00\x00\x00\x00\xf0?'
p2912
tp2913
bsg56
g89
(g90
(I0
tp2914
g92
tp2915
Rp2916
(I1
(I2
tp2917
g99
I00
S'\x00\x00\x00\x00\x00\x00\x00\x00\x00\x00\x00\x00\x00\x00\x00\x00'
p2918
tp2919
bsg57
Nsg24
Nsg11
Nsg27
I00
sg2734
Nsg28
I00
sg29
(dp2920
sg2736
Nsg31
I00
sg2737
I00
sg1919
Nsg340
Nsg2738
F0.5
sg2739
g2740
sg2741
Nsg2161
g2162
sg2742
g0
(g2743
g2
Ntp2921
Rp2922
(dp2923
g2742
g2813
sg2747
Nsg2748
Nsg83
g0
(g44
g2
Ntp2924
Rp2925
(dp2926
g48
I1
sg49
Nsg50
g7
sg51
(dp2927
sbsg2759
I00
sg2760
g2761
sg2762
Nsg1916
g2763
sg74
g2764
sg358
g0
(g341
g2
Ntp2928
Rp2929
(dp2930
g345
I00
sg346
Nsg347
g89
(g90
(I0
tp2931
g92
tp2932
Rp2933
(I1
(I0
I2
tp2934
g99
I00
g2825
tp2935
bsg354
I00
sg355
F0.1111111111111111
sg356
I1
sg357
I00
sbsbsg32
Nsg2774
g2775
sg69
I01
sg2776
g2777
sg72
Nsg2778
F0.0
sg65
I01
sg2779
g89
(g90
(I0
tp2936
g92
tp2937
Rp2938
(I1
(I2
I2
tp2939
g99
I00
S'\x00\x00\x00\x00\x00\x00\x00\x00\x00\x00\x00\x00\x00\x00\x00\x00\x00\x00\x00\x00\x00\x00\x00\x00\x00\x00\x00\x00\x00\x00\xf0?'
p2940
tp2941
bsg76
g2833
sg2781
g2834
sg79
I0
sg2783
g2784
sg2785
I0
sg2786
I5
sg80
I01
sg82
F1.0
sg2787
g2732
sg2788
I00
sg83
g298
sg2789
I00
sg42
Nsg1918
Nsg2791
g2835
sg67
g1004
sg66
F0.5
sg33
Nsg358
g0
(g341
g2
Ntp2942
Rp2943
(dp2944
g345
I00
sg346
Nsg347
g2938
sg354
I00
sg355
F0.1111111111111111
sg356
I180
sg357
I00
sbsbsg82
Nsg32
Nsg2839
g0
(g2722
g2
Ntp2945
Rp2946
(dp2947
g6
g7
sg8
I01
sg2726
g2727
sg9
g4
sg2728
g2729
sg2730
Nsg10
Nsg41
Nsg17
g18
sg2731
g2732
sg20
I01
sg2733
Nsg23
Nsg55
Nsg56
Nsg57
Nsg24
Nsg11
Nsg27
I00
sg2734
Nsg28
I00
sg29
(dp2948
sg2736
Nsg31
I00
sg2737
I00
sg1919
Nsg340
Nsg2738
F0.5
sg2739
g2740
sg2741
Nsg2161
g2162
sg2742
g0
(g2743
g2
Ntp2949
Rp2950
(dp2951
g2742
I3
sg2747
Nsg2748
F1.0
sg83
g0
(g104
g2
Ntp2952
Rp2953
(dp2954
g48
I2
sg49
Nsg88
g89
(g90
(I0
tp2955
g92
tp2956
Rp2957
(I1
(I3
I3
tp2958
g99
I00
S'\x00\x00\x00\x00\x00\x00\xf0?\x00\x00\x00\x00\x00\x00\x00\x00\x00\x00\x00\x00\x00\x00\x00\x00\x00\x00\x00\x00\x00\x00\x00\x00\x00\x00\x00\x00\x00\x00\xf0\xbf\x00\x00\x00\x00\x00\x00\x00\x00\x00\x00\x00\x00\x00\x00\x00\x00\x00\x00\x00\x00\x00\x00\x00\x00\x00\x00\x00\x00\x00\x00\xf0?'
p2959
tp2960
bsg50
g7
sg51
(dp2961
sbsg2759
I00
sg2760
g2761
sg2762
Nsg1916
g2763
sg74
g2764
sg358
g2766
sbsg32
Nsg2774
g2775
sg69
I01
sg2776
g2777
sg72
Nsg2778
F4.0
sg65
I01
sg2779
Nsg76
g2857
sg2781
(g2874
tp2962
sg79
I0
sg2783
g2784
sg2785
I0
sg2786
I5
sg80
I01
sg82
Nsg2787
g2732
sg2788
I01
sg83
g298
sg2789
I01
sg2790
F2.01
sg42
Nsg1918
Nsg2791
g2859
sg67
Nsg66
F1.0
sg33
Nsg358
Nsbsg83
Nsg2860
g2629
sg2861
g2862
sg42
Nsg2161
g2162
sg33
Nsbag0
(g2678
g2
Ntp2963
Rp2964
(dp2965
g6
g7
sg39
F0.5
sg9
g4
sg2682
I01
sg8
I01
sg10
Nsg79
I0
sg41
Nsg2683
F4.0
sg2684
g2162
sg2685
I00
sg2121
F4.0
sg17
g18
sg2686
g2687
sg2637
g0
(g2105
g2
Ntp2966
Rp2967
(dp2968
g6
g7
sg8
I01
sg9
g4
sg10
Nsg2109
g0
(g2110
g2
Ntp2969
Rp2970
(dp2971
g2114
g2694
sg2117
Nsg2118
g2119
sg2120
g2119
sg2121
F15.0
sg2122
I400
sg2123
g2119
sbsg41
Nsg17
g18
sg2124
Nsg20
I01
sg23
Nsg55
I0
sg56
g2009
(g99
S'\x00\x00\x00\x00\x00\xc0D@'
p2972
tp2973
Rp2974
sg24
Nsg11
Nsg27
I00
sg28
I00
sg29
(dp2975
sg2126
Nsg31
I00
sg1919
Nsg67
Nsg1918
Nsg2127
Nsg32
Nsg72
Nsg65
I01
sg2128
g2696
sg2130
V$41.5$
p2976
sg2132
Nsg57
Nsg79
I0
sg2133
Nsg80
I01
sg82
Nsg2134
F1.2
sg83
g313
sg2159
Nsg2160
I00
sg42
Nsg2161
g2162
sg2163
g2698
sg33
Nsbsg20
I01
sg23
Nsg2699
I00
sg24
Nsg11
Nsg2700
I01
sg27
I00
sg28
I00
sg29
(dp2977
sg2702
(I2
I3
tp2978
sg31
I00
sg2704
F2.01
sg1919
g1973
sg2705
I01
sg67
Nsg1918
Nsg2706
g2967
sg2707
g0
(g2105
g2
Ntp2979
Rp2980
(dp2981
g6
g7
sg8
I01
sg9
g4
sg10
Nsg2109
g0
(g2110
g2
Ntp2982
Rp2983
(dp2984
g2114
g2714
sg2117
Nsg2118
g2119
sg2120
g2119
sg2121
F15.0
sg2122
I400
sg2123
g2119
sbsg41
Nsg17
g18
sg2124
Nsg20
I01
sg23
Nsg55
I1
sg56
I0
sg24
Nsg11
Nsg27
I00
sg28
I00
sg29
(dp2985
sg2126
Nsg31
I00
sg1919
Nsg67
Nsg1918
Nsg2127
Nsg32
Nsg72
Nsg65
I01
sg2128
g2716
sg2130
V$41.5$
p2986
sg2132
Nsg57
Nsg79
I0
sg2133
Nsg80
I01
sg82
Nsg2134
F1.2
sg83
g395
sg2159
Nsg2160
I00
sg42
Nsg2161
g2162
sg2163
g2718
sg33
Nsbsg72
Nsg2719
g2974
sg65
I01
sg57
Nsg2720
F4.0
sg2721
g0
(g2722
g2
Ntp2987
Rp2988
(dp2989
g6
g7
sg8
I01
sg2726
g2727
sg9
g4
sg2728
g2729
sg2730
Nsg10
Nsg41
Nsg17
g18
sg2731
g2732
sg20
I01
sg2733
Nsg23
Nsg55
Nsg56
Nsg57
Nsg24
Nsg11
Nsg27
I00
sg2734
Nsg28
I00
sg29
(dp2990
sg2736
Nsg31
I00
sg2737
I00
sg1919
Nsg340
Nsg2738
F0.5
sg2739
g2740
sg2741
Nsg2161
g2162
sg2742
g0
(g2743
g2
Ntp2991
Rp2992
(dp2993
g2742
I2
sg2747
Nsg2748
F1.0
sg83
g0
(g104
g2
Ntp2994
Rp2995
(dp2996
g48
I2
sg49
Nsg88
g89
(g90
(I0
tp2997
g92
tp2998
Rp2999
(I1
(I3
I3
tp3000
g99
I00
S'\x00\x00\x00\x00\x00\x00\xf0?\x00\x00\x00\x00\x00\x00\x00\x00\x00\x00\x00\x00\x00\x00\x00\x00\x00\x00\x00\x00\x00\x00\x00\x00\x00\x00\x00\x00\x00\x00\xf0?\x00\x00\x00\x00\x00\x00\x00\x00\x00\x00\x00\x00\x00\x00\x00\x00\x00\x00\x00\x00\x00\x00\x00\x00\x00\x00\x00\x00\x00\x00\xf0?'
p3001
tp3002
bsg50
g7
sg51
(dp3003
sbsg2759
I00
sg2760
g2761
sg2762
Nsg1916
g2763
sg74
g2764
sg358
g2766
sbsg32
Nsg2774
g2775
sg69
I01
sg2776
g2777
sg72
Nsg2778
F4.0
sg65
I01
sg2779
Nsg76
g2780
sg2781
(g2974
tp3004
sg79
I0
sg2783
g2784
sg2785
I0
sg2786
I5
sg80
I01
sg82
Nsg2787
g2732
sg2788
I01
sg83
g298
sg2789
I01
sg2790
F2.01
sg42
Nsg1918
Nsg2791
g2792
sg67
Nsg66
F1.0
sg33
Nsg358
Nsbsg80
I00
sg2793
g0
(g2722
g2
Ntp3005
Rp3006
(dp3007
g6
g7
sg8
I01
sg2726
g2727
sg9
g4
sg2728
g2729
sg2730
Nsg10
Nsg41
Nsg17
g18
sg2731
g2732
sg20
I01
sg2733
Nsg23
Nsg55
g89
(g90
(I0
tp3008
g92
tp3009
Rp3010
(I1
(I2
tp3011
g99
I00
S'\x00\x00\x00\x00\x00\x00\x00\x00\x00\x00\x00\x00\x00\x00\xf0?'
p3012
tp3013
bsg56
g89
(g90
(I0
tp3014
g92
tp3015
Rp3016
(I1
(I2
tp3017
g99
I00
S'\x00\x00\x00\x00\x00\x00\x00\x00\x00\x00\x00\x00\x00\x00\x00\x00'
p3018
tp3019
bsg57
Nsg24
Nsg11
Nsg27
I00
sg2734
Nsg28
I00
sg29
(dp3020
sg2736
Nsg31
I00
sg2737
I00
sg1919
Nsg340
Nsg2738
F0.5
sg2739
g2740
sg2741
Nsg2161
g2162
sg2742
g0
(g2743
g2
Ntp3021
Rp3022
(dp3023
g2742
g2813
sg2747
Nsg2748
Nsg83
g0
(g44
g2
Ntp3024
Rp3025
(dp3026
g48
I1
sg49
Nsg50
g7
sg51
(dp3027
sbsg2759
I00
sg2760
g2761
sg2762
Nsg1916
g2763
sg74
g2764
sg358
g0
(g341
g2
Ntp3028
Rp3029
(dp3030
g345
I00
sg346
Nsg347
g89
(g90
(I0
tp3031
g92
tp3032
Rp3033
(I1
(I0
I2
tp3034
g99
I00
g2825
tp3035
bsg354
I00
sg355
F0.1111111111111111
sg356
I1
sg357
I00
sbsbsg32
Nsg2774
g2775
sg69
I01
sg2776
g2777
sg72
Nsg2778
F0.0
sg65
I01
sg2779
g89
(g90
(I0
tp3036
g92
tp3037
Rp3038
(I1
(I2
I2
tp3039
g99
I00
S'\x00\x00\x00\x00\x00\x00\x00\x00\x00\x00\x00\x00\x00\x00\x00\x00\x00\x00\x00\x00\x00\x00\x00\x00\x00\x00\x00\x00\x00\x00\xf0?'
p3040
tp3041
bsg76
g2833
sg2781
g2834
sg79
I0
sg2783
g2784
sg2785
I0
sg2786
I5
sg80
I01
sg82
F1.0
sg2787
g2732
sg2788
I00
sg83
g298
sg2789
I00
sg42
Nsg1918
Nsg2791
g2835
sg67
g1004
sg66
F0.5
sg33
Nsg358
g0
(g341
g2
Ntp3042
Rp3043
(dp3044
g345
I00
sg346
Nsg347
g3038
sg354
I00
sg355
F0.1111111111111111
sg356
I180
sg357
I00
sbsbsg82
Nsg32
Nsg2839
g0
(g2722
g2
Ntp3045
Rp3046
(dp3047
g6
g7
sg8
I01
sg2726
g2727
sg9
g4
sg2728
g2729
sg2730
Nsg10
Nsg41
Nsg17
g18
sg2731
g2732
sg20
I01
sg2733
Nsg23
Nsg55
Nsg56
Nsg57
Nsg24
Nsg11
Nsg27
I00
sg2734
Nsg28
I00
sg29
(dp3048
sg2736
Nsg31
I00
sg2737
I00
sg1919
Nsg340
Nsg2738
F0.5
sg2739
g2740
sg2741
Nsg2161
g2162
sg2742
g0
(g2743
g2
Ntp3049
Rp3050
(dp3051
g2742
I3
sg2747
Nsg2748
F1.0
sg83
g0
(g104
g2
Ntp3052
Rp3053
(dp3054
g48
I2
sg49
Nsg88
g89
(g90
(I0
tp3055
g92
tp3056
Rp3057
(I1
(I3
I3
tp3058
g99
I00
S'\x00\x00\x00\x00\x00\x00\xf0?\x00\x00\x00\x00\x00\x00\x00\x00\x00\x00\x00\x00\x00\x00\x00\x00\x00\x00\x00\x00\x00\x00\x00\x00\x00\x00\x00\x00\x00\x00\xf0\xbf\x00\x00\x00\x00\x00\x00\x00\x00\x00\x00\x00\x00\x00\x00\x00\x00\x00\x00\x00\x00\x00\x00\x00\x00\x00\x00\x00\x00\x00\x00\xf0?'
p3059
tp3060
bsg50
g7
sg51
(dp3061
sbsg2759
I00
sg2760
g2761
sg2762
Nsg1916
g2763
sg74
g2764
sg358
g2766
sbsg32
Nsg2774
g2775
sg69
I01
sg2776
g2777
sg72
Nsg2778
F4.0
sg65
I01
sg2779
Nsg76
g2857
sg2781
(g2974
tp3062
sg79
I0
sg2783
g2784
sg2785
I0
sg2786
I5
sg80
I01
sg82
Nsg2787
g2732
sg2788
I01
sg83
g298
sg2789
I01
sg2790
F2.01
sg42
Nsg1918
Nsg2791
g2859
sg67
Nsg66
F1.0
sg33
Nsg358
Nsbsg83
Nsg2860
I15
sg2861
g2862
sg42
Nsg2161
g2162
sg33
Nsbag0
(g2678
g2
Ntp3063
Rp3064
(dp3065
g6
g7
sg39
F0.5
sg9
g4
sg2682
I01
sg8
I01
sg10
Nsg79
I0
sg41
Nsg2683
F4.0
sg2684
g2162
sg2685
I00
sg2121
F4.0
sg17
g18
sg2686
g2687
sg2637
g0
(g2105
g2
Ntp3066
Rp3067
(dp3068
g6
g7
sg8
I01
sg9
g4
sg10
Nsg2109
g0
(g2110
g2
Ntp3069
Rp3070
(dp3071
g2114
g2694
sg2117
Nsg2118
g2119
sg2120
g2119
sg2121
F15.0
sg2122
I400
sg2123
g2119
sbsg41
Nsg17
g18
sg2124
Nsg20
I01
sg23
Nsg55
I0
sg56
g2009
(g99
S'\x00\x00\x00\x00\x00\x00E@'
p3072
tp3073
Rp3074
sg24
Nsg11
Nsg27
I00
sg28
I00
sg29
(dp3075
sg2126
Nsg31
I00
sg1919
Nsg67
Nsg1918
Nsg2127
Nsg32
Nsg72
Nsg65
I01
sg2128
g2696
sg2130
V$42.0$
p3076
sg2132
Nsg57
Nsg79
I0
sg2133
Nsg80
I01
sg82
Nsg2134
F1.2
sg83
g313
sg2159
Nsg2160
I00
sg42
Nsg2161
g2162
sg2163
g2698
sg33
Nsbsg20
I01
sg23
Nsg2699
I00
sg24
Nsg11
Nsg2700
I01
sg27
I00
sg28
I00
sg29
(dp3077
sg2702
(I2
I3
tp3078
sg31
I00
sg2704
F2.01
sg1919
g1973
sg2705
I01
sg67
Nsg1918
Nsg2706
g3067
sg2707
g0
(g2105
g2
Ntp3079
Rp3080
(dp3081
g6
g7
sg8
I01
sg9
g4
sg10
Nsg2109
g0
(g2110
g2
Ntp3082
Rp3083
(dp3084
g2114
g2714
sg2117
Nsg2118
g2119
sg2120
g2119
sg2121
F15.0
sg2122
I400
sg2123
g2119
sbsg41
Nsg17
g18
sg2124
Nsg20
I01
sg23
Nsg55
I1
sg56
I0
sg24
Nsg11
Nsg27
I00
sg28
I00
sg29
(dp3085
sg2126
Nsg31
I00
sg1919
Nsg67
Nsg1918
Nsg2127
Nsg32
Nsg72
Nsg65
I01
sg2128
g2716
sg2130
V$42.0$
p3086
sg2132
Nsg57
Nsg79
I0
sg2133
Nsg80
I01
sg82
Nsg2134
F1.2
sg83
g395
sg2159
Nsg2160
I00
sg42
Nsg2161
g2162
sg2163
g2718
sg33
Nsbsg72
Nsg2719
g3074
sg65
I01
sg57
Nsg2720
F4.0
sg2721
g0
(g2722
g2
Ntp3087
Rp3088
(dp3089
g6
g7
sg8
I01
sg2726
g2727
sg9
g4
sg2728
g2729
sg2730
Nsg10
Nsg41
Nsg17
g18
sg2731
g2732
sg20
I01
sg2733
Nsg23
Nsg55
Nsg56
Nsg57
Nsg24
Nsg11
Nsg27
I00
sg2734
Nsg28
I00
sg29
(dp3090
sg2736
Nsg31
I00
sg2737
I00
sg1919
Nsg340
Nsg2738
F0.5
sg2739
g2740
sg2741
Nsg2161
g2162
sg2742
g0
(g2743
g2
Ntp3091
Rp3092
(dp3093
g2742
I2
sg2747
Nsg2748
F1.0
sg83
g0
(g104
g2
Ntp3094
Rp3095
(dp3096
g48
I2
sg49
Nsg88
g89
(g90
(I0
tp3097
g92
tp3098
Rp3099
(I1
(I3
I3
tp3100
g99
I00
S'\x00\x00\x00\x00\x00\x00\xf0?\x00\x00\x00\x00\x00\x00\x00\x00\x00\x00\x00\x00\x00\x00\x00\x00\x00\x00\x00\x00\x00\x00\x00\x00\x00\x00\x00\x00\x00\x00\xf0?\x00\x00\x00\x00\x00\x00\x00\x00\x00\x00\x00\x00\x00\x00\x00\x00\x00\x00\x00\x00\x00\x00\x00\x00\x00\x00\x00\x00\x00\x00\xf0?'
p3101
tp3102
bsg50
g7
sg51
(dp3103
sbsg2759
I00
sg2760
g2761
sg2762
Nsg1916
g2763
sg74
g2764
sg358
g2766
sbsg32
Nsg2774
g2775
sg69
I01
sg2776
g2777
sg72
Nsg2778
F4.0
sg65
I01
sg2779
Nsg76
g2780
sg2781
(g3074
tp3104
sg79
I0
sg2783
g2784
sg2785
I0
sg2786
I5
sg80
I01
sg82
Nsg2787
g2732
sg2788
I01
sg83
g298
sg2789
I01
sg2790
F2.01
sg42
Nsg1918
Nsg2791
g2792
sg67
Nsg66
F1.0
sg33
Nsg358
Nsbsg80
I00
sg2793
g0
(g2722
g2
Ntp3105
Rp3106
(dp3107
g6
g7
sg8
I01
sg2726
g2727
sg9
g4
sg2728
g2729
sg2730
Nsg10
Nsg41
Nsg17
g18
sg2731
g2732
sg20
I01
sg2733
Nsg23
Nsg55
g89
(g90
(I0
tp3108
g92
tp3109
Rp3110
(I1
(I2
tp3111
g99
I00
S'\x00\x00\x00\x00\x00\x00\x00\x00\x00\x00\x00\x00\x00\x00\xf0?'
p3112
tp3113
bsg56
g89
(g90
(I0
tp3114
g92
tp3115
Rp3116
(I1
(I2
tp3117
g99
I00
S'\x00\x00\x00\x00\x00\x00\x00\x00\x00\x00\x00\x00\x00\x00\x00\x00'
p3118
tp3119
bsg57
Nsg24
Nsg11
Nsg27
I00
sg2734
Nsg28
I00
sg29
(dp3120
sg2736
Nsg31
I00
sg2737
I00
sg1919
Nsg340
Nsg2738
F0.5
sg2739
g2740
sg2741
Nsg2161
g2162
sg2742
g0
(g2743
g2
Ntp3121
Rp3122
(dp3123
g2742
g2813
sg2747
Nsg2748
Nsg83
g0
(g44
g2
Ntp3124
Rp3125
(dp3126
g48
I1
sg49
Nsg50
g7
sg51
(dp3127
sbsg2759
I00
sg2760
g2761
sg2762
Nsg1916
g2763
sg74
g2764
sg358
g0
(g341
g2
Ntp3128
Rp3129
(dp3130
g345
I00
sg346
Nsg347
g89
(g90
(I0
tp3131
g92
tp3132
Rp3133
(I1
(I0
I2
tp3134
g99
I00
g2825
tp3135
bsg354
I00
sg355
F0.1111111111111111
sg356
I1
sg357
I00
sbsbsg32
Nsg2774
g2775
sg69
I01
sg2776
g2777
sg72
Nsg2778
F0.0
sg65
I01
sg2779
g89
(g90
(I0
tp3136
g92
tp3137
Rp3138
(I1
(I2
I2
tp3139
g99
I00
S'\x00\x00\x00\x00\x00\x00\x00\x00\x00\x00\x00\x00\x00\x00\x00\x00\x00\x00\x00\x00\x00\x00\x00\x00\x00\x00\x00\x00\x00\x00\xf0?'
p3140
tp3141
bsg76
g2833
sg2781
g2834
sg79
I0
sg2783
g2784
sg2785
I0
sg2786
I5
sg80
I01
sg82
F1.0
sg2787
g2732
sg2788
I00
sg83
g298
sg2789
I00
sg42
Nsg1918
Nsg2791
g2835
sg67
g1004
sg66
F0.5
sg33
Nsg358
g0
(g341
g2
Ntp3142
Rp3143
(dp3144
g345
I00
sg346
Nsg347
g3138
sg354
I00
sg355
F0.1111111111111111
sg356
I180
sg357
I00
sbsbsg82
Nsg32
Nsg2839
g0
(g2722
g2
Ntp3145
Rp3146
(dp3147
g6
g7
sg8
I01
sg2726
g2727
sg9
g4
sg2728
g2729
sg2730
Nsg10
Nsg41
Nsg17
g18
sg2731
g2732
sg20
I01
sg2733
Nsg23
Nsg55
Nsg56
Nsg57
Nsg24
Nsg11
Nsg27
I00
sg2734
Nsg28
I00
sg29
(dp3148
sg2736
Nsg31
I00
sg2737
I00
sg1919
Nsg340
Nsg2738
F0.5
sg2739
g2740
sg2741
Nsg2161
g2162
sg2742
g0
(g2743
g2
Ntp3149
Rp3150
(dp3151
g2742
I3
sg2747
Nsg2748
F1.0
sg83
g0
(g104
g2
Ntp3152
Rp3153
(dp3154
g48
I2
sg49
Nsg88
g89
(g90
(I0
tp3155
g92
tp3156
Rp3157
(I1
(I3
I3
tp3158
g99
I00
S'\x00\x00\x00\x00\x00\x00\xf0?\x00\x00\x00\x00\x00\x00\x00\x00\x00\x00\x00\x00\x00\x00\x00\x00\x00\x00\x00\x00\x00\x00\x00\x00\x00\x00\x00\x00\x00\x00\xf0\xbf\x00\x00\x00\x00\x00\x00\x00\x00\x00\x00\x00\x00\x00\x00\x00\x00\x00\x00\x00\x00\x00\x00\x00\x00\x00\x00\x00\x00\x00\x00\xf0?'
p3159
tp3160
bsg50
g7
sg51
(dp3161
sbsg2759
I00
sg2760
g2761
sg2762
Nsg1916
g2763
sg74
g2764
sg358
g2766
sbsg32
Nsg2774
g2775
sg69
I01
sg2776
g2777
sg72
Nsg2778
F4.0
sg65
I01
sg2779
Nsg76
g2857
sg2781
(g3074
tp3162
sg79
I0
sg2783
g2784
sg2785
I0
sg2786
I5
sg80
I01
sg82
Nsg2787
g2732
sg2788
I01
sg83
g298
sg2789
I01
sg2790
F2.01
sg42
Nsg1918
Nsg2791
g2859
sg67
Nsg66
F1.0
sg33
Nsg358
Nsbsg83
Nsg2860
I15
sg2861
g2862
sg42
Nsg2161
g2162
sg33
Nsbag0
(g2678
g2
Ntp3163
Rp3164
(dp3165
g6
g7
sg39
F0.5
sg9
g4
sg2682
I01
sg8
I01
sg10
Nsg79
I0
sg41
Nsg2683
F4.0
sg2684
g2162
sg2685
I00
sg2121
F4.0
sg17
g18
sg2686
g2687
sg2637
g0
(g2105
g2
Ntp3166
Rp3167
(dp3168
g6
g7
sg8
I01
sg9
g4
sg10
Nsg2109
g0
(g2110
g2
Ntp3169
Rp3170
(dp3171
g2114
g2694
sg2117
Nsg2118
g2119
sg2120
g2119
sg2121
F15.0
sg2122
I400
sg2123
g2119
sbsg41
Nsg17
g18
sg2124
Nsg20
I01
sg23
Nsg55
I0
sg56
g2009
(g99
S'\x00\x00\x00\x00\x00@E@'
p3172
tp3173
Rp3174
sg24
Nsg11
Nsg27
I00
sg28
I00
sg29
(dp3175
sg2126
Nsg31
I00
sg1919
Nsg67
Nsg1918
Nsg2127
Nsg32
Nsg72
Nsg65
I01
sg2128
g2696
sg2130
V$42.5$
p3176
sg2132
Nsg57
Nsg79
I0
sg2133
Nsg80
I01
sg82
Nsg2134
F1.2
sg83
g313
sg2159
Nsg2160
I00
sg42
Nsg2161
g2162
sg2163
g2698
sg33
Nsbsg20
I01
sg23
Nsg2699
I00
sg24
Nsg11
Nsg2700
I01
sg27
I00
sg28
I00
sg29
(dp3177
sg2702
(I2
I3
tp3178
sg31
I00
sg2704
F2.01
sg1919
g1973
sg2705
I01
sg67
Nsg1918
Nsg2706
g3167
sg2707
g0
(g2105
g2
Ntp3179
Rp3180
(dp3181
g6
g7
sg8
I01
sg9
g4
sg10
Nsg2109
g0
(g2110
g2
Ntp3182
Rp3183
(dp3184
g2114
g2714
sg2117
Nsg2118
g2119
sg2120
g2119
sg2121
F15.0
sg2122
I400
sg2123
g2119
sbsg41
Nsg17
g18
sg2124
Nsg20
I01
sg23
Nsg55
I1
sg56
I0
sg24
Nsg11
Nsg27
I00
sg28
I00
sg29
(dp3185
sg2126
Nsg31
I00
sg1919
Nsg67
Nsg1918
Nsg2127
Nsg32
Nsg72
Nsg65
I01
sg2128
g2716
sg2130
V$42.5$
p3186
sg2132
Nsg57
Nsg79
I0
sg2133
Nsg80
I01
sg82
Nsg2134
F1.2
sg83
g395
sg2159
Nsg2160
I00
sg42
Nsg2161
g2162
sg2163
g2718
sg33
Nsbsg72
Nsg2719
g3174
sg65
I01
sg57
Nsg2720
F4.0
sg2721
g0
(g2722
g2
Ntp3187
Rp3188
(dp3189
g6
g7
sg8
I01
sg2726
g2727
sg9
g4
sg2728
g2729
sg2730
Nsg10
Nsg41
Nsg17
g18
sg2731
g2732
sg20
I01
sg2733
Nsg23
Nsg55
Nsg56
Nsg57
Nsg24
Nsg11
Nsg27
I00
sg2734
Nsg28
I00
sg29
(dp3190
sg2736
Nsg31
I00
sg2737
I00
sg1919
Nsg340
Nsg2738
F0.5
sg2739
g2740
sg2741
Nsg2161
g2162
sg2742
g0
(g2743
g2
Ntp3191
Rp3192
(dp3193
g2742
I2
sg2747
Nsg2748
F1.0
sg83
g0
(g104
g2
Ntp3194
Rp3195
(dp3196
g48
I2
sg49
Nsg88
g89
(g90
(I0
tp3197
g92
tp3198
Rp3199
(I1
(I3
I3
tp3200
g99
I00
S'\x00\x00\x00\x00\x00\x00\xf0?\x00\x00\x00\x00\x00\x00\x00\x00\x00\x00\x00\x00\x00\x00\x00\x00\x00\x00\x00\x00\x00\x00\x00\x00\x00\x00\x00\x00\x00\x00\xf0?\x00\x00\x00\x00\x00\x00\x00\x00\x00\x00\x00\x00\x00\x00\x00\x00\x00\x00\x00\x00\x00\x00\x00\x00\x00\x00\x00\x00\x00\x00\xf0?'
p3201
tp3202
bsg50
g7
sg51
(dp3203
sbsg2759
I00
sg2760
g2761
sg2762
Nsg1916
g2763
sg74
g2764
sg358
g2766
sbsg32
Nsg2774
g2775
sg69
I01
sg2776
g2777
sg72
Nsg2778
F4.0
sg65
I01
sg2779
Nsg76
g2780
sg2781
(g3174
tp3204
sg79
I0
sg2783
g2784
sg2785
I0
sg2786
I5
sg80
I01
sg82
Nsg2787
g2732
sg2788
I01
sg83
g298
sg2789
I01
sg2790
F2.01
sg42
Nsg1918
Nsg2791
g2792
sg67
Nsg66
F1.0
sg33
Nsg358
Nsbsg80
I00
sg2793
g0
(g2722
g2
Ntp3205
Rp3206
(dp3207
g6
g7
sg8
I01
sg2726
g2727
sg9
g4
sg2728
g2729
sg2730
Nsg10
Nsg41
Nsg17
g18
sg2731
g2732
sg20
I01
sg2733
Nsg23
Nsg55
g89
(g90
(I0
tp3208
g92
tp3209
Rp3210
(I1
(I2
tp3211
g99
I00
S'\x00\x00\x00\x00\x00\x00\x00\x00\x00\x00\x00\x00\x00\x00\xf0?'
p3212
tp3213
bsg56
g89
(g90
(I0
tp3214
g92
tp3215
Rp3216
(I1
(I2
tp3217
g99
I00
S'\x00\x00\x00\x00\x00\x00\x00\x00\x00\x00\x00\x00\x00\x00\x00\x00'
p3218
tp3219
bsg57
Nsg24
Nsg11
Nsg27
I00
sg2734
Nsg28
I00
sg29
(dp3220
sg2736
Nsg31
I00
sg2737
I00
sg1919
Nsg340
Nsg2738
F0.5
sg2739
g2740
sg2741
Nsg2161
g2162
sg2742
g0
(g2743
g2
Ntp3221
Rp3222
(dp3223
g2742
g2813
sg2747
Nsg2748
Nsg83
g0
(g44
g2
Ntp3224
Rp3225
(dp3226
g48
I1
sg49
Nsg50
g7
sg51
(dp3227
sbsg2759
I00
sg2760
g2761
sg2762
Nsg1916
g2763
sg74
g2764
sg358
g0
(g341
g2
Ntp3228
Rp3229
(dp3230
g345
I00
sg346
Nsg347
g89
(g90
(I0
tp3231
g92
tp3232
Rp3233
(I1
(I0
I2
tp3234
g99
I00
g2825
tp3235
bsg354
I00
sg355
F0.1111111111111111
sg356
I1
sg357
I00
sbsbsg32
Nsg2774
g2775
sg69
I01
sg2776
g2777
sg72
Nsg2778
F0.0
sg65
I01
sg2779
g89
(g90
(I0
tp3236
g92
tp3237
Rp3238
(I1
(I2
I2
tp3239
g99
I00
S'\x00\x00\x00\x00\x00\x00\x00\x00\x00\x00\x00\x00\x00\x00\x00\x00\x00\x00\x00\x00\x00\x00\x00\x00\x00\x00\x00\x00\x00\x00\xf0?'
p3240
tp3241
bsg76
g2833
sg2781
g2834
sg79
I0
sg2783
g2784
sg2785
I0
sg2786
I5
sg80
I01
sg82
F1.0
sg2787
g2732
sg2788
I00
sg83
g298
sg2789
I00
sg42
Nsg1918
Nsg2791
g2835
sg67
g1004
sg66
F0.5
sg33
Nsg358
g0
(g341
g2
Ntp3242
Rp3243
(dp3244
g345
I00
sg346
Nsg347
g3238
sg354
I00
sg355
F0.1111111111111111
sg356
I180
sg357
I00
sbsbsg82
Nsg32
Nsg2839
g0
(g2722
g2
Ntp3245
Rp3246
(dp3247
g6
g7
sg8
I01
sg2726
g2727
sg9
g4
sg2728
g2729
sg2730
Nsg10
Nsg41
Nsg17
g18
sg2731
g2732
sg20
I01
sg2733
Nsg23
Nsg55
Nsg56
Nsg57
Nsg24
Nsg11
Nsg27
I00
sg2734
Nsg28
I00
sg29
(dp3248
sg2736
Nsg31
I00
sg2737
I00
sg1919
Nsg340
Nsg2738
F0.5
sg2739
g2740
sg2741
Nsg2161
g2162
sg2742
g0
(g2743
g2
Ntp3249
Rp3250
(dp3251
g2742
I3
sg2747
Nsg2748
F1.0
sg83
g0
(g104
g2
Ntp3252
Rp3253
(dp3254
g48
I2
sg49
Nsg88
g89
(g90
(I0
tp3255
g92
tp3256
Rp3257
(I1
(I3
I3
tp3258
g99
I00
S'\x00\x00\x00\x00\x00\x00\xf0?\x00\x00\x00\x00\x00\x00\x00\x00\x00\x00\x00\x00\x00\x00\x00\x00\x00\x00\x00\x00\x00\x00\x00\x00\x00\x00\x00\x00\x00\x00\xf0\xbf\x00\x00\x00\x00\x00\x00\x00\x00\x00\x00\x00\x00\x00\x00\x00\x00\x00\x00\x00\x00\x00\x00\x00\x00\x00\x00\x00\x00\x00\x00\xf0?'
p3259
tp3260
bsg50
g7
sg51
(dp3261
sbsg2759
I00
sg2760
g2761
sg2762
Nsg1916
g2763
sg74
g2764
sg358
g2766
sbsg32
Nsg2774
g2775
sg69
I01
sg2776
g2777
sg72
Nsg2778
F4.0
sg65
I01
sg2779
Nsg76
g2857
sg2781
(g3174
tp3262
sg79
I0
sg2783
g2784
sg2785
I0
sg2786
I5
sg80
I01
sg82
Nsg2787
g2732
sg2788
I01
sg83
g298
sg2789
I01
sg2790
F2.01
sg42
Nsg1918
Nsg2791
g2859
sg67
Nsg66
F1.0
sg33
Nsg358
Nsbsg83
Nsg2860
I15
sg2861
g2862
sg42
Nsg2161
g2162
sg33
Nsbag0
(g2678
g2
Ntp3263
Rp3264
(dp3265
g6
g7
sg39
F0.5
sg9
g4
sg2682
I01
sg8
I01
sg10
Nsg79
I0
sg41
Nsg2683
F4.0
sg2684
g2162
sg2685
I00
sg2121
F4.0
sg17
g18
sg2686
g2687
sg2637
g0
(g2105
g2
Ntp3266
Rp3267
(dp3268
g6
g7
sg8
I01
sg9
g4
sg10
Nsg2109
g0
(g2110
g2
Ntp3269
Rp3270
(dp3271
g2114
g2694
sg2117
Nsg2118
g2119
sg2120
g2119
sg2121
F15.0
sg2122
I400
sg2123
g2119
sbsg41
Nsg17
g18
sg2124
Nsg20
I01
sg23
Nsg55
I0
sg56
I0
sg24
Nsg11
Nsg27
I00
sg28
I00
sg29
(dp3272
sg2126
Nsg31
I00
sg1919
Nsg67
Nsg1918
Nsg2127
Nsg32
Nsg72
Nsg65
I01
sg2128
g2696
sg2130
V
p3273
sg2132
Nsg57
Nsg79
I0
sg2133
Nsg80
I01
sg82
Nsg2134
F1.2
sg83
g313
sg2159
Nsg2160
I00
sg42
Nsg2161
g2162
sg2163
g2698
sg33
Nsbsg20
I01
sg23
Nsg2699
I00
sg24
Nsg11
Nsg2700
I01
sg27
I00
sg28
I00
sg29
(dp3274
sg2702
(I2
I3
tp3275
sg31
I00
sg2704
F2.01
sg1919
g1973
sg2705
I01
sg67
Nsg1918
Nsg2706
g3267
sg2707
g0
(g2105
g2
Ntp3276
Rp3277
(dp3278
g6
g7
sg8
I01
sg9
g4
sg10
Nsg2109
g0
(g2110
g2
Ntp3279
Rp3280
(dp3281
g2114
g2714
sg2117
Nsg2118
g2119
sg2120
g2119
sg2121
F15.0
sg2122
I400
sg2123
g2119
sbsg41
Nsg17
g18
sg2124
Nsg20
I01
sg23
Nsg55
I1
sg56
I0
sg24
Nsg11
Nsg27
I00
sg28
I00
sg29
(dp3282
sg2126
Nsg31
I00
sg1919
Nsg67
Nsg1918
Nsg2127
Nsg32
Nsg72
Nsg65
I01
sg2128
g2716
sg2130
V
p3283
sg2132
Nsg57
Nsg79
I0
sg2133
Nsg80
I01
sg82
Nsg2134
F1.2
sg83
g395
sg2159
Nsg2160
I00
sg42
Nsg2161
g2162
sg2163
g2718
sg33
Nsbsg72
Nsg2719
I0
sg65
I01
sg57
Nsg2720
F4.0
sg2721
g0
(g2722
g2
Ntp3284
Rp3285
(dp3286
g6
g7
sg8
I01
sg2726
g2727
sg9
g4
sg2728
g2729
sg2730
Nsg10
Nsg41
Nsg17
g18
sg2731
g2732
sg20
I01
sg2733
Nsg23
Nsg55
Nsg56
Nsg57
Nsg24
Nsg11
Nsg27
I00
sg2734
Nsg28
I00
sg29
(dp3287
sg2736
Nsg31
I00
sg2737
I00
sg1919
Nsg340
Nsg2738
F0.5
sg2739
g2740
sg2741
Nsg2161
g2162
sg2742
g0
(g2743
g2
Ntp3288
Rp3289
(dp3290
g2742
I2
sg2747
Nsg2748
F1.0
sg83
g0
(g104
g2
Ntp3291
Rp3292
(dp3293
g48
I2
sg49
Nsg88
g89
(g90
(I0
tp3294
g92
tp3295
Rp3296
(I1
(I3
I3
tp3297
g99
I00
S'\x00\x00\x00\x00\x00\x00\xf0?\x00\x00\x00\x00\x00\x00\x00\x00\x00\x00\x00\x00\x00\x00\x00\x00\x00\x00\x00\x00\x00\x00\x00\x00\x00\x00\x00\x00\x00\x00\xf0?\x00\x00\x00\x00\x00\x00\x00\x00\x00\x00\x00\x00\x00\x00\x00\x00\x00\x00\x00\x00\x00\x00\x00\x00\x00\x00\x00\x00\x00\x00\xf0?'
p3298
tp3299
bsg50
g7
sg51
(dp3300
sbsg2759
I00
sg2760
g2761
sg2762
Nsg1916
g2763
sg74
g2764
sg358
g2766
sbsg32
Nsg2774
g2775
sg69
I01
sg2776
g2777
sg72
Nsg2778
F4.0
sg65
I01
sg2779
Nsg76
g2780
sg2781
(I0
tp3301
sg79
I0
sg2783
g2784
sg2785
I0
sg2786
I5
sg80
I01
sg82
Nsg2787
g2732
sg2788
I01
sg83
g298
sg2789
I01
sg2790
F2.01
sg42
Nsg1918
Nsg2791
g2792
sg67
Nsg66
F1.0
sg33
Nsg358
Nsbsg80
I00
sg2793
g0
(g2722
g2
Ntp3302
Rp3303
(dp3304
g6
g7
sg8
I01
sg2726
g2727
sg9
g4
sg2728
g2729
sg2730
Nsg10
Nsg41
Nsg17
g18
sg2731
g2732
sg20
I01
sg2733
Nsg23
Nsg55
g89
(g90
(I0
tp3305
g92
tp3306
Rp3307
(I1
(I2
tp3308
g99
I00
S'\x00\x00\x00\x00\x00\x00\x00\x00\x00\x00\x00\x00\x00\x00\xf0?'
p3309
tp3310
bsg56
g89
(g90
(I0
tp3311
g92
tp3312
Rp3313
(I1
(I2
tp3314
g99
I00
S'\x00\x00\x00\x00\x00\x00\x00\x00\x00\x00\x00\x00\x00\x00\x00\x00'
p3315
tp3316
bsg57
Nsg24
Nsg11
Nsg27
I00
sg2734
Nsg28
I00
sg29
(dp3317
sg2736
Nsg31
I00
sg2737
I00
sg1919
Nsg340
Nsg2738
F0.5
sg2739
g2740
sg2741
Nsg2161
g2162
sg2742
g0
(g2743
g2
Ntp3318
Rp3319
(dp3320
g2742
g2813
sg2747
Nsg2748
Nsg83
g0
(g44
g2
Ntp3321
Rp3322
(dp3323
g48
I1
sg49
Nsg50
g7
sg51
(dp3324
sbsg2759
I00
sg2760
g2761
sg2762
Nsg1916
g2763
sg74
g2764
sg358
g0
(g341
g2
Ntp3325
Rp3326
(dp3327
g345
I00
sg346
Nsg347
g89
(g90
(I0
tp3328
g92
tp3329
Rp3330
(I1
(I0
I2
tp3331
g99
I00
g2825
tp3332
bsg354
I00
sg355
F0.1111111111111111
sg356
I1
sg357
I00
sbsbsg32
Nsg2774
g2775
sg69
I01
sg2776
g2777
sg72
Nsg2778
F0.0
sg65
I01
sg2779
g89
(g90
(I0
tp3333
g92
tp3334
Rp3335
(I1
(I2
I2
tp3336
g99
I00
S'\x00\x00\x00\x00\x00\x00\x00\x00\x00\x00\x00\x00\x00\x00\x00\x00\x00\x00\x00\x00\x00\x00\x00\x00\x00\x00\x00\x00\x00\x00\xf0?'
p3337
tp3338
bsg76
g2833
sg2781
g2834
sg79
I0
sg2783
g2784
sg2785
I0
sg2786
I5
sg80
I01
sg82
F1.0
sg2787
g2732
sg2788
I00
sg83
g298
sg2789
I00
sg42
Nsg1918
Nsg2791
g2835
sg67
g1004
sg66
F0.5
sg33
Nsg358
g0
(g341
g2
Ntp3339
Rp3340
(dp3341
g345
I00
sg346
Nsg347
g3335
sg354
I00
sg355
F0.1111111111111111
sg356
I180
sg357
I00
sbsbsg82
Nsg32
Nsg2839
g0
(g2722
g2
Ntp3342
Rp3343
(dp3344
g6
g7
sg8
I01
sg2726
g2727
sg9
g4
sg2728
g2729
sg2730
Nsg10
Nsg41
Nsg17
g18
sg2731
g2732
sg20
I01
sg2733
Nsg23
Nsg55
Nsg56
Nsg57
Nsg24
Nsg11
Nsg27
I00
sg2734
Nsg28
I00
sg29
(dp3345
sg2736
Nsg31
I00
sg2737
I00
sg1919
Nsg340
Nsg2738
F0.5
sg2739
g2740
sg2741
Nsg2161
g2162
sg2742
g0
(g2743
g2
Ntp3346
Rp3347
(dp3348
g2742
I3
sg2747
Nsg2748
F1.0
sg83
g0
(g104
g2
Ntp3349
Rp3350
(dp3351
g48
I2
sg49
Nsg88
g89
(g90
(I0
tp3352
g92
tp3353
Rp3354
(I1
(I3
I3
tp3355
g99
I00
S'\x00\x00\x00\x00\x00\x00\xf0?\x00\x00\x00\x00\x00\x00\x00\x00\x00\x00\x00\x00\x00\x00\x00\x00\x00\x00\x00\x00\x00\x00\x00\x00\x00\x00\x00\x00\x00\x00\xf0\xbf\x00\x00\x00\x00\x00\x00\x00\x00\x00\x00\x00\x00\x00\x00\x00\x00\x00\x00\x00\x00\x00\x00\x00\x00\x00\x00\x00\x00\x00\x00\xf0?'
p3356
tp3357
bsg50
g7
sg51
(dp3358
sbsg2759
I00
sg2760
g2761
sg2762
Nsg1916
g2763
sg74
g2764
sg358
g2766
sbsg32
Nsg2774
g2775
sg69
I01
sg2776
g2777
sg72
Nsg2778
F4.0
sg65
I01
sg2779
Nsg76
g2857
sg2781
(I0
tp3359
sg79
I0
sg2783
g2784
sg2785
I0
sg2786
I5
sg80
I01
sg82
Nsg2787
g2732
sg2788
I01
sg83
g298
sg2789
I01
sg2790
F2.01
sg42
Nsg1918
Nsg2791
g2859
sg67
Nsg66
F1.0
sg33
Nsg358
Nsbsg83
Nsg2860
I15
sg2861
g2862
sg42
Nsg2161
g2162
sg33
NsbasS'isDefault_majloc'
p3360
I01
sg1926
g0
(g1927
g2
Ntp3361
Rp3362
sg72
Nsg65
I01
sS'_autolabelpos'
p3363
I01
sg57
Nsg79
I0
sS'_lastNumMajorTicks'
p3364
I6
sS'converter'
p3365
Nsg80
I00
sg82
NsS'offset_text_position'
p3366
Vbottom
p3367
sg83
NsS'label_position'
p3368
Vbottom
p3369
sg42
Nsg1918
Nsg2786
I15
sS'minorTicks'
p3370
(lp3371
g0
(g2678
g2
Ntp3372
Rp3373
(dp3374
g6
g7
sg39
F0.5
sg9
g4
sg2682
I01
sg8
I01
sg10
Nsg79
I0
sg41
Nsg2683
F4.0
sg2684
g2162
sg2685
I00
sg2121
F2.0
sg17
g18
sg2686
g2687
sg2637
g0
(g2105
g2
Ntp3375
Rp3376
(dp3377
g6
g7
sg8
I01
sg9
g4
sg10
Nsg2109
g0
(g2110
g2
Ntp3378
Rp3379
(dp3380
g2114
(lp3381
g2116
asg2117
Nsg2118
g2119
sg2120
g2119
sg2121
g2629
sg2122
I400
sg2123
g2119
sbsg41
Nsg17
g18
sg2124
Nsg20
I01
sg23
Nsg55
I0
sg56
I0
sg24
Nsg11
Nsg27
I00
sg28
I00
sg29
(dp3382
sg2126
Nsg31
I00
sg1919
Nsg67
Nsg1918
Nsg2127
Nsg32
Nsg72
Nsg65
I01
sg2128
g2696
sg2130
V
p3383
sg2132
Nsg57
Nsg79
I0
sg2133
Nsg80
I01
sg82
Nsg2134
F1.2
sg83
g368
sg2159
Nsg2160
I00
sg42
Nsg2161
g2162
sg2163
g2698
sg33
Nsbsg20
I01
sg23
Nsg2699
I00
sg24
Nsg11
Nsg2700
I01
sg27
I00
sg28
I00
sg29
(dp3384
sg2702
(I2
I3
tp3385
sg31
I00
sg2704
I2
sg1919
g1973
sg2705
I01
sg67
g1368
sg1918
Nsg2706
g3376
sg2707
g0
(g2105
g2
Ntp3386
Rp3387
(dp3388
g6
g7
sg8
I01
sg9
g4
sg10
Nsg2109
g0
(g2110
g2
Ntp3389
Rp3390
(dp3391
g2114
(lp3392
g2116
asg2117
Nsg2118
g2119
sg2120
g2119
sg2121
g2629
sg2122
I400
sg2123
g2119
sbsg41
Nsg17
g18
sg2124
Nsg20
I01
sg23
Nsg55
I1
sg56
I0
sg24
Nsg11
Nsg27
I00
sg28
I00
sg29
(dp3393
sg2126
Nsg31
I00
sg1919
Nsg67
Nsg1918
Nsg2127
Nsg32
Nsg72
Nsg65
I01
sg2128
g2716
sg2130
V
p3394
sg2132
Nsg57
Nsg79
I0
sg2133
Nsg80
I01
sg82
Nsg2134
F1.2
sg83
g377
sg2159
Nsg2160
I00
sg42
Nsg2161
g2162
sg2163
g2718
sg33
Nsbsg72
Nsg2719
I0
sg65
I01
sg57
Nsg2720
F4.0
sg2721
g0
(g2722
g2
Ntp3395
Rp3396
(dp3397
g6
g7
sg8
I01
sg2726
g2727
sg9
g4
sg2728
g2729
sg2730
Nsg10
Nsg41
Nsg17
g18
sg2731
g2732
sg20
I01
sg2733
Nsg23
Nsg55
Nsg56
Nsg57
Nsg24
Nsg11
Nsg27
I00
sg2734
Nsg28
I00
sg29
(dp3398
sg2736
Nsg31
I00
sg2737
I00
sg1919
Nsg340
Nsg2738
F0.5
sg2739
g2740
sg2741
Nsg2161
g2162
sg2742
g0
(g2743
g2
Ntp3399
Rp3400
(dp3401
g2742
I2
sg2747
Nsg2748
F1.0
sg83
g0
(g104
g2
Ntp3402
Rp3403
(dp3404
g48
I2
sg49
Nsg88
g89
(g90
(I0
tp3405
g92
tp3406
Rp3407
(I1
(I3
I3
tp3408
g99
I00
S'\x00\x00\x00\x00\x00\x00\xf0?\x00\x00\x00\x00\x00\x00\x00\x00\x00\x00\x00\x00\x00\x00\x00\x00\x00\x00\x00\x00\x00\x00\x00\x00\x00\x00\x00\x00\x00\x00\xf0?\x00\x00\x00\x00\x00\x00\x00\x00\x00\x00\x00\x00\x00\x00\x00\x00\x00\x00\x00\x00\x00\x00\x00\x00\x00\x00\x00\x00\x00\x00\xf0?'
p3409
tp3410
bsg50
g7
sg51
(dp3411
sbsg2759
I00
sg2760
g2761
sg2762
Nsg1916
g2763
sg74
g2764
sg358
g2766
sbsg32
Nsg2774
g2775
sg69
I01
sg2776
g2777
sg72
Nsg2778
F2.0
sg65
I01
sg2779
Nsg76
g2780
sg2781
(I0
tp3412
sg79
I0
sg2783
g2784
sg2785
I0
sg2786
I5
sg80
I01
sg82
Nsg2787
g2732
sg2788
I01
sg83
g298
sg2789
I01
sg2790
I2
sg42
Nsg1918
Nsg2791
g2792
sg67
Nsg66
F1.0
sg33
Nsg358
Nsbsg80
I00
sg2793
g0
(g2722
g2
Ntp3413
Rp3414
(dp3415
g6
g7
sg8
I01
sg2726
g2727
sg9
g4
sg2728
g2729
sg2730
Nsg10
Nsg41
Nsg17
g18
sg2731
g2732
sg20
I01
sg2733
Nsg23
Nsg55
g89
(g90
(I0
tp3416
g92
tp3417
Rp3418
(I1
(I2
tp3419
g99
I00
S'\x00\x00\x00\x00\x00\x00\x00\x00\x00\x00\x00\x00\x00\x00\xf0?'
p3420
tp3421
bsg56
g89
(g90
(I0
tp3422
g92
tp3423
Rp3424
(I1
(I2
tp3425
g99
I00
S'\x00\x00\x00\x00\x00\x00\x00\x00\x00\x00\x00\x00\x00\x00\x00\x00'
p3426
tp3427
bsg57
Nsg24
Nsg11
Nsg27
I00
sg2734
Nsg28
I00
sg29
(dp3428
sg2736
Nsg31
I00
sg2737
I00
sg1919
Nsg340
Nsg2738
F0.5
sg2739
g2740
sg2741
Nsg2161
g2162
sg2742
g0
(g2743
g2
Ntp3429
Rp3430
(dp3431
g2742
g2813
sg2747
Nsg2748
Nsg83
g0
(g44
g2
Ntp3432
Rp3433
(dp3434
g48
I1
sg49
Nsg50
g7
sg51
(dp3435
sbsg2759
I00
sg2760
g2761
sg2762
Nsg1916
g2763
sg74
g2764
sg358
g0
(g341
g2
Ntp3436
Rp3437
(dp3438
g345
I00
sg346
Nsg347
g89
(g90
(I0
tp3439
g92
tp3440
Rp3441
(I1
(I0
I2
tp3442
g99
I00
g2825
tp3443
bsg354
I00
sg355
F0.1111111111111111
sg356
I1
sg357
I00
sbsbsg32
Nsg2774
g2775
sg69
I01
sg2776
g2777
sg72
Nsg2778
F0.0
sg65
I01
sg2779
g89
(g90
(I0
tp3444
g92
tp3445
Rp3446
(I1
(I2
I2
tp3447
g99
I00
S'\x00\x00\x00\x00\x00\x00\x00\x00\x00\x00\x00\x00\x00\x00\x00\x00\x00\x00\x00\x00\x00\x00\x00\x00\x00\x00\x00\x00\x00\x00\xf0?'
p3448
tp3449
bsg76
g2833
sg2781
g2834
sg79
I0
sg2783
g2784
sg2785
I0
sg2786
I5
sg80
I01
sg82
F1.0
sg2787
g2732
sg2788
I00
sg83
g298
sg2789
I00
sg42
Nsg1918
Nsg2791
g2835
sg67
g640
sg66
F0.5
sg33
Nsg358
g0
(g341
g2
Ntp3450
Rp3451
(dp3452
g345
I00
sg346
Nsg347
g3446
sg354
I00
sg355
F0.1111111111111111
sg356
I180
sg357
I00
sbsbsg82
Nsg32
Nsg2839
g0
(g2722
g2
Ntp3453
Rp3454
(dp3455
g6
g7
sg8
I01
sg2726
g2727
sg9
g4
sg2728
g2729
sg2730
Nsg10
Nsg41
Nsg17
g18
sg2731
g2732
sg20
I01
sg2733
Nsg23
Nsg55
Nsg56
Nsg57
Nsg24
Nsg11
Nsg27
I00
sg2734
Nsg28
I00
sg29
(dp3456
sg2736
Nsg31
I00
sg2737
I00
sg1919
Nsg340
Nsg2738
F0.5
sg2739
g2740
sg2741
Nsg2161
g2162
sg2742
g0
(g2743
g2
Ntp3457
Rp3458
(dp3459
g2742
I3
sg2747
Nsg2748
F1.0
sg83
g0
(g104
g2
Ntp3460
Rp3461
(dp3462
g48
I2
sg49
Nsg88
g89
(g90
(I0
tp3463
g92
tp3464
Rp3465
(I1
(I3
I3
tp3466
g99
I00
S'\x00\x00\x00\x00\x00\x00\xf0?\x00\x00\x00\x00\x00\x00\x00\x00\x00\x00\x00\x00\x00\x00\x00\x00\x00\x00\x00\x00\x00\x00\x00\x00\x00\x00\x00\x00\x00\x00\xf0\xbf\x00\x00\x00\x00\x00\x00\x00\x00\x00\x00\x00\x00\x00\x00\x00\x00\x00\x00\x00\x00\x00\x00\x00\x00\x00\x00\x00\x00\x00\x00\xf0?'
p3467
tp3468
bsg50
g7
sg51
(dp3469
sbsg2759
I00
sg2760
g2761
sg2762
Nsg1916
g2763
sg74
g2764
sg358
g2766
sbsg32
Nsg2774
g2775
sg69
I01
sg2776
g2777
sg72
Nsg2778
F2.0
sg65
I01
sg2779
Nsg76
g2857
sg2781
(I0
tp3470
sg79
I0
sg2783
g2784
sg2785
I0
sg2786
I5
sg80
I01
sg82
Nsg2787
g2732
sg2788
I01
sg83
g298
sg2789
I01
sg2790
I2
sg42
Nsg1918
Nsg2791
g2859
sg67
Nsg66
F1.0
sg33
Nsg358
Nsbsg83
Nsg2860
g2629
sg2861
g2862
sg42
Nsg2161
g2162
sg33
Nsbag0
(g2678
g2
Ntp3471
Rp3472
(dp3473
g6
g7
sg39
F0.5
sg9
g4
sg2682
I01
sg8
I01
sg10
Nsg79
I0
sg41
Nsg2683
F4.0
sg2684
g2162
sg2685
I00
sg2121
F2.0
sg17
g18
sg2686
g2687
sg2637
g0
(g2105
g2
Ntp3474
Rp3475
(dp3476
g6
g7
sg8
I01
sg9
g4
sg10
Nsg2109
g0
(g2110
g2
Ntp3477
Rp3478
(dp3479
g2114
(lp3480
g2116
asg2117
Nsg2118
g2119
sg2120
g2119
sg2121
g2629
sg2122
I400
sg2123
g2119
sbsg41
Nsg17
g18
sg2124
Nsg20
I01
sg23
Nsg55
I0
sg56
I0
sg24
Nsg11
Nsg27
I00
sg28
I00
sg29
(dp3481
sg2126
Nsg31
I00
sg1919
Nsg67
Nsg1918
Nsg2127
Nsg32
Nsg72
Nsg65
I01
sg2128
g2696
sg2130
V
p3482
sg2132
Nsg57
Nsg79
I0
sg2133
Nsg80
I01
sg82
Nsg2134
F1.2
sg83
g386
sg2159
Nsg2160
I00
sg42
Nsg2161
g2162
sg2163
g2698
sg33
Nsbsg20
I01
sg23
Nsg2699
I00
sg24
Nsg11
Nsg2700
I01
sg27
I00
sg28
I00
sg29
(dp3483
sg2702
(I2
I3
tp3484
sg31
I00
sg2704
I2
sg1919
g1973
sg2705
I01
sg67
g780
sg1918
Nsg2706
g3475
sg2707
g0
(g2105
g2
Ntp3485
Rp3486
(dp3487
g6
g7
sg8
I01
sg9
g4
sg10
Nsg2109
g0
(g2110
g2
Ntp3488
Rp3489
(dp3490
g2114
(lp3491
g2116
asg2117
Nsg2118
g2119
sg2120
g2119
sg2121
g2629
sg2122
I400
sg2123
g2119
sbsg41
Nsg17
g18
sg2124
Nsg20
I01
sg23
Nsg55
I1
sg56
I0
sg24
Nsg11
Nsg27
I00
sg28
I00
sg29
(dp3492
sg2126
Nsg31
I00
sg1919
Nsg67
Nsg1918
Nsg2127
Nsg32
Nsg72
Nsg65
I01
sg2128
g2716
sg2130
V
p3493
sg2132
Nsg57
Nsg79
I0
sg2133
Nsg80
I01
sg82
Nsg2134
F1.2
sg83
g328
sg2159
Nsg2160
I00
sg42
Nsg2161
g2162
sg2163
g2718
sg33
Nsbsg72
Nsg2719
I0
sg65
I01
sg57
Nsg2720
F4.0
sg2721
g0
(g2722
g2
Ntp3494
Rp3495
(dp3496
g6
g7
sg8
I01
sg2726
g2727
sg9
g4
sg2728
g2729
sg2730
Nsg10
Nsg41
Nsg17
g18
sg2731
g2732
sg20
I01
sg2733
Nsg23
Nsg55
Nsg56
Nsg57
Nsg24
Nsg11
Nsg27
I00
sg2734
Nsg28
I00
sg29
(dp3497
sg2736
Nsg31
I00
sg2737
I00
sg1919
Nsg340
Nsg2738
F0.5
sg2739
g2740
sg2741
Nsg2161
g2162
sg2742
g0
(g2743
g2
Ntp3498
Rp3499
(dp3500
g2742
I2
sg2747
Nsg2748
F1.0
sg83
g0
(g104
g2
Ntp3501
Rp3502
(dp3503
g48
I2
sg49
Nsg88
g89
(g90
(I0
tp3504
g92
tp3505
Rp3506
(I1
(I3
I3
tp3507
g99
I00
S'\x00\x00\x00\x00\x00\x00\xf0?\x00\x00\x00\x00\x00\x00\x00\x00\x00\x00\x00\x00\x00\x00\x00\x00\x00\x00\x00\x00\x00\x00\x00\x00\x00\x00\x00\x00\x00\x00\xf0?\x00\x00\x00\x00\x00\x00\x00\x00\x00\x00\x00\x00\x00\x00\x00\x00\x00\x00\x00\x00\x00\x00\x00\x00\x00\x00\x00\x00\x00\x00\xf0?'
p3508
tp3509
bsg50
g7
sg51
(dp3510
sbsg2759
I00
sg2760
g2761
sg2762
Nsg1916
g2763
sg74
g2764
sg358
g2766
sbsg32
Nsg2774
g2775
sg69
I01
sg2776
g2777
sg72
Nsg2778
F2.0
sg65
I01
sg2779
Nsg76
g2780
sg2781
(I0
tp3511
sg79
I0
sg2783
g2784
sg2785
I0
sg2786
I5
sg80
I01
sg82
Nsg2787
g2732
sg2788
I01
sg83
g298
sg2789
I01
sg2790
I2
sg42
Nsg1918
Nsg2791
g2792
sg67
Nsg66
F1.0
sg33
Nsg358
Nsbsg80
I00
sg2793
g0
(g2722
g2
Ntp3512
Rp3513
(dp3514
g6
g7
sg8
I01
sg2726
g2727
sg9
g4
sg2728
g2729
sg2730
Nsg10
Nsg41
Nsg17
g18
sg2731
g2732
sg20
I01
sg2733
Nsg23
Nsg55
g89
(g90
(I0
tp3515
g92
tp3516
Rp3517
(I1
(I2
tp3518
g99
I00
S'\x00\x00\x00\x00\x00\x00\x00\x00\x00\x00\x00\x00\x00\x00\xf0?'
p3519
tp3520
bsg56
g89
(g90
(I0
tp3521
g92
tp3522
Rp3523
(I1
(I2
tp3524
g99
I00
S'\x00\x00\x00\x00\x00\x00\x00\x00\x00\x00\x00\x00\x00\x00\x00\x00'
p3525
tp3526
bsg57
Nsg24
Nsg11
Nsg27
I00
sg2734
Nsg28
I00
sg29
(dp3527
sg2736
Nsg31
I00
sg2737
I00
sg1919
Nsg340
Nsg2738
F0.5
sg2739
g2740
sg2741
Nsg2161
g2162
sg2742
g0
(g2743
g2
Ntp3528
Rp3529
(dp3530
g2742
g2813
sg2747
Nsg2748
Nsg83
g0
(g44
g2
Ntp3531
Rp3532
(dp3533
g48
I1
sg49
Nsg50
g7
sg51
(dp3534
sbsg2759
I00
sg2760
g2761
sg2762
Nsg1916
g2763
sg74
g2764
sg358
g0
(g341
g2
Ntp3535
Rp3536
(dp3537
g345
I00
sg346
Nsg347
g89
(g90
(I0
tp3538
g92
tp3539
Rp3540
(I1
(I0
I2
tp3541
g99
I00
g2825
tp3542
bsg354
I00
sg355
F0.1111111111111111
sg356
I1
sg357
I00
sbsbsg32
Nsg2774
g2775
sg69
I01
sg2776
g2777
sg72
Nsg2778
F0.0
sg65
I01
sg2779
g89
(g90
(I0
tp3543
g92
tp3544
Rp3545
(I1
(I2
I2
tp3546
g99
I00
S'\x00\x00\x00\x00\x00\x00\x00\x00\x00\x00\x00\x00\x00\x00\x00\x00\x00\x00\x00\x00\x00\x00\x00\x00\x00\x00\x00\x00\x00\x00\xf0?'
p3547
tp3548
bsg76
g2833
sg2781
g2834
sg79
I0
sg2783
g2784
sg2785
I0
sg2786
I5
sg80
I01
sg82
F1.0
sg2787
g2732
sg2788
I00
sg83
g298
sg2789
I00
sg42
Nsg1918
Nsg2791
g2835
sg67
g864
sg66
F0.5
sg33
Nsg358
g0
(g341
g2
Ntp3549
Rp3550
(dp3551
g345
I00
sg346
Nsg347
g3545
sg354
I00
sg355
F0.1111111111111111
sg356
I180
sg357
I00
sbsbsg82
Nsg32
Nsg2839
g0
(g2722
g2
Ntp3552
Rp3553
(dp3554
g6
g7
sg8
I01
sg2726
g2727
sg9
g4
sg2728
g2729
sg2730
Nsg10
Nsg41
Nsg17
g18
sg2731
g2732
sg20
I01
sg2733
Nsg23
Nsg55
Nsg56
Nsg57
Nsg24
Nsg11
Nsg27
I00
sg2734
Nsg28
I00
sg29
(dp3555
sg2736
Nsg31
I00
sg2737
I00
sg1919
Nsg340
Nsg2738
F0.5
sg2739
g2740
sg2741
Nsg2161
g2162
sg2742
g0
(g2743
g2
Ntp3556
Rp3557
(dp3558
g2742
I3
sg2747
Nsg2748
F1.0
sg83
g0
(g104
g2
Ntp3559
Rp3560
(dp3561
g48
I2
sg49
Nsg88
g89
(g90
(I0
tp3562
g92
tp3563
Rp3564
(I1
(I3
I3
tp3565
g99
I00
S'\x00\x00\x00\x00\x00\x00\xf0?\x00\x00\x00\x00\x00\x00\x00\x00\x00\x00\x00\x00\x00\x00\x00\x00\x00\x00\x00\x00\x00\x00\x00\x00\x00\x00\x00\x00\x00\x00\xf0\xbf\x00\x00\x00\x00\x00\x00\x00\x00\x00\x00\x00\x00\x00\x00\x00\x00\x00\x00\x00\x00\x00\x00\x00\x00\x00\x00\x00\x00\x00\x00\xf0?'
p3566
tp3567
bsg50
g7
sg51
(dp3568
sbsg2759
I00
sg2760
g2761
sg2762
Nsg1916
g2763
sg74
g2764
sg358
g2766
sbsg32
Nsg2774
g2775
sg69
I01
sg2776
g2777
sg72
Nsg2778
F2.0
sg65
I01
sg2779
Nsg76
g2857
sg2781
(I0
tp3569
sg79
I0
sg2783
g2784
sg2785
I0
sg2786
I5
sg80
I01
sg82
Nsg2787
g2732
sg2788
I01
sg83
g298
sg2789
I01
sg2790
I2
sg42
Nsg1918
Nsg2791
g2859
sg67
Nsg66
F1.0
sg33
Nsg358
Nsbsg83
Nsg2860
g2629
sg2861
g2862
sg42
Nsg2161
g2162
sg33
Nsbasg33
NsS'_minor_tick_kw'
p3570
(dp3571
sS'isDefault_minfmt'
p3572
I01
sbsS'_navigate_mode'
p3573
Nsg33
NsS'transAxes'
p3574
g246
sS'_connected'
p3575
(dp3576
sS'fmt_ydata'
p3577
NsS'dataLim'
p3578
g0
(g121
g2
Ntp3579
Rp3580
(dp3581
g48
I2
sg125
g89
(g90
(I0
tp3582
g92
tp3583
Rp3584
(I1
(I2
tp3585
g99
I00
S'\x00\x00\x00\x00\x00\x80D@\x00\x00\x00\x00\x00\x00\xf0?'
p3586
tp3587
bsg51
(dp3588
sg133
g89
(g90
(I0
tp3589
g92
tp3590
Rp3591
(I1
(I2
I2
tp3592
g99
I00
S'\x00\x00\x00\x00\x00\x00\xf0\x7f\x00\x00\x00\x00\x00\x00\xf0\x7f\x00\x00\x00\x00\x00\x00\xf0\xff\x00\x00\x00\x00\x00\x00\xf0\xff'
p3593
tp3594
bsg140
g89
(g90
(I0
tp3595
g92
tp3596
Rp3597
(I1
(I2
I2
tp3598
g99
I00
S'\x00\x00\x00\x00\x00\x80D@[2\xcd\x1b\x15\x83D@\x00\x00\x00\x00\x00\x80E@\x00\x00\x00\x00\x00\x00\x00@'
p3599
tp3600
bsg147
I01
sg50
g7
sbsS'transData'
p3601
g177
sg32
NsS'_sharey'
p3602
NsS'_sharex'
p3603
NsS'axesPatch'
p3604
g2508
sS'_ymargin'
p3605
F0.0
sS'_axes_locator'
p3606
NsS'numCols'
p3607
I1
sg82
Nsg1930
I00
sS'yaxis'
p3608
g0
(cmatplotlib.axis
YAxis
p3609
g2
Ntp3610
Rp3611
(dp3612
g6
g7
sg2574
g0
(g2575
g2
Ntp3613
Rp3614
(dp3615
g2579
g0
(g2580
g2
Ntp3616
Rp3617
(dp3618
g2584
I00
sg2585
I9
sg2586
(lp3619
I1
aI2
aI5
aI10
asg2588
Nsg2589
I00
sg2590
I01
sg2591
g3611
sbsg2592
g0
(g2593
g2
Ntp3620
Rp3621
(dp3622
g2597
g2598
sg2599
I0
sg2600
I00
sg2601
V$%1.0f$
p3623
sg2603
I00
sg2604
I01
sg2605
g89
(g90
(I0
tp3624
g92
tp3625
Rp3626
(I1
(I6
tp3627
g99
I00
S'\x00\x00\x00\x00\x00\x00\x00\x00\x00\x00\x00\x00\x00\x00\x14@\x00\x00\x00\x00\x00\x00$@\x00\x00\x00\x00\x00\x00.@\x00\x00\x00\x00\x00\x004@\x00\x00\x00\x00\x00\x009@'
p3628
tp3629
bsg2612
I0
sg2159
I01
sg2613
I01
sg2591
g3611
sbsbsg2614
I00
sg2615
g0
(g2616
g2
Ntp3630
Rp3631
sg9
g4
sg8
I01
sg2619
I00
sg10
Nsg41
Nsg2620
I00
sg17
g18
sg20
I01
sg23
Nsg2621
g0
(g2105
g2
Ntp3632
Rp3633
(dp3634
g6
g7
sg8
I01
sg9
g4
sg10
Nsg2109
g0
(g2110
g2
Ntp3635
Rp3636
(dp3637
g2114
(lp3638
g2116
asg2117
Nsg2118
g2119
sg2120
g2119
sg2121
g2629
sg2122
I400
sg2123
g2119
sbsg41
Nsg17
g18
sg2124
Nsg20
I01
sg23
Nsg55
g2009
(g99
S'UUUUU5r@'
p3639
tp3640
Rp3641
sg56
I0
sg24
Nsg11
Nsg27
I00
sg28
I00
sg29
(dp3642
sg2126
Nsg31
I00
sg1919
Nsg67
Nsg1918
Nsg2127
Nsg32
Nsg72
Nsg65
I01
sg2128
Vbaseline
p3643
sg2130
V
p3644
sg2132
Nsg57
Nsg79
I0
sg2133
Nsg80
I01
sg82
Nsg2134
F1.2
sg83
g1030
sg2159
Nsg2160
I00
sg42
Nsg2161
g2162
sg2163
Vleft
p3645
sg33
Nsbsg24
Nsg11
Nsg2637
g0
(g2105
g2
Ntp3646
Rp3647
(dp3648
g6
g7
sg8
I01
sg9
g4
sg10
Nsg2109
g0
(g2110
g2
Ntp3649
Rp3650
(dp3651
g2114
(lp3652
g2116
asg2117
Nsg2118
g2119
sg2120
g2119
sg2121
F18.0
sg2122
I400
sg2123
g2119
sbsg41
Nsg17
g18
sg2124
Nsg20
I01
sg23
Nsg55
F0.5
sg56
g2009
(g99
S'\xbb]^H\xbf{+@'
p3653
tp3654
Rp3655
sg24
Nsg11
Nsg27
I00
sg28
I00
sg29
(dp3656
sg2126
Nsg31
I00
sg1919
Nsg67
Nsg1918
Nsg2127
Vanchor
p3657
sg32
Nsg72
Nsg65
I01
sg2128
Vbottom
p3658
sg2130
V$\u005cmathrm{N}$
p3659
sg2132
Nsg57
Nsg79
I0
sg2133
Vvertical
p3660
sg80
I01
sg82
Nsg2134
F1.2
sg83
g806
sg2159
Nsg2160
I00
sg42
Nsg2161
g2162
sg2163
Vcenter
p3661
sg33
Nsbsg27
I00
sg2652
I01
sg28
I00
sg29
(dp3662
sg2654
Nsg31
I00
sg2655
g0
(g2575
g2
Ntp3663
Rp3664
(dp3665
g2579
g0
(g2659
g2
Ntp3666
Rp3667
(dp3668
g2591
g3611
sbsg2592
g0
(g2663
g2
Ntp3669
Rp3670
(dp3671
g2605
(lp3672
sg2591
g3611
sbsbsg1919
g1973
sg2668
(dp3673
g2670
I15
sg2671
I00
ssg2672
I01
sg67
g1158
sg32
Nsg2673
I00
sg2674
I0
sg2675
F5.0
sg2676
(lp3674
g0
(cmatplotlib.axis
YTick
p3675
g2
Ntp3676
Rp3677
(dp3678
g6
g7
sg39
F0.5
sg9
g4
sg2682
I01
sg8
I01
sg10
Nsg79
I0
sg41
Nsg2683
F4.0
sg2684
g2162
sg2685
I00
sg2121
F15.0
sg17
g18
sg2686
g2687
sg2637
g0
(g2105
g2
Ntp3679
Rp3680
(dp3681
g6
g7
sg8
I01
sg9
g4
sg10
Nsg2109
g0
(g2110
g2
Ntp3682
Rp3683
(dp3684
g2114
(lp3685
g2116
asg2117
Nsg2118
g2119
sg2120
g2119
sg2121
F15.0
sg2122
I400
sg2123
g2119
sbsg41
Nsg17
g18
sg2124
Nsg20
I01
sg23
Nsg55
g2009
(g99
S'\x00\x00\x00\x00\x00\x00\x00\x00'
p3686
tp3687
Rp3688
sg56
I0
sg24
Nsg11
Nsg27
I00
sg28
I00
sg29
(dp3689
sg2126
Nsg31
I00
sg1919
Nsg67
Nsg1918
Nsg2127
Nsg32
Nsg72
Nsg65
I01
sg2128
Vcenter
p3690
sg2130
V$0$
p3691
sg2132
Nsg57
Nsg79
I0
sg2133
Nsg80
I01
sg82
Nsg2134
F1.2
sg83
g1884
sg2159
Nsg2160
I00
sg42
Nsg2161
g2162
sg2163
Vright
p3692
sg33
Nsbsg20
I01
sg23
Nsg2699
I00
sg24
Nsg11
Nsg2700
I01
sg27
I00
sg28
I00
sg29
(dp3693
sg2702
(I1
I0
tp3694
sg31
I00
sg2704
F2.01
sg1919
g1973
sg2705
I01
sg67
g934
sg1918
Nsg2706
g3680
sg2707
g0
(g2105
g2
Ntp3695
Rp3696
(dp3697
g6
g7
sg8
I01
sg9
g4
sg10
Nsg2109
g0
(g2110
g2
Ntp3698
Rp3699
(dp3700
g2114
(lp3701
g2116
asg2117
Nsg2118
g2119
sg2120
g2119
sg2121
F15.0
sg2122
I400
sg2123
g2119
sbsg41
Nsg17
g18
sg2124
Nsg20
I01
sg23
Nsg55
I0
sg56
I1
sg24
Nsg11
Nsg27
I00
sg28
I00
sg29
(dp3702
sg2126
Nsg31
I00
sg1919
Nsg67
Nsg1918
Nsg2127
Nsg32
Nsg72
Nsg65
I01
sg2128
Vcenter
p3703
sg2130
V$0$
p3704
sg2132
Nsg57
Nsg79
I0
sg2133
Nsg80
I01
sg82
Nsg2134
F1.2
sg83
g1875
sg2159
Nsg2160
I00
sg42
Nsg2161
g2162
sg2163
Vleft
p3705
sg33
Nsbsg72
Nsg2719
g3688
sg65
I01
sg57
Nsg2720
F4.0
sg2721
g0
(g2722
g2
Ntp3706
Rp3707
(dp3708
g6
g7
sg8
I01
sg2726
g2727
sg9
g4
sg2728
g2729
sg2730
Nsg10
Nsg41
Nsg17
g18
sg2731
g2732
sg20
I01
sg2733
Nsg23
Nsg55
Nsg56
Nsg57
Nsg24
Nsg11
Nsg27
I00
sg2734
Nsg28
I00
sg29
(dp3709
sg2736
Nsg31
I00
sg2737
I00
sg1919
Nsg340
Nsg2738
F0.5
sg2739
g2740
sg2741
Nsg2161
g2162
sg2742
g0
(g2743
g2
Ntp3710
Rp3711
(dp3712
g2742
I1
sg2747
Nsg2748
F1.0
sg83
g0
(g104
g2
Ntp3713
Rp3714
(dp3715
g48
I2
sg49
Nsg88
g89
(g90
(I0
tp3716
g92
tp3717
Rp3718
(I1
(I3
I3
tp3719
g99
I00
S'\x00\x00\x00\x00\x00\x00\xf0?\x00\x00\x00\x00\x00\x00\x00\x00\x00\x00\x00\x00\x00\x00\x00\x00\x00\x00\x00\x00\x00\x00\x00\x00\x00\x00\x00\x00\x00\x00\xf0?\x00\x00\x00\x00\x00\x00\x00\x00\x00\x00\x00\x00\x00\x00\x00\x00\x00\x00\x00\x00\x00\x00\x00\x00\x00\x00\x00\x00\x00\x00\xf0?'
p3720
tp3721
bsg50
g7
sg51
(dp3722
sbsg2759
I00
sg2760
g2761
sg2762
Nsg1916
g2763
sg74
g2764
sg358
g0
(g341
g2
Ntp3723
Rp3724
(dp3725
g345
I00
sg346
Nsg347
g89
(g90
(I0
tp3726
g92
tp3727
Rp3728
(I1
(I2
I2
tp3729
g99
I00
S'\x00\x00\x00\x00\x00\x00\x00\x00\x00\x00\x00\x00\x00\x00\x00\x00\x00\x00\x00\x00\x00\x00\xf0?\x00\x00\x00\x00\x00\x00\x00\x00'
p3730
tp3731
bsg354
I00
sg355
F0.1111111111111111
sg356
I1
sg357
I00
sbsbsg32
Nsg2774
g2775
sg69
I01
sg2776
g2777
sg72
Nsg2778
F4.0
sg65
I01
sg2779
Nsg76
VNone
p3732
sg2781
(I0
tp3733
sg79
I0
sg2783
g2784
sg2785
I0
sg2786
I5
sg80
I01
sg82
Nsg2787
g2732
sg2788
I01
sg83
g174
sg2789
I01
sg2790
F2.01
sg42
Nsg1918
Nsg2791
(g3688
tp3734
sg67
Nsg66
F1.0
sg33
Nsg358
Nsbsg80
I00
sg2793
g0
(g2722
g2
Ntp3735
Rp3736
(dp3737
g6
g7
sg8
I01
sg2726
g2727
sg9
g4
sg2728
g2729
sg2730
Nsg10
Nsg41
Nsg17
g18
sg2731
g2732
sg20
I01
sg2733
Nsg23
Nsg55
g89
(g90
(I0
tp3738
g92
tp3739
Rp3740
(I1
(I2
tp3741
g99
I00
S'\x00\x00\x00\x00\x00\x00\x00\x00\x00\x00\x00\x00\x00\x00\x00\x00'
p3742
tp3743
bsg56
g89
(g90
(I0
tp3744
g92
tp3745
Rp3746
(I1
(I2
tp3747
g99
I00
S'\x00\x00\x00\x00\x00\x00\x00\x00\x00\x00\x00\x00\x00\x00\xf0?'
p3748
tp3749
bsg57
Nsg24
Nsg11
Nsg27
I00
sg2734
Nsg28
I00
sg29
(dp3750
sg2736
Nsg31
I00
sg2737
I00
sg1919
Nsg340
Nsg2738
F0.5
sg2739
g2740
sg2741
Nsg2161
g2162
sg2742
g0
(g2743
g2
Ntp3751
Rp3752
(dp3753
g2742
g2813
sg2747
Nsg2748
Nsg83
g0
(g44
g2
Ntp3754
Rp3755
(dp3756
g48
I1
sg49
Nsg50
g7
sg51
(dp3757
sbsg2759
I00
sg2760
g2761
sg2762
Nsg1916
g2763
sg74
g2764
sg358
g0
(g341
g2
Ntp3758
Rp3759
(dp3760
g345
I00
sg346
Nsg347
g89
(g90
(I0
tp3761
g92
tp3762
Rp3763
(I1
(I0
I2
tp3764
g99
I00
g2825
tp3765
bsg354
I00
sg355
F0.1111111111111111
sg356
I1
sg357
I00
sbsbsg32
Nsg2774
g2775
sg69
I01
sg2776
g2777
sg72
Nsg2778
F0.0
sg65
I01
sg2779
g89
(g90
(I0
tp3766
g92
tp3767
Rp3768
(I1
(I2
I2
tp3769
g99
I00
S'\x00\x00\x00\x00\x00\x00\x00\x00\x00\x00\x00\x00\x00\x00\x00\x00\x00\x00\x00\x00\x00\x00\xf0?\x00\x00\x00\x00\x00\x00\x00\x00'
p3770
tp3771
bsg76
g2833
sg2781
(I0
I1
tp3772
sg79
I0
sg2783
g2784
sg2785
I0
sg2786
I5
sg80
I01
sg82
F1.0
sg2787
g2732
sg2788
I00
sg83
g174
sg2789
I00
sg42
Nsg1918
Nsg2791
(I0
I0
tp3773
sg67
g1578
sg66
F0.5
sg33
Nsg358
g0
(g341
g2
Ntp3774
Rp3775
(dp3776
g345
I00
sg346
Nsg347
g3768
sg354
I00
sg355
F0.1111111111111111
sg356
I180
sg357
I00
sbsbsg82
Nsg32
Nsg2839
g0
(g2722
g2
Ntp3777
Rp3778
(dp3779
g6
g7
sg8
I01
sg2726
g2727
sg9
g4
sg2728
g2729
sg2730
Nsg10
Nsg41
Nsg17
g18
sg2731
g2732
sg20
I01
sg2733
Nsg23
Nsg55
Nsg56
Nsg57
Nsg24
Nsg11
Nsg27
I00
sg2734
Nsg28
I00
sg29
(dp3780
sg2736
Nsg31
I00
sg2737
I00
sg1919
Nsg340
Nsg2738
F0.5
sg2739
g2740
sg2741
Nsg2161
g2162
sg2742
g0
(g2743
g2
Ntp3781
Rp3782
(dp3783
g2742
I0
sg2747
Nsg2748
F1.0
sg83
g0
(g104
g2
Ntp3784
Rp3785
(dp3786
g48
I2
sg49
Nsg88
g89
(g90
(I0
tp3787
g92
tp3788
Rp3789
(I1
(I3
I3
tp3790
g99
I00
S'\x00\x00\x00\x00\x00\x00\xf0\xbf\x00\x00\x00\x00\x00\x00\x00\x00\x00\x00\x00\x00\x00\x00\x00\x00\x00\x00\x00\x00\x00\x00\x00\x00\x00\x00\x00\x00\x00\x00\xf0?\x00\x00\x00\x00\x00\x00\x00\x00\x00\x00\x00\x00\x00\x00\x00\x00\x00\x00\x00\x00\x00\x00\x00\x00\x00\x00\x00\x00\x00\x00\xf0?'
p3791
tp3792
bsg50
g7
sg51
(dp3793
sbsg2759
I00
sg2760
g2761
sg2762
Nsg1916
g2763
sg74
g2764
sg358
g3724
sbsg32
Nsg2774
g2775
sg69
I01
sg2776
g2777
sg72
Nsg2778
F4.0
sg65
I01
sg2779
Nsg76
VNone
p3794
sg2781
(I1
tp3795
sg79
I0
sg2783
g2784
sg2785
I0
sg2786
I5
sg80
I01
sg82
Nsg2787
g2732
sg2788
I01
sg83
g174
sg2789
I01
sg2790
F2.01
sg42
Nsg1918
Nsg2791
(g3688
tp3796
sg67
Nsg66
F1.0
sg33
Nsg358
Nsbsg83
Nsg2860
g2629
sg2861
Vytick
p3797
sg42
Nsg2161
g2162
sg33
Nsbag0
(g3675
g2
Ntp3798
Rp3799
(dp3800
g6
g7
sg39
F0.5
sg9
g4
sg2682
I01
sg8
I01
sg10
Nsg79
I0
sg41
Nsg2683
F4.0
sg2684
g2162
sg2685
I00
sg2121
F15.0
sg17
g18
sg2686
g2687
sg2637
g0
(g2105
g2
Ntp3801
Rp3802
(dp3803
g6
g7
sg8
I01
sg9
g4
sg10
Nsg2109
g0
(g2110
g2
Ntp3804
Rp3805
(dp3806
g2114
g3685
sg2117
Nsg2118
g2119
sg2120
g2119
sg2121
F15.0
sg2122
I400
sg2123
g2119
sbsg41
Nsg17
g18
sg2124
Nsg20
I01
sg23
Nsg55
g2009
(g99
S'\x00\x00\x00\x00\x00\x00\x14@'
p3807
tp3808
Rp3809
sg56
I0
sg24
Nsg11
Nsg27
I00
sg28
I00
sg29
(dp3810
sg2126
Nsg31
I00
sg1919
Nsg67
Nsg1918
Nsg2127
Nsg32
Nsg72
Nsg65
I01
sg2128
g3690
sg2130
V$5$
p3811
sg2132
Nsg57
Nsg79
I0
sg2133
Nsg80
I01
sg82
Nsg2134
F1.2
sg83
g1884
sg2159
Nsg2160
I00
sg42
Nsg2161
g2162
sg2163
g3692
sg33
Nsbsg20
I01
sg23
Nsg2699
I00
sg24
Nsg11
Nsg2700
I01
sg27
I00
sg28
I00
sg29
(dp3812
sg2702
(I1
I0
tp3813
sg31
I00
sg2704
F2.01
sg1919
g1973
sg2705
I01
sg67
g1648
sg1918
Nsg2706
g3802
sg2707
g0
(g2105
g2
Ntp3814
Rp3815
(dp3816
g6
g7
sg8
I01
sg9
g4
sg10
Nsg2109
g0
(g2110
g2
Ntp3817
Rp3818
(dp3819
g2114
g3701
sg2117
Nsg2118
g2119
sg2120
g2119
sg2121
F15.0
sg2122
I400
sg2123
g2119
sbsg41
Nsg17
g18
sg2124
Nsg20
I01
sg23
Nsg55
I0
sg56
I1
sg24
Nsg11
Nsg27
I00
sg28
I00
sg29
(dp3820
sg2126
Nsg31
I00
sg1919
Nsg67
Nsg1918
Nsg2127
Nsg32
Nsg72
Nsg65
I01
sg2128
g3703
sg2130
V$5$
p3821
sg2132
Nsg57
Nsg79
I0
sg2133
Nsg80
I01
sg82
Nsg2134
F1.2
sg83
g1875
sg2159
Nsg2160
I00
sg42
Nsg2161
g2162
sg2163
g3705
sg33
Nsbsg72
Nsg2719
g3809
sg65
I01
sg57
Nsg2720
F4.0
sg2721
g0
(g2722
g2
Ntp3822
Rp3823
(dp3824
g6
g7
sg8
I01
sg2726
g2727
sg9
g4
sg2728
g2729
sg2730
Nsg10
Nsg41
Nsg17
g18
sg2731
g2732
sg20
I01
sg2733
Nsg23
Nsg55
Nsg56
Nsg57
Nsg24
Nsg11
Nsg27
I00
sg2734
Nsg28
I00
sg29
(dp3825
sg2736
Nsg31
I00
sg2737
I00
sg1919
Nsg340
Nsg2738
F0.5
sg2739
g2740
sg2741
Nsg2161
g2162
sg2742
g0
(g2743
g2
Ntp3826
Rp3827
(dp3828
g2742
I1
sg2747
Nsg2748
F1.0
sg83
g0
(g104
g2
Ntp3829
Rp3830
(dp3831
g48
I2
sg49
Nsg88
g89
(g90
(I0
tp3832
g92
tp3833
Rp3834
(I1
(I3
I3
tp3835
g99
I00
S'\x00\x00\x00\x00\x00\x00\xf0?\x00\x00\x00\x00\x00\x00\x00\x00\x00\x00\x00\x00\x00\x00\x00\x00\x00\x00\x00\x00\x00\x00\x00\x00\x00\x00\x00\x00\x00\x00\xf0?\x00\x00\x00\x00\x00\x00\x00\x00\x00\x00\x00\x00\x00\x00\x00\x00\x00\x00\x00\x00\x00\x00\x00\x00\x00\x00\x00\x00\x00\x00\xf0?'
p3836
tp3837
bsg50
g7
sg51
(dp3838
sbsg2759
I00
sg2760
g2761
sg2762
Nsg1916
g2763
sg74
g2764
sg358
g3724
sbsg32
Nsg2774
g2775
sg69
I01
sg2776
g2777
sg72
Nsg2778
F4.0
sg65
I01
sg2779
Nsg76
g3732
sg2781
g3733
sg79
I0
sg2783
g2784
sg2785
I0
sg2786
I5
sg80
I01
sg82
Nsg2787
g2732
sg2788
I01
sg83
g174
sg2789
I01
sg2790
F2.01
sg42
Nsg1918
Nsg2791
(g3809
tp3839
sg67
Nsg66
F1.0
sg33
Nsg358
Nsbsg80
I00
sg2793
g0
(g2722
g2
Ntp3840
Rp3841
(dp3842
g6
g7
sg8
I01
sg2726
g2727
sg9
g4
sg2728
g2729
sg2730
Nsg10
Nsg41
Nsg17
g18
sg2731
g2732
sg20
I01
sg2733
Nsg23
Nsg55
g89
(g90
(I0
tp3843
g92
tp3844
Rp3845
(I1
(I2
tp3846
g99
I00
S'\x00\x00\x00\x00\x00\x00\x00\x00\x00\x00\x00\x00\x00\x00\x00\x00'
p3847
tp3848
bsg56
g89
(g90
(I0
tp3849
g92
tp3850
Rp3851
(I1
(I2
tp3852
g99
I00
S'\x00\x00\x00\x00\x00\x00\x00\x00\x00\x00\x00\x00\x00\x00\xf0?'
p3853
tp3854
bsg57
Nsg24
Nsg11
Nsg27
I00
sg2734
Nsg28
I00
sg29
(dp3855
sg2736
Nsg31
I00
sg2737
I00
sg1919
Nsg340
Nsg2738
F0.5
sg2739
g2740
sg2741
Nsg2161
g2162
sg2742
g0
(g2743
g2
Ntp3856
Rp3857
(dp3858
g2742
g2813
sg2747
Nsg2748
Nsg83
g0
(g44
g2
Ntp3859
Rp3860
(dp3861
g48
I1
sg49
Nsg50
g7
sg51
(dp3862
sbsg2759
I00
sg2760
g2761
sg2762
Nsg1916
g2763
sg74
g2764
sg358
g0
(g341
g2
Ntp3863
Rp3864
(dp3865
g345
I00
sg346
Nsg347
g89
(g90
(I0
tp3866
g92
tp3867
Rp3868
(I1
(I0
I2
tp3869
g99
I00
g2825
tp3870
bsg354
I00
sg355
F0.1111111111111111
sg356
I1
sg357
I00
sbsbsg32
Nsg2774
g2775
sg69
I01
sg2776
g2777
sg72
Nsg2778
F0.0
sg65
I01
sg2779
g89
(g90
(I0
tp3871
g92
tp3872
Rp3873
(I1
(I2
I2
tp3874
g99
I00
S'\x00\x00\x00\x00\x00\x00\x00\x00\x00\x00\x00\x00\x00\x00\x00\x00\x00\x00\x00\x00\x00\x00\xf0?\x00\x00\x00\x00\x00\x00\x00\x00'
p3875
tp3876
bsg76
g2833
sg2781
g3772
sg79
I0
sg2783
g2784
sg2785
I0
sg2786
I5
sg80
I01
sg82
F1.0
sg2787
g2732
sg2788
I00
sg83
g174
sg2789
I00
sg42
Nsg1918
Nsg2791
g3773
sg67
g1578
sg66
F0.5
sg33
Nsg358
g0
(g341
g2
Ntp3877
Rp3878
(dp3879
g345
I00
sg346
Nsg347
g3873
sg354
I00
sg355
F0.1111111111111111
sg356
I180
sg357
I00
sbsbsg82
Nsg32
Nsg2839
g0
(g2722
g2
Ntp3880
Rp3881
(dp3882
g6
g7
sg8
I01
sg2726
g2727
sg9
g4
sg2728
g2729
sg2730
Nsg10
Nsg41
Nsg17
g18
sg2731
g2732
sg20
I01
sg2733
Nsg23
Nsg55
Nsg56
Nsg57
Nsg24
Nsg11
Nsg27
I00
sg2734
Nsg28
I00
sg29
(dp3883
sg2736
Nsg31
I00
sg2737
I00
sg1919
Nsg340
Nsg2738
F0.5
sg2739
g2740
sg2741
Nsg2161
g2162
sg2742
g0
(g2743
g2
Ntp3884
Rp3885
(dp3886
g2742
I0
sg2747
Nsg2748
F1.0
sg83
g0
(g104
g2
Ntp3887
Rp3888
(dp3889
g48
I2
sg49
Nsg88
g89
(g90
(I0
tp3890
g92
tp3891
Rp3892
(I1
(I3
I3
tp3893
g99
I00
S'\x00\x00\x00\x00\x00\x00\xf0\xbf\x00\x00\x00\x00\x00\x00\x00\x00\x00\x00\x00\x00\x00\x00\x00\x00\x00\x00\x00\x00\x00\x00\x00\x00\x00\x00\x00\x00\x00\x00\xf0?\x00\x00\x00\x00\x00\x00\x00\x00\x00\x00\x00\x00\x00\x00\x00\x00\x00\x00\x00\x00\x00\x00\x00\x00\x00\x00\x00\x00\x00\x00\xf0?'
p3894
tp3895
bsg50
g7
sg51
(dp3896
sbsg2759
I00
sg2760
g2761
sg2762
Nsg1916
g2763
sg74
g2764
sg358
g3724
sbsg32
Nsg2774
g2775
sg69
I01
sg2776
g2777
sg72
Nsg2778
F4.0
sg65
I01
sg2779
Nsg76
g3794
sg2781
g3795
sg79
I0
sg2783
g2784
sg2785
I0
sg2786
I5
sg80
I01
sg82
Nsg2787
g2732
sg2788
I01
sg83
g174
sg2789
I01
sg2790
F2.01
sg42
Nsg1918
Nsg2791
(g3809
tp3897
sg67
Nsg66
F1.0
sg33
Nsg358
Nsbsg83
Nsg2860
g2629
sg2861
g3797
sg42
Nsg2161
g2162
sg33
Nsbag0
(g3675
g2
Ntp3898
Rp3899
(dp3900
g6
g7
sg39
F0.5
sg9
g4
sg2682
I01
sg8
I01
sg10
Nsg79
I0
sg41
Nsg2683
F4.0
sg2684
g2162
sg2685
I00
sg2121
F4.0
sg17
g18
sg2686
g2687
sg2637
g0
(g2105
g2
Ntp3901
Rp3902
(dp3903
g6
g7
sg8
I01
sg9
g4
sg10
Nsg2109
g0
(g2110
g2
Ntp3904
Rp3905
(dp3906
g2114
g3685
sg2117
Nsg2118
g2119
sg2120
g2119
sg2121
F15.0
sg2122
I400
sg2123
g2119
sbsg41
Nsg17
g18
sg2124
Nsg20
I01
sg23
Nsg55
g2009
(g99
S'\x00\x00\x00\x00\x00\x00$@'
p3907
tp3908
Rp3909
sg56
I0
sg24
Nsg11
Nsg27
I00
sg28
I00
sg29
(dp3910
sg2126
Nsg31
I00
sg1919
Nsg67
Nsg1918
Nsg2127
Nsg32
Nsg72
Nsg65
I01
sg2128
g3690
sg2130
V$10$
p3911
sg2132
Nsg57
Nsg79
I0
sg2133
Nsg80
I01
sg82
Nsg2134
F1.2
sg83
g1884
sg2159
Nsg2160
I00
sg42
Nsg2161
g2162
sg2163
g3692
sg33
Nsbsg20
I01
sg23
Nsg2699
I00
sg24
Nsg11
Nsg2700
I01
sg27
I00
sg28
I00
sg29
(dp3912
sg2702
(I1
I0
tp3913
sg31
I00
sg2704
F2.01
sg1919
g1973
sg2705
I01
sg67
Nsg1918
Nsg2706
g3902
sg2707
g0
(g2105
g2
Ntp3914
Rp3915
(dp3916
g6
g7
sg8
I01
sg9
g4
sg10
Nsg2109
g0
(g2110
g2
Ntp3917
Rp3918
(dp3919
g2114
g3701
sg2117
Nsg2118
g2119
sg2120
g2119
sg2121
F15.0
sg2122
I400
sg2123
g2119
sbsg41
Nsg17
g18
sg2124
Nsg20
I01
sg23
Nsg55
I0
sg56
I1
sg24
Nsg11
Nsg27
I00
sg28
I00
sg29
(dp3920
sg2126
Nsg31
I00
sg1919
Nsg67
Nsg1918
Nsg2127
Nsg32
Nsg72
Nsg65
I01
sg2128
g3703
sg2130
V$10$
p3921
sg2132
Nsg57
Nsg79
I0
sg2133
Nsg80
I01
sg82
Nsg2134
F1.2
sg83
g1875
sg2159
Nsg2160
I00
sg42
Nsg2161
g2162
sg2163
g3705
sg33
Nsbsg72
Nsg2719
g3909
sg65
I01
sg57
Nsg2720
F4.0
sg2721
g0
(g2722
g2
Ntp3922
Rp3923
(dp3924
g6
g7
sg8
I01
sg2726
g2727
sg9
g4
sg2728
g2729
sg2730
Nsg10
Nsg41
Nsg17
g18
sg2731
g2732
sg20
I01
sg2733
Nsg23
Nsg55
Nsg56
Nsg57
Nsg24
Nsg11
Nsg27
I00
sg2734
Nsg28
I00
sg29
(dp3925
sg2736
Nsg31
I00
sg2737
I00
sg1919
Nsg340
Nsg2738
F0.5
sg2739
g2740
sg2741
Nsg2161
g2162
sg2742
g0
(g2743
g2
Ntp3926
Rp3927
(dp3928
g2742
I1
sg2747
Nsg2748
F1.0
sg83
g0
(g104
g2
Ntp3929
Rp3930
(dp3931
g48
I2
sg49
Nsg88
g89
(g90
(I0
tp3932
g92
tp3933
Rp3934
(I1
(I3
I3
tp3935
g99
I00
S'\x00\x00\x00\x00\x00\x00\xf0?\x00\x00\x00\x00\x00\x00\x00\x00\x00\x00\x00\x00\x00\x00\x00\x00\x00\x00\x00\x00\x00\x00\x00\x00\x00\x00\x00\x00\x00\x00\xf0?\x00\x00\x00\x00\x00\x00\x00\x00\x00\x00\x00\x00\x00\x00\x00\x00\x00\x00\x00\x00\x00\x00\x00\x00\x00\x00\x00\x00\x00\x00\xf0?'
p3936
tp3937
bsg50
g7
sg51
(dp3938
sbsg2759
I00
sg2760
g2761
sg2762
Nsg1916
g2763
sg74
g2764
sg358
g3724
sbsg32
Nsg2774
g2775
sg69
I01
sg2776
g2777
sg72
Nsg2778
F4.0
sg65
I01
sg2779
Nsg76
g3732
sg2781
g3733
sg79
I0
sg2783
g2784
sg2785
I0
sg2786
I5
sg80
I01
sg82
Nsg2787
g2732
sg2788
I01
sg83
g174
sg2789
I01
sg2790
F2.01
sg42
Nsg1918
Nsg2791
(g3909
tp3939
sg67
Nsg66
F1.0
sg33
Nsg358
Nsbsg80
I00
sg2793
g0
(g2722
g2
Ntp3940
Rp3941
(dp3942
g6
g7
sg8
I01
sg2726
g2727
sg9
g4
sg2728
g2729
sg2730
Nsg10
Nsg41
Nsg17
g18
sg2731
g2732
sg20
I01
sg2733
Nsg23
Nsg55
g89
(g90
(I0
tp3943
g92
tp3944
Rp3945
(I1
(I2
tp3946
g99
I00
S'\x00\x00\x00\x00\x00\x00\x00\x00\x00\x00\x00\x00\x00\x00\x00\x00'
p3947
tp3948
bsg56
g89
(g90
(I0
tp3949
g92
tp3950
Rp3951
(I1
(I2
tp3952
g99
I00
S'\x00\x00\x00\x00\x00\x00\x00\x00\x00\x00\x00\x00\x00\x00\xf0?'
p3953
tp3954
bsg57
Nsg24
Nsg11
Nsg27
I00
sg2734
Nsg28
I00
sg29
(dp3955
sg2736
Nsg31
I00
sg2737
I00
sg1919
Nsg340
Nsg2738
F0.5
sg2739
g2740
sg2741
Nsg2161
g2162
sg2742
g0
(g2743
g2
Ntp3956
Rp3957
(dp3958
g2742
g2813
sg2747
Nsg2748
Nsg83
g0
(g44
g2
Ntp3959
Rp3960
(dp3961
g48
I1
sg49
Nsg50
g7
sg51
(dp3962
sbsg2759
I00
sg2760
g2761
sg2762
Nsg1916
g2763
sg74
g2764
sg358
g0
(g341
g2
Ntp3963
Rp3964
(dp3965
g345
I00
sg346
Nsg347
g89
(g90
(I0
tp3966
g92
tp3967
Rp3968
(I1
(I0
I2
tp3969
g99
I00
g2825
tp3970
bsg354
I00
sg355
F0.1111111111111111
sg356
I1
sg357
I00
sbsbsg32
Nsg2774
g2775
sg69
I01
sg2776
g2777
sg72
Nsg2778
F0.0
sg65
I01
sg2779
g89
(g90
(I0
tp3971
g92
tp3972
Rp3973
(I1
(I2
I2
tp3974
g99
I00
S'\x00\x00\x00\x00\x00\x00\x00\x00\x00\x00\x00\x00\x00\x00\x00\x00\x00\x00\x00\x00\x00\x00\xf0?\x00\x00\x00\x00\x00\x00\x00\x00'
p3975
tp3976
bsg76
g2833
sg2781
g3772
sg79
I0
sg2783
g2784
sg2785
I0
sg2786
I5
sg80
I01
sg82
F1.0
sg2787
g2732
sg2788
I00
sg83
g174
sg2789
I00
sg42
Nsg1918
Nsg2791
g3773
sg67
g1578
sg66
F0.5
sg33
Nsg358
g0
(g341
g2
Ntp3977
Rp3978
(dp3979
g345
I00
sg346
Nsg347
g3973
sg354
I00
sg355
F0.1111111111111111
sg356
I180
sg357
I00
sbsbsg82
Nsg32
Nsg2839
g0
(g2722
g2
Ntp3980
Rp3981
(dp3982
g6
g7
sg8
I01
sg2726
g2727
sg9
g4
sg2728
g2729
sg2730
Nsg10
Nsg41
Nsg17
g18
sg2731
g2732
sg20
I01
sg2733
Nsg23
Nsg55
Nsg56
Nsg57
Nsg24
Nsg11
Nsg27
I00
sg2734
Nsg28
I00
sg29
(dp3983
sg2736
Nsg31
I00
sg2737
I00
sg1919
Nsg340
Nsg2738
F0.5
sg2739
g2740
sg2741
Nsg2161
g2162
sg2742
g0
(g2743
g2
Ntp3984
Rp3985
(dp3986
g2742
I0
sg2747
Nsg2748
F1.0
sg83
g0
(g104
g2
Ntp3987
Rp3988
(dp3989
g48
I2
sg49
Nsg88
g89
(g90
(I0
tp3990
g92
tp3991
Rp3992
(I1
(I3
I3
tp3993
g99
I00
S'\x00\x00\x00\x00\x00\x00\xf0\xbf\x00\x00\x00\x00\x00\x00\x00\x00\x00\x00\x00\x00\x00\x00\x00\x00\x00\x00\x00\x00\x00\x00\x00\x00\x00\x00\x00\x00\x00\x00\xf0?\x00\x00\x00\x00\x00\x00\x00\x00\x00\x00\x00\x00\x00\x00\x00\x00\x00\x00\x00\x00\x00\x00\x00\x00\x00\x00\x00\x00\x00\x00\xf0?'
p3994
tp3995
bsg50
g7
sg51
(dp3996
sbsg2759
I00
sg2760
g2761
sg2762
Nsg1916
g2763
sg74
g2764
sg358
g3724
sbsg32
Nsg2774
g2775
sg69
I01
sg2776
g2777
sg72
Nsg2778
F4.0
sg65
I01
sg2779
Nsg76
g3794
sg2781
g3795
sg79
I0
sg2783
g2784
sg2785
I0
sg2786
I5
sg80
I01
sg82
Nsg2787
g2732
sg2788
I01
sg83
g174
sg2789
I01
sg2790
F2.01
sg42
Nsg1918
Nsg2791
(g3909
tp3997
sg67
Nsg66
F1.0
sg33
Nsg358
Nsbsg83
Nsg2860
I15
sg2861
g3797
sg42
Nsg2161
g2162
sg33
Nsbag0
(g3675
g2
Ntp3998
Rp3999
(dp4000
g6
g7
sg39
F0.5
sg9
g4
sg2682
I01
sg8
I01
sg10
Nsg79
I0
sg41
Nsg2683
F4.0
sg2684
g2162
sg2685
I00
sg2121
F4.0
sg17
g18
sg2686
g2687
sg2637
g0
(g2105
g2
Ntp4001
Rp4002
(dp4003
g6
g7
sg8
I01
sg9
g4
sg10
Nsg2109
g0
(g2110
g2
Ntp4004
Rp4005
(dp4006
g2114
g3685
sg2117
Nsg2118
g2119
sg2120
g2119
sg2121
F15.0
sg2122
I400
sg2123
g2119
sbsg41
Nsg17
g18
sg2124
Nsg20
I01
sg23
Nsg55
g2009
(g99
S'\x00\x00\x00\x00\x00\x00.@'
p4007
tp4008
Rp4009
sg56
I0
sg24
Nsg11
Nsg27
I00
sg28
I00
sg29
(dp4010
sg2126
Nsg31
I00
sg1919
Nsg67
Nsg1918
Nsg2127
Nsg32
Nsg72
Nsg65
I01
sg2128
g3690
sg2130
V$15$
p4011
sg2132
Nsg57
Nsg79
I0
sg2133
Nsg80
I01
sg82
Nsg2134
F1.2
sg83
g1884
sg2159
Nsg2160
I00
sg42
Nsg2161
g2162
sg2163
g3692
sg33
Nsbsg20
I01
sg23
Nsg2699
I00
sg24
Nsg11
Nsg2700
I01
sg27
I00
sg28
I00
sg29
(dp4012
sg2702
(I1
I0
tp4013
sg31
I00
sg2704
F2.01
sg1919
g1973
sg2705
I01
sg67
Nsg1918
Nsg2706
g4002
sg2707
g0
(g2105
g2
Ntp4014
Rp4015
(dp4016
g6
g7
sg8
I01
sg9
g4
sg10
Nsg2109
g0
(g2110
g2
Ntp4017
Rp4018
(dp4019
g2114
g3701
sg2117
Nsg2118
g2119
sg2120
g2119
sg2121
F15.0
sg2122
I400
sg2123
g2119
sbsg41
Nsg17
g18
sg2124
Nsg20
I01
sg23
Nsg55
I0
sg56
I1
sg24
Nsg11
Nsg27
I00
sg28
I00
sg29
(dp4020
sg2126
Nsg31
I00
sg1919
Nsg67
Nsg1918
Nsg2127
Nsg32
Nsg72
Nsg65
I01
sg2128
g3703
sg2130
V$15$
p4021
sg2132
Nsg57
Nsg79
I0
sg2133
Nsg80
I01
sg82
Nsg2134
F1.2
sg83
g1875
sg2159
Nsg2160
I00
sg42
Nsg2161
g2162
sg2163
g3705
sg33
Nsbsg72
Nsg2719
g4009
sg65
I01
sg57
Nsg2720
F4.0
sg2721
g0
(g2722
g2
Ntp4022
Rp4023
(dp4024
g6
g7
sg8
I01
sg2726
g2727
sg9
g4
sg2728
g2729
sg2730
Nsg10
Nsg41
Nsg17
g18
sg2731
g2732
sg20
I01
sg2733
Nsg23
Nsg55
Nsg56
Nsg57
Nsg24
Nsg11
Nsg27
I00
sg2734
Nsg28
I00
sg29
(dp4025
sg2736
Nsg31
I00
sg2737
I00
sg1919
Nsg340
Nsg2738
F0.5
sg2739
g2740
sg2741
Nsg2161
g2162
sg2742
g0
(g2743
g2
Ntp4026
Rp4027
(dp4028
g2742
I1
sg2747
Nsg2748
F1.0
sg83
g0
(g104
g2
Ntp4029
Rp4030
(dp4031
g48
I2
sg49
Nsg88
g89
(g90
(I0
tp4032
g92
tp4033
Rp4034
(I1
(I3
I3
tp4035
g99
I00
S'\x00\x00\x00\x00\x00\x00\xf0?\x00\x00\x00\x00\x00\x00\x00\x00\x00\x00\x00\x00\x00\x00\x00\x00\x00\x00\x00\x00\x00\x00\x00\x00\x00\x00\x00\x00\x00\x00\xf0?\x00\x00\x00\x00\x00\x00\x00\x00\x00\x00\x00\x00\x00\x00\x00\x00\x00\x00\x00\x00\x00\x00\x00\x00\x00\x00\x00\x00\x00\x00\xf0?'
p4036
tp4037
bsg50
g7
sg51
(dp4038
sbsg2759
I00
sg2760
g2761
sg2762
Nsg1916
g2763
sg74
g2764
sg358
g3724
sbsg32
Nsg2774
g2775
sg69
I01
sg2776
g2777
sg72
Nsg2778
F4.0
sg65
I01
sg2779
Nsg76
g3732
sg2781
g3733
sg79
I0
sg2783
g2784
sg2785
I0
sg2786
I5
sg80
I01
sg82
Nsg2787
g2732
sg2788
I01
sg83
g174
sg2789
I01
sg2790
F2.01
sg42
Nsg1918
Nsg2791
(g4009
tp4039
sg67
Nsg66
F1.0
sg33
Nsg358
Nsbsg80
I00
sg2793
g0
(g2722
g2
Ntp4040
Rp4041
(dp4042
g6
g7
sg8
I01
sg2726
g2727
sg9
g4
sg2728
g2729
sg2730
Nsg10
Nsg41
Nsg17
g18
sg2731
g2732
sg20
I01
sg2733
Nsg23
Nsg55
g89
(g90
(I0
tp4043
g92
tp4044
Rp4045
(I1
(I2
tp4046
g99
I00
S'\x00\x00\x00\x00\x00\x00\x00\x00\x00\x00\x00\x00\x00\x00\x00\x00'
p4047
tp4048
bsg56
g89
(g90
(I0
tp4049
g92
tp4050
Rp4051
(I1
(I2
tp4052
g99
I00
S'\x00\x00\x00\x00\x00\x00\x00\x00\x00\x00\x00\x00\x00\x00\xf0?'
p4053
tp4054
bsg57
Nsg24
Nsg11
Nsg27
I00
sg2734
Nsg28
I00
sg29
(dp4055
sg2736
Nsg31
I00
sg2737
I00
sg1919
Nsg340
Nsg2738
F0.5
sg2739
g2740
sg2741
Nsg2161
g2162
sg2742
g0
(g2743
g2
Ntp4056
Rp4057
(dp4058
g2742
g2813
sg2747
Nsg2748
Nsg83
g0
(g44
g2
Ntp4059
Rp4060
(dp4061
g48
I1
sg49
Nsg50
g7
sg51
(dp4062
sbsg2759
I00
sg2760
g2761
sg2762
Nsg1916
g2763
sg74
g2764
sg358
g0
(g341
g2
Ntp4063
Rp4064
(dp4065
g345
I00
sg346
Nsg347
g89
(g90
(I0
tp4066
g92
tp4067
Rp4068
(I1
(I0
I2
tp4069
g99
I00
g2825
tp4070
bsg354
I00
sg355
F0.1111111111111111
sg356
I1
sg357
I00
sbsbsg32
Nsg2774
g2775
sg69
I01
sg2776
g2777
sg72
Nsg2778
F0.0
sg65
I01
sg2779
g89
(g90
(I0
tp4071
g92
tp4072
Rp4073
(I1
(I2
I2
tp4074
g99
I00
S'\x00\x00\x00\x00\x00\x00\x00\x00\x00\x00\x00\x00\x00\x00\x00\x00\x00\x00\x00\x00\x00\x00\xf0?\x00\x00\x00\x00\x00\x00\x00\x00'
p4075
tp4076
bsg76
g2833
sg2781
g3772
sg79
I0
sg2783
g2784
sg2785
I0
sg2786
I5
sg80
I01
sg82
F1.0
sg2787
g2732
sg2788
I00
sg83
g174
sg2789
I00
sg42
Nsg1918
Nsg2791
g3773
sg67
g1578
sg66
F0.5
sg33
Nsg358
g0
(g341
g2
Ntp4077
Rp4078
(dp4079
g345
I00
sg346
Nsg347
g4073
sg354
I00
sg355
F0.1111111111111111
sg356
I180
sg357
I00
sbsbsg82
Nsg32
Nsg2839
g0
(g2722
g2
Ntp4080
Rp4081
(dp4082
g6
g7
sg8
I01
sg2726
g2727
sg9
g4
sg2728
g2729
sg2730
Nsg10
Nsg41
Nsg17
g18
sg2731
g2732
sg20
I01
sg2733
Nsg23
Nsg55
Nsg56
Nsg57
Nsg24
Nsg11
Nsg27
I00
sg2734
Nsg28
I00
sg29
(dp4083
sg2736
Nsg31
I00
sg2737
I00
sg1919
Nsg340
Nsg2738
F0.5
sg2739
g2740
sg2741
Nsg2161
g2162
sg2742
g0
(g2743
g2
Ntp4084
Rp4085
(dp4086
g2742
I0
sg2747
Nsg2748
F1.0
sg83
g0
(g104
g2
Ntp4087
Rp4088
(dp4089
g48
I2
sg49
Nsg88
g89
(g90
(I0
tp4090
g92
tp4091
Rp4092
(I1
(I3
I3
tp4093
g99
I00
S'\x00\x00\x00\x00\x00\x00\xf0\xbf\x00\x00\x00\x00\x00\x00\x00\x00\x00\x00\x00\x00\x00\x00\x00\x00\x00\x00\x00\x00\x00\x00\x00\x00\x00\x00\x00\x00\x00\x00\xf0?\x00\x00\x00\x00\x00\x00\x00\x00\x00\x00\x00\x00\x00\x00\x00\x00\x00\x00\x00\x00\x00\x00\x00\x00\x00\x00\x00\x00\x00\x00\xf0?'
p4094
tp4095
bsg50
g7
sg51
(dp4096
sbsg2759
I00
sg2760
g2761
sg2762
Nsg1916
g2763
sg74
g2764
sg358
g3724
sbsg32
Nsg2774
g2775
sg69
I01
sg2776
g2777
sg72
Nsg2778
F4.0
sg65
I01
sg2779
Nsg76
g3794
sg2781
g3795
sg79
I0
sg2783
g2784
sg2785
I0
sg2786
I5
sg80
I01
sg82
Nsg2787
g2732
sg2788
I01
sg83
g174
sg2789
I01
sg2790
F2.01
sg42
Nsg1918
Nsg2791
(g4009
tp4097
sg67
Nsg66
F1.0
sg33
Nsg358
Nsbsg83
Nsg2860
I15
sg2861
g3797
sg42
Nsg2161
g2162
sg33
Nsbag0
(g3675
g2
Ntp4098
Rp4099
(dp4100
g6
g7
sg39
F0.5
sg9
g4
sg2682
I01
sg8
I01
sg10
Nsg79
I0
sg41
Nsg2683
F4.0
sg2684
g2162
sg2685
I00
sg2121
F4.0
sg17
g18
sg2686
g2687
sg2637
g0
(g2105
g2
Ntp4101
Rp4102
(dp4103
g6
g7
sg8
I01
sg9
g4
sg10
Nsg2109
g0
(g2110
g2
Ntp4104
Rp4105
(dp4106
g2114
g3685
sg2117
Nsg2118
g2119
sg2120
g2119
sg2121
F15.0
sg2122
I400
sg2123
g2119
sbsg41
Nsg17
g18
sg2124
Nsg20
I01
sg23
Nsg55
g2009
(g99
S'\x00\x00\x00\x00\x00\x004@'
p4107
tp4108
Rp4109
sg56
I0
sg24
Nsg11
Nsg27
I00
sg28
I00
sg29
(dp4110
sg2126
Nsg31
I00
sg1919
Nsg67
Nsg1918
Nsg2127
Nsg32
Nsg72
Nsg65
I01
sg2128
g3690
sg2130
V$20$
p4111
sg2132
Nsg57
Nsg79
I0
sg2133
Nsg80
I01
sg82
Nsg2134
F1.2
sg83
g1884
sg2159
Nsg2160
I00
sg42
Nsg2161
g2162
sg2163
g3692
sg33
Nsbsg20
I01
sg23
Nsg2699
I00
sg24
Nsg11
Nsg2700
I01
sg27
I00
sg28
I00
sg29
(dp4112
sg2702
(I1
I0
tp4113
sg31
I00
sg2704
F2.01
sg1919
g1973
sg2705
I01
sg67
Nsg1918
Nsg2706
g4102
sg2707
g0
(g2105
g2
Ntp4114
Rp4115
(dp4116
g6
g7
sg8
I01
sg9
g4
sg10
Nsg2109
g0
(g2110
g2
Ntp4117
Rp4118
(dp4119
g2114
g3701
sg2117
Nsg2118
g2119
sg2120
g2119
sg2121
F15.0
sg2122
I400
sg2123
g2119
sbsg41
Nsg17
g18
sg2124
Nsg20
I01
sg23
Nsg55
I0
sg56
I1
sg24
Nsg11
Nsg27
I00
sg28
I00
sg29
(dp4120
sg2126
Nsg31
I00
sg1919
Nsg67
Nsg1918
Nsg2127
Nsg32
Nsg72
Nsg65
I01
sg2128
g3703
sg2130
V$20$
p4121
sg2132
Nsg57
Nsg79
I0
sg2133
Nsg80
I01
sg82
Nsg2134
F1.2
sg83
g1875
sg2159
Nsg2160
I00
sg42
Nsg2161
g2162
sg2163
g3705
sg33
Nsbsg72
Nsg2719
g4109
sg65
I01
sg57
Nsg2720
F4.0
sg2721
g0
(g2722
g2
Ntp4122
Rp4123
(dp4124
g6
g7
sg8
I01
sg2726
g2727
sg9
g4
sg2728
g2729
sg2730
Nsg10
Nsg41
Nsg17
g18
sg2731
g2732
sg20
I01
sg2733
Nsg23
Nsg55
Nsg56
Nsg57
Nsg24
Nsg11
Nsg27
I00
sg2734
Nsg28
I00
sg29
(dp4125
sg2736
Nsg31
I00
sg2737
I00
sg1919
Nsg340
Nsg2738
F0.5
sg2739
g2740
sg2741
Nsg2161
g2162
sg2742
g0
(g2743
g2
Ntp4126
Rp4127
(dp4128
g2742
I1
sg2747
Nsg2748
F1.0
sg83
g0
(g104
g2
Ntp4129
Rp4130
(dp4131
g48
I2
sg49
Nsg88
g89
(g90
(I0
tp4132
g92
tp4133
Rp4134
(I1
(I3
I3
tp4135
g99
I00
S'\x00\x00\x00\x00\x00\x00\xf0?\x00\x00\x00\x00\x00\x00\x00\x00\x00\x00\x00\x00\x00\x00\x00\x00\x00\x00\x00\x00\x00\x00\x00\x00\x00\x00\x00\x00\x00\x00\xf0?\x00\x00\x00\x00\x00\x00\x00\x00\x00\x00\x00\x00\x00\x00\x00\x00\x00\x00\x00\x00\x00\x00\x00\x00\x00\x00\x00\x00\x00\x00\xf0?'
p4136
tp4137
bsg50
g7
sg51
(dp4138
sbsg2759
I00
sg2760
g2761
sg2762
Nsg1916
g2763
sg74
g2764
sg358
g3724
sbsg32
Nsg2774
g2775
sg69
I01
sg2776
g2777
sg72
Nsg2778
F4.0
sg65
I01
sg2779
Nsg76
g3732
sg2781
g3733
sg79
I0
sg2783
g2784
sg2785
I0
sg2786
I5
sg80
I01
sg82
Nsg2787
g2732
sg2788
I01
sg83
g174
sg2789
I01
sg2790
F2.01
sg42
Nsg1918
Nsg2791
(g4109
tp4139
sg67
Nsg66
F1.0
sg33
Nsg358
Nsbsg80
I00
sg2793
g0
(g2722
g2
Ntp4140
Rp4141
(dp4142
g6
g7
sg8
I01
sg2726
g2727
sg9
g4
sg2728
g2729
sg2730
Nsg10
Nsg41
Nsg17
g18
sg2731
g2732
sg20
I01
sg2733
Nsg23
Nsg55
g89
(g90
(I0
tp4143
g92
tp4144
Rp4145
(I1
(I2
tp4146
g99
I00
S'\x00\x00\x00\x00\x00\x00\x00\x00\x00\x00\x00\x00\x00\x00\x00\x00'
p4147
tp4148
bsg56
g89
(g90
(I0
tp4149
g92
tp4150
Rp4151
(I1
(I2
tp4152
g99
I00
S'\x00\x00\x00\x00\x00\x00\x00\x00\x00\x00\x00\x00\x00\x00\xf0?'
p4153
tp4154
bsg57
Nsg24
Nsg11
Nsg27
I00
sg2734
Nsg28
I00
sg29
(dp4155
sg2736
Nsg31
I00
sg2737
I00
sg1919
Nsg340
Nsg2738
F0.5
sg2739
g2740
sg2741
Nsg2161
g2162
sg2742
g0
(g2743
g2
Ntp4156
Rp4157
(dp4158
g2742
g2813
sg2747
Nsg2748
Nsg83
g0
(g44
g2
Ntp4159
Rp4160
(dp4161
g48
I1
sg49
Nsg50
g7
sg51
(dp4162
sbsg2759
I00
sg2760
g2761
sg2762
Nsg1916
g2763
sg74
g2764
sg358
g0
(g341
g2
Ntp4163
Rp4164
(dp4165
g345
I00
sg346
Nsg347
g89
(g90
(I0
tp4166
g92
tp4167
Rp4168
(I1
(I0
I2
tp4169
g99
I00
g2825
tp4170
bsg354
I00
sg355
F0.1111111111111111
sg356
I1
sg357
I00
sbsbsg32
Nsg2774
g2775
sg69
I01
sg2776
g2777
sg72
Nsg2778
F0.0
sg65
I01
sg2779
g89
(g90
(I0
tp4171
g92
tp4172
Rp4173
(I1
(I2
I2
tp4174
g99
I00
S'\x00\x00\x00\x00\x00\x00\x00\x00\x00\x00\x00\x00\x00\x00\x00\x00\x00\x00\x00\x00\x00\x00\xf0?\x00\x00\x00\x00\x00\x00\x00\x00'
p4175
tp4176
bsg76
g2833
sg2781
g3772
sg79
I0
sg2783
g2784
sg2785
I0
sg2786
I5
sg80
I01
sg82
F1.0
sg2787
g2732
sg2788
I00
sg83
g174
sg2789
I00
sg42
Nsg1918
Nsg2791
g3773
sg67
g1578
sg66
F0.5
sg33
Nsg358
g0
(g341
g2
Ntp4177
Rp4178
(dp4179
g345
I00
sg346
Nsg347
g4173
sg354
I00
sg355
F0.1111111111111111
sg356
I180
sg357
I00
sbsbsg82
Nsg32
Nsg2839
g0
(g2722
g2
Ntp4180
Rp4181
(dp4182
g6
g7
sg8
I01
sg2726
g2727
sg9
g4
sg2728
g2729
sg2730
Nsg10
Nsg41
Nsg17
g18
sg2731
g2732
sg20
I01
sg2733
Nsg23
Nsg55
Nsg56
Nsg57
Nsg24
Nsg11
Nsg27
I00
sg2734
Nsg28
I00
sg29
(dp4183
sg2736
Nsg31
I00
sg2737
I00
sg1919
Nsg340
Nsg2738
F0.5
sg2739
g2740
sg2741
Nsg2161
g2162
sg2742
g0
(g2743
g2
Ntp4184
Rp4185
(dp4186
g2742
I0
sg2747
Nsg2748
F1.0
sg83
g0
(g104
g2
Ntp4187
Rp4188
(dp4189
g48
I2
sg49
Nsg88
g89
(g90
(I0
tp4190
g92
tp4191
Rp4192
(I1
(I3
I3
tp4193
g99
I00
S'\x00\x00\x00\x00\x00\x00\xf0\xbf\x00\x00\x00\x00\x00\x00\x00\x00\x00\x00\x00\x00\x00\x00\x00\x00\x00\x00\x00\x00\x00\x00\x00\x00\x00\x00\x00\x00\x00\x00\xf0?\x00\x00\x00\x00\x00\x00\x00\x00\x00\x00\x00\x00\x00\x00\x00\x00\x00\x00\x00\x00\x00\x00\x00\x00\x00\x00\x00\x00\x00\x00\xf0?'
p4194
tp4195
bsg50
g7
sg51
(dp4196
sbsg2759
I00
sg2760
g2761
sg2762
Nsg1916
g2763
sg74
g2764
sg358
g3724
sbsg32
Nsg2774
g2775
sg69
I01
sg2776
g2777
sg72
Nsg2778
F4.0
sg65
I01
sg2779
Nsg76
g3794
sg2781
g3795
sg79
I0
sg2783
g2784
sg2785
I0
sg2786
I5
sg80
I01
sg82
Nsg2787
g2732
sg2788
I01
sg83
g174
sg2789
I01
sg2790
F2.01
sg42
Nsg1918
Nsg2791
(g4109
tp4197
sg67
Nsg66
F1.0
sg33
Nsg358
Nsbsg83
Nsg2860
I15
sg2861
g3797
sg42
Nsg2161
g2162
sg33
Nsbag0
(g3675
g2
Ntp4198
Rp4199
(dp4200
g6
g7
sg39
F0.5
sg9
g4
sg2682
I01
sg8
I01
sg10
Nsg79
I0
sg41
Nsg2683
F4.0
sg2684
g2162
sg2685
I00
sg2121
F4.0
sg17
g18
sg2686
g2687
sg2637
g0
(g2105
g2
Ntp4201
Rp4202
(dp4203
g6
g7
sg8
I01
sg9
g4
sg10
Nsg2109
g0
(g2110
g2
Ntp4204
Rp4205
(dp4206
g2114
g3685
sg2117
Nsg2118
g2119
sg2120
g2119
sg2121
F15.0
sg2122
I400
sg2123
g2119
sbsg41
Nsg17
g18
sg2124
Nsg20
I01
sg23
Nsg55
I0
sg56
I0
sg24
Nsg11
Nsg27
I00
sg28
I00
sg29
(dp4207
sg2126
Nsg31
I00
sg1919
Nsg67
Nsg1918
Nsg2127
Nsg32
Nsg72
Nsg65
I01
sg2128
g3690
sg2130
V
p4208
sg2132
Nsg57
Nsg79
I0
sg2133
Nsg80
I01
sg82
Nsg2134
F1.2
sg83
g1884
sg2159
Nsg2160
I00
sg42
Nsg2161
g2162
sg2163
g3692
sg33
Nsbsg20
I01
sg23
Nsg2699
I00
sg24
Nsg11
Nsg2700
I01
sg27
I00
sg28
I00
sg29
(dp4209
sg2702
(I1
I0
tp4210
sg31
I00
sg2704
F2.01
sg1919
g1973
sg2705
I01
sg67
Nsg1918
Nsg2706
g4202
sg2707
g0
(g2105
g2
Ntp4211
Rp4212
(dp4213
g6
g7
sg8
I01
sg9
g4
sg10
Nsg2109
g0
(g2110
g2
Ntp4214
Rp4215
(dp4216
g2114
g3701
sg2117
Nsg2118
g2119
sg2120
g2119
sg2121
F15.0
sg2122
I400
sg2123
g2119
sbsg41
Nsg17
g18
sg2124
Nsg20
I01
sg23
Nsg55
I0
sg56
I1
sg24
Nsg11
Nsg27
I00
sg28
I00
sg29
(dp4217
sg2126
Nsg31
I00
sg1919
Nsg67
Nsg1918
Nsg2127
Nsg32
Nsg72
Nsg65
I01
sg2128
g3703
sg2130
V
p4218
sg2132
Nsg57
Nsg79
I0
sg2133
Nsg80
I01
sg82
Nsg2134
F1.2
sg83
g1875
sg2159
Nsg2160
I00
sg42
Nsg2161
g2162
sg2163
g3705
sg33
Nsbsg72
Nsg2719
I0
sg65
I01
sg57
Nsg2720
F4.0
sg2721
g0
(g2722
g2
Ntp4219
Rp4220
(dp4221
g6
g7
sg8
I01
sg2726
g2727
sg9
g4
sg2728
g2729
sg2730
Nsg10
Nsg41
Nsg17
g18
sg2731
g2732
sg20
I01
sg2733
Nsg23
Nsg55
Nsg56
Nsg57
Nsg24
Nsg11
Nsg27
I00
sg2734
Nsg28
I00
sg29
(dp4222
sg2736
Nsg31
I00
sg2737
I00
sg1919
Nsg340
Nsg2738
F0.5
sg2739
g2740
sg2741
Nsg2161
g2162
sg2742
g0
(g2743
g2
Ntp4223
Rp4224
(dp4225
g2742
I1
sg2747
Nsg2748
F1.0
sg83
g0
(g104
g2
Ntp4226
Rp4227
(dp4228
g48
I2
sg49
Nsg88
g89
(g90
(I0
tp4229
g92
tp4230
Rp4231
(I1
(I3
I3
tp4232
g99
I00
S'\x00\x00\x00\x00\x00\x00\xf0?\x00\x00\x00\x00\x00\x00\x00\x00\x00\x00\x00\x00\x00\x00\x00\x00\x00\x00\x00\x00\x00\x00\x00\x00\x00\x00\x00\x00\x00\x00\xf0?\x00\x00\x00\x00\x00\x00\x00\x00\x00\x00\x00\x00\x00\x00\x00\x00\x00\x00\x00\x00\x00\x00\x00\x00\x00\x00\x00\x00\x00\x00\xf0?'
p4233
tp4234
bsg50
g7
sg51
(dp4235
sbsg2759
I00
sg2760
g2761
sg2762
Nsg1916
g2763
sg74
g2764
sg358
g3724
sbsg32
Nsg2774
g2775
sg69
I01
sg2776
g2777
sg72
Nsg2778
F4.0
sg65
I01
sg2779
Nsg76
g3732
sg2781
g3733
sg79
I0
sg2783
g2784
sg2785
I0
sg2786
I5
sg80
I01
sg82
Nsg2787
g2732
sg2788
I01
sg83
g174
sg2789
I01
sg2790
F2.01
sg42
Nsg1918
Nsg2791
(I0
tp4236
sg67
Nsg66
F1.0
sg33
Nsg358
Nsbsg80
I00
sg2793
g0
(g2722
g2
Ntp4237
Rp4238
(dp4239
g6
g7
sg8
I01
sg2726
g2727
sg9
g4
sg2728
g2729
sg2730
Nsg10
Nsg41
Nsg17
g18
sg2731
g2732
sg20
I01
sg2733
Nsg23
Nsg55
g89
(g90
(I0
tp4240
g92
tp4241
Rp4242
(I1
(I2
tp4243
g99
I00
S'\x00\x00\x00\x00\x00\x00\x00\x00\x00\x00\x00\x00\x00\x00\x00\x00'
p4244
tp4245
bsg56
g89
(g90
(I0
tp4246
g92
tp4247
Rp4248
(I1
(I2
tp4249
g99
I00
S'\x00\x00\x00\x00\x00\x00\x00\x00\x00\x00\x00\x00\x00\x00\xf0?'
p4250
tp4251
bsg57
Nsg24
Nsg11
Nsg27
I00
sg2734
Nsg28
I00
sg29
(dp4252
sg2736
Nsg31
I00
sg2737
I00
sg1919
Nsg340
Nsg2738
F0.5
sg2739
g2740
sg2741
Nsg2161
g2162
sg2742
g0
(g2743
g2
Ntp4253
Rp4254
(dp4255
g2742
g2813
sg2747
Nsg2748
Nsg83
g0
(g44
g2
Ntp4256
Rp4257
(dp4258
g48
I1
sg49
Nsg50
g7
sg51
(dp4259
sbsg2759
I00
sg2760
g2761
sg2762
Nsg1916
g2763
sg74
g2764
sg358
g0
(g341
g2
Ntp4260
Rp4261
(dp4262
g345
I00
sg346
Nsg347
g89
(g90
(I0
tp4263
g92
tp4264
Rp4265
(I1
(I0
I2
tp4266
g99
I00
g2825
tp4267
bsg354
I00
sg355
F0.1111111111111111
sg356
I1
sg357
I00
sbsbsg32
Nsg2774
g2775
sg69
I01
sg2776
g2777
sg72
Nsg2778
F0.0
sg65
I01
sg2779
g89
(g90
(I0
tp4268
g92
tp4269
Rp4270
(I1
(I2
I2
tp4271
g99
I00
S'\x00\x00\x00\x00\x00\x00\x00\x00\x00\x00\x00\x00\x00\x00\x00\x00\x00\x00\x00\x00\x00\x00\xf0?\x00\x00\x00\x00\x00\x00\x00\x00'
p4272
tp4273
bsg76
g2833
sg2781
g3772
sg79
I0
sg2783
g2784
sg2785
I0
sg2786
I5
sg80
I01
sg82
F1.0
sg2787
g2732
sg2788
I00
sg83
g174
sg2789
I00
sg42
Nsg1918
Nsg2791
g3773
sg67
g1578
sg66
F0.5
sg33
Nsg358
g0
(g341
g2
Ntp4274
Rp4275
(dp4276
g345
I00
sg346
Nsg347
g4270
sg354
I00
sg355
F0.1111111111111111
sg356
I180
sg357
I00
sbsbsg82
Nsg32
Nsg2839
g0
(g2722
g2
Ntp4277
Rp4278
(dp4279
g6
g7
sg8
I01
sg2726
g2727
sg9
g4
sg2728
g2729
sg2730
Nsg10
Nsg41
Nsg17
g18
sg2731
g2732
sg20
I01
sg2733
Nsg23
Nsg55
Nsg56
Nsg57
Nsg24
Nsg11
Nsg27
I00
sg2734
Nsg28
I00
sg29
(dp4280
sg2736
Nsg31
I00
sg2737
I00
sg1919
Nsg340
Nsg2738
F0.5
sg2739
g2740
sg2741
Nsg2161
g2162
sg2742
g0
(g2743
g2
Ntp4281
Rp4282
(dp4283
g2742
I0
sg2747
Nsg2748
F1.0
sg83
g0
(g104
g2
Ntp4284
Rp4285
(dp4286
g48
I2
sg49
Nsg88
g89
(g90
(I0
tp4287
g92
tp4288
Rp4289
(I1
(I3
I3
tp4290
g99
I00
S'\x00\x00\x00\x00\x00\x00\xf0\xbf\x00\x00\x00\x00\x00\x00\x00\x00\x00\x00\x00\x00\x00\x00\x00\x00\x00\x00\x00\x00\x00\x00\x00\x00\x00\x00\x00\x00\x00\x00\xf0?\x00\x00\x00\x00\x00\x00\x00\x00\x00\x00\x00\x00\x00\x00\x00\x00\x00\x00\x00\x00\x00\x00\x00\x00\x00\x00\x00\x00\x00\x00\xf0?'
p4291
tp4292
bsg50
g7
sg51
(dp4293
sbsg2759
I00
sg2760
g2761
sg2762
Nsg1916
g2763
sg74
g2764
sg358
g3724
sbsg32
Nsg2774
g2775
sg69
I01
sg2776
g2777
sg72
Nsg2778
F4.0
sg65
I01
sg2779
Nsg76
g3794
sg2781
g3795
sg79
I0
sg2783
g2784
sg2785
I0
sg2786
I5
sg80
I01
sg82
Nsg2787
g2732
sg2788
I01
sg83
g174
sg2789
I01
sg2790
F2.01
sg42
Nsg1918
Nsg2791
(I0
tp4294
sg67
Nsg66
F1.0
sg33
Nsg358
Nsbsg83
Nsg2860
I15
sg2861
g3797
sg42
Nsg2161
g2162
sg33
Nsbasg3360
I01
sg1926
g0
(g1927
g2
Ntp4295
Rp4296
sg72
Nsg65
I01
sg3363
I01
sg57
Nsg79
I0
sg3364
I6
sg3365
Nsg80
I00
sg82
Nsg3366
g3645
sg83
Nsg3368
Vleft
p4297
sg42
Nsg1918
Nsg2786
I15
sg3370
(lp4298
g0
(g3675
g2
Ntp4299
Rp4300
(dp4301
g6
g7
sg39
F0.5
sg9
g4
sg2682
I01
sg8
I01
sg10
Nsg79
I0
sg41
Nsg2683
F4.0
sg2684
g2162
sg2685
I00
sg2121
F2.0
sg17
g18
sg2686
g2687
sg2637
g0
(g2105
g2
Ntp4302
Rp4303
(dp4304
g6
g7
sg8
I01
sg9
g4
sg10
Nsg2109
g0
(g2110
g2
Ntp4305
Rp4306
(dp4307
g2114
(lp4308
g2116
asg2117
Nsg2118
g2119
sg2120
g2119
sg2121
g2629
sg2122
I400
sg2123
g2119
sbsg41
Nsg17
g18
sg2124
Nsg20
I01
sg23
Nsg55
I0
sg56
I0
sg24
Nsg11
Nsg27
I00
sg28
I00
sg29
(dp4309
sg2126
Nsg31
I00
sg1919
Nsg67
Nsg1918
Nsg2127
Nsg32
Nsg72
Nsg65
I01
sg2128
g3690
sg2130
V
p4310
sg2132
Nsg57
Nsg79
I0
sg2133
Nsg80
I01
sg82
Nsg2134
F1.2
sg83
g168
sg2159
Nsg2160
I00
sg42
Nsg2161
g2162
sg2163
g3692
sg33
Nsbsg20
I01
sg23
Nsg2699
I00
sg24
Nsg11
Nsg2700
I01
sg27
I00
sg28
I00
sg29
(dp4311
sg2702
(I1
I0
tp4312
sg31
I00
sg2704
I2
sg1919
g1973
sg2705
I01
sg67
g463
sg1918
Nsg2706
g4303
sg2707
g0
(g2105
g2
Ntp4313
Rp4314
(dp4315
g6
g7
sg8
I01
sg9
g4
sg10
Nsg2109
g0
(g2110
g2
Ntp4316
Rp4317
(dp4318
g2114
(lp4319
g2116
asg2117
Nsg2118
g2119
sg2120
g2119
sg2121
g2629
sg2122
I400
sg2123
g2119
sbsg41
Nsg17
g18
sg2124
Nsg20
I01
sg23
Nsg55
I0
sg56
I1
sg24
Nsg11
Nsg27
I00
sg28
I00
sg29
(dp4320
sg2126
Nsg31
I00
sg1919
Nsg67
Nsg1918
Nsg2127
Nsg32
Nsg72
Nsg65
I01
sg2128
g3703
sg2130
V
p4321
sg2132
Nsg57
Nsg79
I0
sg2133
Nsg80
I01
sg82
Nsg2134
F1.2
sg83
g1857
sg2159
Nsg2160
I00
sg42
Nsg2161
g2162
sg2163
g3705
sg33
Nsbsg72
Nsg2719
I0
sg65
I01
sg57
Nsg2720
F4.0
sg2721
g0
(g2722
g2
Ntp4322
Rp4323
(dp4324
g6
g7
sg8
I01
sg2726
g2727
sg9
g4
sg2728
g2729
sg2730
Nsg10
Nsg41
Nsg17
g18
sg2731
g2732
sg20
I01
sg2733
Nsg23
Nsg55
Nsg56
Nsg57
Nsg24
Nsg11
Nsg27
I00
sg2734
Nsg28
I00
sg29
(dp4325
sg2736
Nsg31
I00
sg2737
I00
sg1919
Nsg340
Nsg2738
F0.5
sg2739
g2740
sg2741
Nsg2161
g2162
sg2742
g0
(g2743
g2
Ntp4326
Rp4327
(dp4328
g2742
I1
sg2747
Nsg2748
F1.0
sg83
g0
(g104
g2
Ntp4329
Rp4330
(dp4331
g48
I2
sg49
Nsg88
g89
(g90
(I0
tp4332
g92
tp4333
Rp4334
(I1
(I3
I3
tp4335
g99
I00
S'\x00\x00\x00\x00\x00\x00\xf0?\x00\x00\x00\x00\x00\x00\x00\x00\x00\x00\x00\x00\x00\x00\x00\x00\x00\x00\x00\x00\x00\x00\x00\x00\x00\x00\x00\x00\x00\x00\xf0?\x00\x00\x00\x00\x00\x00\x00\x00\x00\x00\x00\x00\x00\x00\x00\x00\x00\x00\x00\x00\x00\x00\x00\x00\x00\x00\x00\x00\x00\x00\xf0?'
p4336
tp4337
bsg50
g7
sg51
(dp4338
sbsg2759
I00
sg2760
g2761
sg2762
Nsg1916
g2763
sg74
g2764
sg358
g3724
sbsg32
Nsg2774
g2775
sg69
I01
sg2776
g2777
sg72
Nsg2778
F2.0
sg65
I01
sg2779
Nsg76
g3732
sg2781
g3733
sg79
I0
sg2783
g2784
sg2785
I0
sg2786
I5
sg80
I01
sg82
Nsg2787
g2732
sg2788
I01
sg83
g174
sg2789
I01
sg2790
I2
sg42
Nsg1918
Nsg2791
(I0
tp4339
sg67
Nsg66
F1.0
sg33
Nsg358
Nsbsg80
I00
sg2793
g0
(g2722
g2
Ntp4340
Rp4341
(dp4342
g6
g7
sg8
I01
sg2726
g2727
sg9
g4
sg2728
g2729
sg2730
Nsg10
Nsg41
Nsg17
g18
sg2731
g2732
sg20
I01
sg2733
Nsg23
Nsg55
g89
(g90
(I0
tp4343
g92
tp4344
Rp4345
(I1
(I2
tp4346
g99
I00
S'\x00\x00\x00\x00\x00\x00\x00\x00\x00\x00\x00\x00\x00\x00\x00\x00'
p4347
tp4348
bsg56
g89
(g90
(I0
tp4349
g92
tp4350
Rp4351
(I1
(I2
tp4352
g99
I00
S'\x00\x00\x00\x00\x00\x00\x00\x00\x00\x00\x00\x00\x00\x00\xf0?'
p4353
tp4354
bsg57
Nsg24
Nsg11
Nsg27
I00
sg2734
Nsg28
I00
sg29
(dp4355
sg2736
Nsg31
I00
sg2737
I00
sg1919
Nsg340
Nsg2738
F0.5
sg2739
g2740
sg2741
Nsg2161
g2162
sg2742
g0
(g2743
g2
Ntp4356
Rp4357
(dp4358
g2742
g2813
sg2747
Nsg2748
Nsg83
g0
(g44
g2
Ntp4359
Rp4360
(dp4361
g48
I1
sg49
Nsg50
g7
sg51
(dp4362
sbsg2759
I00
sg2760
g2761
sg2762
Nsg1916
g2763
sg74
g2764
sg358
g0
(g341
g2
Ntp4363
Rp4364
(dp4365
g345
I00
sg346
Nsg347
g89
(g90
(I0
tp4366
g92
tp4367
Rp4368
(I1
(I0
I2
tp4369
g99
I00
g2825
tp4370
bsg354
I00
sg355
F0.1111111111111111
sg356
I1
sg357
I00
sbsbsg32
Nsg2774
g2775
sg69
I01
sg2776
g2777
sg72
Nsg2778
F0.0
sg65
I01
sg2779
g89
(g90
(I0
tp4371
g92
tp4372
Rp4373
(I1
(I2
I2
tp4374
g99
I00
S'\x00\x00\x00\x00\x00\x00\x00\x00\x00\x00\x00\x00\x00\x00\x00\x00\x00\x00\x00\x00\x00\x00\xf0?\x00\x00\x00\x00\x00\x00\x00\x00'
p4375
tp4376
bsg76
g2833
sg2781
g3772
sg79
I0
sg2783
g2784
sg2785
I0
sg2786
I5
sg80
I01
sg82
F1.0
sg2787
g2732
sg2788
I00
sg83
g174
sg2789
I00
sg42
Nsg1918
Nsg2791
g3773
sg67
g1438
sg66
F0.5
sg33
Nsg358
g0
(g341
g2
Ntp4377
Rp4378
(dp4379
g345
I00
sg346
Nsg347
g4373
sg354
I00
sg355
F0.1111111111111111
sg356
I180
sg357
I00
sbsbsg82
Nsg32
Nsg2839
g0
(g2722
g2
Ntp4380
Rp4381
(dp4382
g6
g7
sg8
I01
sg2726
g2727
sg9
g4
sg2728
g2729
sg2730
Nsg10
Nsg41
Nsg17
g18
sg2731
g2732
sg20
I01
sg2733
Nsg23
Nsg55
Nsg56
Nsg57
Nsg24
Nsg11
Nsg27
I00
sg2734
Nsg28
I00
sg29
(dp4383
sg2736
Nsg31
I00
sg2737
I00
sg1919
Nsg340
Nsg2738
F0.5
sg2739
g2740
sg2741
Nsg2161
g2162
sg2742
g0
(g2743
g2
Ntp4384
Rp4385
(dp4386
g2742
I0
sg2747
Nsg2748
F1.0
sg83
g0
(g104
g2
Ntp4387
Rp4388
(dp4389
g48
I2
sg49
Nsg88
g89
(g90
(I0
tp4390
g92
tp4391
Rp4392
(I1
(I3
I3
tp4393
g99
I00
S'\x00\x00\x00\x00\x00\x00\xf0\xbf\x00\x00\x00\x00\x00\x00\x00\x00\x00\x00\x00\x00\x00\x00\x00\x00\x00\x00\x00\x00\x00\x00\x00\x00\x00\x00\x00\x00\x00\x00\xf0?\x00\x00\x00\x00\x00\x00\x00\x00\x00\x00\x00\x00\x00\x00\x00\x00\x00\x00\x00\x00\x00\x00\x00\x00\x00\x00\x00\x00\x00\x00\xf0?'
p4394
tp4395
bsg50
g7
sg51
(dp4396
sbsg2759
I00
sg2760
g2761
sg2762
Nsg1916
g2763
sg74
g2764
sg358
g3724
sbsg32
Nsg2774
g2775
sg69
I01
sg2776
g2777
sg72
Nsg2778
F2.0
sg65
I01
sg2779
Nsg76
g3794
sg2781
g3795
sg79
I0
sg2783
g2784
sg2785
I0
sg2786
I5
sg80
I01
sg82
Nsg2787
g2732
sg2788
I01
sg83
g174
sg2789
I01
sg2790
I2
sg42
Nsg1918
Nsg2791
(I0
tp4397
sg67
Nsg66
F1.0
sg33
Nsg358
Nsbsg83
Nsg2860
g2629
sg2861
g3797
sg42
Nsg2161
g2162
sg33
Nsbag0
(g3675
g2
Ntp4398
Rp4399
(dp4400
g6
g7
sg39
F0.5
sg9
g4
sg2682
I01
sg8
I01
sg10
Nsg79
I0
sg41
Nsg2683
F4.0
sg2684
g2162
sg2685
I00
sg2121
F2.0
sg17
g18
sg2686
g2687
sg2637
g0
(g2105
g2
Ntp4401
Rp4402
(dp4403
g6
g7
sg8
I01
sg9
g4
sg10
Nsg2109
g0
(g2110
g2
Ntp4404
Rp4405
(dp4406
g2114
(lp4407
g2116
asg2117
Nsg2118
g2119
sg2120
g2119
sg2121
g2629
sg2122
I400
sg2123
g2119
sbsg41
Nsg17
g18
sg2124
Nsg20
I01
sg23
Nsg55
I0
sg56
I0
sg24
Nsg11
Nsg27
I00
sg28
I00
sg29
(dp4408
sg2126
Nsg31
I00
sg1919
Nsg67
Nsg1918
Nsg2127
Nsg32
Nsg72
Nsg65
I01
sg2128
g3690
sg2130
V
p4409
sg2132
Nsg57
Nsg79
I0
sg2133
Nsg80
I01
sg82
Nsg2134
F1.2
sg83
g1866
sg2159
Nsg2160
I00
sg42
Nsg2161
g2162
sg2163
g3692
sg33
Nsbsg20
I01
sg23
Nsg2699
I00
sg24
Nsg11
Nsg2700
I01
sg27
I00
sg28
I00
sg29
(dp4410
sg2702
(I1
I0
tp4411
sg31
I00
sg2704
I2
sg1919
g1973
sg2705
I01
sg67
g1508
sg1918
Nsg2706
g4402
sg2707
g0
(g2105
g2
Ntp4412
Rp4413
(dp4414
g6
g7
sg8
I01
sg9
g4
sg10
Nsg2109
g0
(g2110
g2
Ntp4415
Rp4416
(dp4417
g2114
(lp4418
g2116
asg2117
Nsg2118
g2119
sg2120
g2119
sg2121
g2629
sg2122
I400
sg2123
g2119
sbsg41
Nsg17
g18
sg2124
Nsg20
I01
sg23
Nsg55
I0
sg56
I1
sg24
Nsg11
Nsg27
I00
sg28
I00
sg29
(dp4419
sg2126
Nsg31
I00
sg1919
Nsg67
Nsg1918
Nsg2127
Nsg32
Nsg72
Nsg65
I01
sg2128
g3703
sg2130
V
p4420
sg2132
Nsg57
Nsg79
I0
sg2133
Nsg80
I01
sg82
Nsg2134
F1.2
sg83
g1899
sg2159
Nsg2160
I00
sg42
Nsg2161
g2162
sg2163
g3705
sg33
Nsbsg72
Nsg2719
I0
sg65
I01
sg57
Nsg2720
F4.0
sg2721
g0
(g2722
g2
Ntp4421
Rp4422
(dp4423
g6
g7
sg8
I01
sg2726
g2727
sg9
g4
sg2728
g2729
sg2730
Nsg10
Nsg41
Nsg17
g18
sg2731
g2732
sg20
I01
sg2733
Nsg23
Nsg55
Nsg56
Nsg57
Nsg24
Nsg11
Nsg27
I00
sg2734
Nsg28
I00
sg29
(dp4424
sg2736
Nsg31
I00
sg2737
I00
sg1919
Nsg340
Nsg2738
F0.5
sg2739
g2740
sg2741
Nsg2161
g2162
sg2742
g0
(g2743
g2
Ntp4425
Rp4426
(dp4427
g2742
I1
sg2747
Nsg2748
F1.0
sg83
g0
(g104
g2
Ntp4428
Rp4429
(dp4430
g48
I2
sg49
Nsg88
g89
(g90
(I0
tp4431
g92
tp4432
Rp4433
(I1
(I3
I3
tp4434
g99
I00
S'\x00\x00\x00\x00\x00\x00\xf0?\x00\x00\x00\x00\x00\x00\x00\x00\x00\x00\x00\x00\x00\x00\x00\x00\x00\x00\x00\x00\x00\x00\x00\x00\x00\x00\x00\x00\x00\x00\xf0?\x00\x00\x00\x00\x00\x00\x00\x00\x00\x00\x00\x00\x00\x00\x00\x00\x00\x00\x00\x00\x00\x00\x00\x00\x00\x00\x00\x00\x00\x00\xf0?'
p4435
tp4436
bsg50
g7
sg51
(dp4437
sbsg2759
I00
sg2760
g2761
sg2762
Nsg1916
g2763
sg74
g2764
sg358
g3724
sbsg32
Nsg2774
g2775
sg69
I01
sg2776
g2777
sg72
Nsg2778
F2.0
sg65
I01
sg2779
Nsg76
g3732
sg2781
g3733
sg79
I0
sg2783
g2784
sg2785
I0
sg2786
I5
sg80
I01
sg82
Nsg2787
g2732
sg2788
I01
sg83
g174
sg2789
I01
sg2790
I2
sg42
Nsg1918
Nsg2791
(I0
tp4438
sg67
Nsg66
F1.0
sg33
Nsg358
Nsbsg80
I00
sg2793
g0
(g2722
g2
Ntp4439
Rp4440
(dp4441
g6
g7
sg8
I01
sg2726
g2727
sg9
g4
sg2728
g2729
sg2730
Nsg10
Nsg41
Nsg17
g18
sg2731
g2732
sg20
I01
sg2733
Nsg23
Nsg55
g89
(g90
(I0
tp4442
g92
tp4443
Rp4444
(I1
(I2
tp4445
g99
I00
S'\x00\x00\x00\x00\x00\x00\x00\x00\x00\x00\x00\x00\x00\x00\x00\x00'
p4446
tp4447
bsg56
g89
(g90
(I0
tp4448
g92
tp4449
Rp4450
(I1
(I2
tp4451
g99
I00
S'\x00\x00\x00\x00\x00\x00\x00\x00\x00\x00\x00\x00\x00\x00\xf0?'
p4452
tp4453
bsg57
Nsg24
Nsg11
Nsg27
I00
sg2734
Nsg28
I00
sg29
(dp4454
sg2736
Nsg31
I00
sg2737
I00
sg1919
Nsg340
Nsg2738
F0.5
sg2739
g2740
sg2741
Nsg2161
g2162
sg2742
g0
(g2743
g2
Ntp4455
Rp4456
(dp4457
g2742
g2813
sg2747
Nsg2748
Nsg83
g0
(g44
g2
Ntp4458
Rp4459
(dp4460
g48
I1
sg49
Nsg50
g7
sg51
(dp4461
sbsg2759
I00
sg2760
g2761
sg2762
Nsg1916
g2763
sg74
g2764
sg358
g0
(g341
g2
Ntp4462
Rp4463
(dp4464
g345
I00
sg346
Nsg347
g89
(g90
(I0
tp4465
g92
tp4466
Rp4467
(I1
(I0
I2
tp4468
g99
I00
g2825
tp4469
bsg354
I00
sg355
F0.1111111111111111
sg356
I1
sg357
I00
sbsbsg32
Nsg2774
g2775
sg69
I01
sg2776
g2777
sg72
Nsg2778
F0.0
sg65
I01
sg2779
g89
(g90
(I0
tp4470
g92
tp4471
Rp4472
(I1
(I2
I2
tp4473
g99
I00
S'\x00\x00\x00\x00\x00\x00\x00\x00\x00\x00\x00\x00\x00\x00\x00\x00\x00\x00\x00\x00\x00\x00\xf0?\x00\x00\x00\x00\x00\x00\x00\x00'
p4474
tp4475
bsg76
g2833
sg2781
g3772
sg79
I0
sg2783
g2784
sg2785
I0
sg2786
I5
sg80
I01
sg82
F1.0
sg2787
g2732
sg2788
I00
sg83
g174
sg2789
I00
sg42
Nsg1918
Nsg2791
g3773
sg67
g710
sg66
F0.5
sg33
Nsg358
g0
(g341
g2
Ntp4476
Rp4477
(dp4478
g345
I00
sg346
Nsg347
g4472
sg354
I00
sg355
F0.1111111111111111
sg356
I180
sg357
I00
sbsbsg82
Nsg32
Nsg2839
g0
(g2722
g2
Ntp4479
Rp4480
(dp4481
g6
g7
sg8
I01
sg2726
g2727
sg9
g4
sg2728
g2729
sg2730
Nsg10
Nsg41
Nsg17
g18
sg2731
g2732
sg20
I01
sg2733
Nsg23
Nsg55
Nsg56
Nsg57
Nsg24
Nsg11
Nsg27
I00
sg2734
Nsg28
I00
sg29
(dp4482
sg2736
Nsg31
I00
sg2737
I00
sg1919
Nsg340
Nsg2738
F0.5
sg2739
g2740
sg2741
Nsg2161
g2162
sg2742
g0
(g2743
g2
Ntp4483
Rp4484
(dp4485
g2742
I0
sg2747
Nsg2748
F1.0
sg83
g0
(g104
g2
Ntp4486
Rp4487
(dp4488
g48
I2
sg49
Nsg88
g89
(g90
(I0
tp4489
g92
tp4490
Rp4491
(I1
(I3
I3
tp4492
g99
I00
S'\x00\x00\x00\x00\x00\x00\xf0\xbf\x00\x00\x00\x00\x00\x00\x00\x00\x00\x00\x00\x00\x00\x00\x00\x00\x00\x00\x00\x00\x00\x00\x00\x00\x00\x00\x00\x00\x00\x00\xf0?\x00\x00\x00\x00\x00\x00\x00\x00\x00\x00\x00\x00\x00\x00\x00\x00\x00\x00\x00\x00\x00\x00\x00\x00\x00\x00\x00\x00\x00\x00\xf0?'
p4493
tp4494
bsg50
g7
sg51
(dp4495
sbsg2759
I00
sg2760
g2761
sg2762
Nsg1916
g2763
sg74
g2764
sg358
g3724
sbsg32
Nsg2774
g2775
sg69
I01
sg2776
g2777
sg72
Nsg2778
F2.0
sg65
I01
sg2779
Nsg76
g3794
sg2781
g3795
sg79
I0
sg2783
g2784
sg2785
I0
sg2786
I5
sg80
I01
sg82
Nsg2787
g2732
sg2788
I01
sg83
g174
sg2789
I01
sg2790
I2
sg42
Nsg1918
Nsg2791
(I0
tp4496
sg67
Nsg66
F1.0
sg33
Nsg358
Nsbsg83
Nsg2860
g2629
sg2861
g3797
sg42
Nsg2161
g2162
sg33
Nsbasg33
Nsg3570
(dp4497
sg3572
I01
sbsS'_axisbelow'
p4498
I00
sg8
I01
sS'lines'
p4499
(lp4500
g0
(g2722
g2
Ntp4501
Rp4502
(dp4503
g6
V_line0
p4504
sg8
I01
sg2785
I0
sg9
g4
sg2728
g2729
sg2730
Nsg10
Nsg41
Nsg17
g18
sg2731
g2732
sg20
I01
sg2788
I00
sg2733
Nsg1984
I2
sg55
g89
(g90
(I0
tp4505
g92
tp4506
Rp4507
(I1
(I2
tp4508
g99
I00
S'\x00\x00\x00\x00\x00\x00\x00\x00\x00\x00\x00\x00\x00\x00\xf0?'
p4509
tp4510
bsg56
g89
(g90
(I0
tp4511
g92
tp4512
Rp4513
(I1
(I2
tp4514
g99
I00
S'\xe9\xfb\xca\xc9\x97\xb4D@\xe9\xfb\xca\xc9\x97\xb4D@'
p4515
tp4516
bsg57
Nsg24
Nsg11
Nsg27
I00
sg2734
Nsg28
I00
sg29
(dp4517
sg2736
Nsg31
I00
sg2737
I00
sg1919
g1973
sg340
g338
sg2738
F0.5
sg2739
g2740
sg2741
Nsg2161
Vk
p4518
sg2742
g0
(g2743
g2
Ntp4519
Rp4520
(dp4521
g2742
g2813
sg2747
Nsg2748
Nsg83
g0
(g44
g2
Ntp4522
Rp4523
(dp4524
g48
I1
sg49
Nsg50
g7
sg51
(dp4525
sbsg2759
I00
sg2760
g2761
sg2762
Nsg1916
g2763
sg74
g2764
sg358
g0
(g341
g2
Ntp4526
Rp4527
(dp4528
g345
I00
sg346
Nsg347
g89
(g90
(I0
tp4529
g92
tp4530
Rp4531
(I1
(I0
I2
tp4532
g99
I00
g2825
tp4533
bsg354
I00
sg355
F0.1111111111111111
sg356
I1
sg357
I00
sbsbsg32
Nsg2774
g2775
sg69
I01
sg2776
g2777
sg72
Nsg65
I01
sg2779
g350
sg76
V:
p4534
sg82
Nsg2781
(lp4535
g2009
(g99
S'\xe9\xfb\xca\xc9\x97\xb4D@'
p4536
tp4537
Rp4538
ag4538
asg79
I0
sg2783
g2784
sg23
Nsg2786
I5
sg80
I01
sg2726
g2727
sg2787
g2732
sg2778
F6.0
sg83
g298
sS'_ycid'
p4539
I2
sg2789
I00
sg42
Nsg1918
Nsg2791
(lp4540
I0
aI1
asg67
g1298
sg66
F1.0
sg33
Nsg358
g360
sbasg4539
I1
sS'spines'
p4541
(dp4542
Vtop
p4543
g0
(cmatplotlib.spines
Spine
p4544
g2
Ntp4545
Rp4546
(dp4547
g6
g7
sg2620
I00
sg40
I01
sg9
g4
sS'_bounds'
p4548
Nsg8
I01
sg10
Nsg41
Nsg17
g18
sg42
Nsg20
I01
sg2591
g2572
sg43
g0
(g44
g2
Ntp4549
Rp4550
(dp4551
g48
I1
sg49
Nsg50
g7
sg51
(dp4552
sbsg53
(F0.0
F0.0
F0.0
F1.0
tp4553
sg23
Nsg57
Nsg24
Nsg11
Nsg27
I00
sg28
I00
sg29
(dp4554
sg2530
(Voutward
p4555
F0.0
tp4556
sg31
I00
sg64
Nsg65
I01
sg66
F1.0
sS'_patch_type'
p4557
Vline
p4558
sg32
Nsg69
I01
sg70
Vnone
p4559
sg72
Nsg73
g2514
sg74
g75
sS'_patch_transform'
p4560
g0
(g44
g2
Ntp4561
Rp4562
(dp4563
g48
I1
sg49
Nsg50
g7
sg51
(dp4564
sbsg76
g77
sg78
g2162
sg79
I0
sS'_spine_transform'
p4565
(Videntity
p4566
g0
(g44
g2
Ntp4567
Rp4568
(dp4569
g48
I1
sg49
Nsg50
g7
sg51
(dp4570
sbtp4571
sg80
I01
sg82
NsS'spine_type'
p4572
g4543
sg83
g298
sg67
Nsg2790
F2.5
sg1916
Vprojecting
p4573
sg1918
Nsg1919
g1973
sg33
Nsg358
g0
(g341
g2
Ntp4574
Rp4575
(dp4576
g345
I00
sg346
Nsg347
g89
(g90
(I0
tp4577
g92
tp4578
Rp4579
(I1
(I2
I2
tp4580
g99
I00
S'\x00\x00\x00\x00\x00\x00*@\x00\x00\x00\x00\x00\x00\xf0?\x00\x00\x00\x00\x00\x00*@\x00\x00\x00\x00\x00\x00\xf0?'
p4581
tp4582
bsg354
I00
sg355
F0.1111111111111111
sg356
I1
sg357
I00
sbsbsVright
p4583
g0
(g4544
g2
Ntp4584
Rp4585
(dp4586
g6
g7
sg2620
I00
sg40
I01
sg9
g4
sg4548
Nsg8
I01
sg10
Nsg41
Nsg17
g18
sg42
Nsg20
I01
sg2591
g3611
sg43
g0
(g44
g2
Ntp4587
Rp4588
(dp4589
g48
I1
sg49
Nsg50
g7
sg51
(dp4590
sbsg53
(F0.0
F0.0
F0.0
F1.0
tp4591
sg23
Nsg57
Nsg24
Nsg11
Nsg27
I00
sg28
I00
sg29
(dp4592
sg2530
g4556
sg31
I00
sg64
Nsg65
I01
sg66
F1.0
sg4557
g4558
sg32
Nsg69
I01
sg70
g4559
sg72
Nsg73
g2514
sg74
g75
sg4560
g0
(g44
g2
Ntp4593
Rp4594
(dp4595
g48
I1
sg49
Nsg50
g7
sg51
(dp4596
sbsg76
g77
sg78
g2162
sg79
I0
sg4565
(g4566
g0
(g44
g2
Ntp4597
Rp4598
(dp4599
g48
I1
sg49
Nsg50
g7
sg51
(dp4600
sbtp4601
sg80
I01
sg82
Nsg4572
g4583
sg83
g174
sg67
Nsg2790
F2.5
sg1916
g4573
sg1918
Nsg1919
g1973
sg33
Nsg358
g0
(g341
g2
Ntp4602
Rp4603
(dp4604
g345
I00
sg346
Nsg347
g89
(g90
(I0
tp4605
g92
tp4606
Rp4607
(I1
(I2
I2
tp4608
g99
I00
S'\x00\x00\x00\x00\x00\x00\xf0?\x00\x00\x00\x00\x00\x00*@\x00\x00\x00\x00\x00\x00\xf0?\x00\x00\x00\x00\x00\x00*@'
p4609
tp4610
bsg354
I00
sg355
F0.1111111111111111
sg356
I1
sg357
I00
sbsbsVbottom
p4611
g0
(g4544
g2
Ntp4612
Rp4613
(dp4614
g6
g7
sg2620
I00
sg40
I01
sg9
g4
sg4548
Nsg8
I01
sg10
Nsg41
Nsg17
g18
sg42
Nsg20
I01
sg2591
g2572
sg43
g0
(g44
g2
Ntp4615
Rp4616
(dp4617
g48
I1
sg49
Nsg50
g7
sg51
(dp4618
sbsg53
(F0.0
F0.0
F0.0
F1.0
tp4619
sg23
Nsg57
Nsg24
Nsg11
Nsg27
I00
sg28
I00
sg29
(dp4620
sg2530
g4556
sg31
I00
sg64
Nsg65
I01
sg66
F1.0
sg4557
g4558
sg32
Nsg69
I01
sg70
g4559
sg72
Nsg73
g2514
sg74
g75
sg4560
g0
(g44
g2
Ntp4621
Rp4622
(dp4623
g48
I1
sg49
Nsg50
g7
sg51
(dp4624
sbsg76
g77
sg78
g2162
sg79
I0
sg4565
(g4566
g0
(g44
g2
Ntp4625
Rp4626
(dp4627
g48
I1
sg49
Nsg50
g7
sg51
(dp4628
sbtp4629
sg80
I01
sg82
Nsg4572
g4611
sg83
g298
sg67
Nsg2790
F2.5
sg1916
g4573
sg1918
Nsg1919
g1973
sg33
Nsg358
g0
(g341
g2
Ntp4630
Rp4631
(dp4632
g345
I00
sg346
Nsg347
g89
(g90
(I0
tp4633
g92
tp4634
Rp4635
(I1
(I2
I2
tp4636
g99
I00
S'\x00\x00\x00\x00\x00\x00*@\x00\x00\x00\x00\x00\x00\x00\x00\x00\x00\x00\x00\x00\x00*@\x00\x00\x00\x00\x00\x00\x00\x00'
p4637
tp4638
bsg354
I00
sg355
F0.1111111111111111
sg356
I1
sg357
I00
sbsbsVleft
p4639
g0
(g4544
g2
Ntp4640
Rp4641
(dp4642
g6
g7
sg2620
I00
sg40
I01
sg9
g4
sg4548
Nsg8
I01
sg10
Nsg41
Nsg17
g18
sg42
Nsg20
I01
sg2591
g3611
sg43
g0
(g44
g2
Ntp4643
Rp4644
(dp4645
g48
I1
sg49
Nsg50
g7
sg51
(dp4646
sbsg53
(F0.0
F0.0
F0.0
F1.0
tp4647
sg23
Nsg57
Nsg24
Nsg11
Nsg27
I00
sg28
I00
sg29
(dp4648
sg2530
g4556
sg31
I00
sg64
Nsg65
I01
sg66
F1.0
sg4557
g4558
sg32
Nsg69
I01
sg70
g4559
sg72
Nsg73
g2514
sg74
g75
sg4560
g0
(g44
g2
Ntp4649
Rp4650
(dp4651
g48
I1
sg49
Nsg50
g7
sg51
(dp4652
sbsg76
g77
sg78
g2162
sg79
I0
sg4565
(g4566
g0
(g44
g2
Ntp4653
Rp4654
(dp4655
g48
I1
sg49
Nsg50
g7
sg51
(dp4656
sbtp4657
sg80
I01
sg82
Nsg4572
g4639
sg83
g174
sg67
Nsg2790
F2.5
sg1916
g4573
sg1918
Nsg1919
g1973
sg33
Nsg358
g0
(g341
g2
Ntp4658
Rp4659
(dp4660
g345
I00
sg346
Nsg347
g89
(g90
(I0
tp4661
g92
tp4662
Rp4663
(I1
(I2
I2
tp4664
g99
I00
S'\x00\x00\x00\x00\x00\x00\x00\x00\x00\x00\x00\x00\x00\x00*@\x00\x00\x00\x00\x00\x00\x00\x00\x00\x00\x00\x00\x00\x00*@'
p4665
tp4666
bsg354
I00
sg355
F0.1111111111111111
sg356
I1
sg357
I00
sbsbssg42
Nsg1918
NsS'_axisbg'
p4667
g2345
sbtp4668
tp4669
asS'_ind'
p4670
I1
sS'_pos'
p4671
I0
sbsg83
Nsg4499
(lp4672
sg2506
g37
sS'subplotpars'
p4673
g0
(cmatplotlib.figure
SubplotParams
p4674
g2
Ntp4675
Rp4676
(dp4677
g1957
g2009
(g99
S'\xcd\xcc\xcc\xcc\xcc\xcc\xee?'
p4678
tp4679
Rp4680
sg1959
g2009
(g99
S'=p\x1b\x89A\xf2\xc6?'
p4681
tp4682
Rp4683
sg1960
g2009
(g99
S'\xcd\xcc\xcc\xcc\xcc\xcc\xee?'
p4684
tp4685
Rp4686
sg1961
F0.2
sS'validate'
p4687
I01
sg1963
F0.2
sg1965
g2009
(g99
S'-\xfa\xd9\xb0;\xbb\xc6?'
p4688
tp4689
Rp4690
sbsg42
Nsg1918
NsS'bbox_inches'
p4691
g123
sS'transFigure'
p4692
g86
sS'_dpi'
p4693
F80.0
sb.