ccopy_reg
_reconstructor
p0
(cmatplotlib.figure
Figure
p1
c__builtin__
object
p2
Ntp3
Rp4
(dp5
S'_label'
p6
V
p7
sS'_visible'
p8
I01
sS'figure'
p9
NsS'stale_callback'
p10
NsS'_rasterized'
p11
NsS'texts'
p12
(lp13
sS'_hold'
p14
I01
sS'artists'
p15
(lp16
sS'_path_effects'
p17
(lp18
sS'frameon'
p19
I01
sS'_clipon'
p20
I01
sV__mpl_version__
p21
S'1.5.1'
p22
sS'_clippath'
p23
NsS'_contains'
p24
NsS'_tight_parameters'
p25
(dp26
sS'_mouseover'
p27
I00
sS'_animated'
p28
I00
sS'_propobservers'
p29
(dp30
sS'eventson'
p31
I00
sS'_picker'
p32
NsS'_remove_method'
p33
NsS'figurePatch'
p34
g0
(cmatplotlib.patches
Rectangle
p35
g2
Ntp36
Rp37
(dp38
g6
g7
sS'_width'
p39
F1.0
sS'_fill'
p40
I01
sg9
g4
sg8
I01
sg10
NsS'_agg_filter'
p41
Nsg17
g18
sS'_gid'
p42
Nsg20
I01
sS'_combined_transform'
p43
g0
(cmatplotlib.transforms
IdentityTransform
p44
g2
Ntp45
Rp46
(dp47
S'_invalid'
p48
I1
sS'_inverted'
p49
NsS'_shorthand_name'
p50
g7
sS'_parents'
p51
(dp52
sbsS'_edgecolor'
p53
(I1
I1
I1
I0
tp54
sg23
NsS'_y'
p55
F0.0
sS'_x'
p56
F0.0
sS'_sketch'
p57
Nsg24
Nsg11
Nsg27
I00
sg28
I00
sg29
(dp58
sS'_rect_transform'
p59
g0
(g44
g2
Ntp60
Rp61
(dp62
g48
I1
sg49
Nsg50
g7
sg51
(dp63
sbsg31
I00
sS'_hatch'
p64
NsS'_stale'
p65
I01
sS'_linewidth'
p66
F0.0
sS'clipbox'
p67
NsS'_height'
p68
F1.0
sg32
NsS'_antialiased'
p69
I00
sS'_original_facecolor'
p70
(I1
I1
I1
I0
tp71
sS'_snap'
p72
NsS'_facecolor'
p73
g71
sS'_joinstyle'
p74
Vmiter
p75
sS'_linestyle'
p76
Vsolid
p77
sS'_original_edgecolor'
p78
g54
sS'_oid'
p79
I0
sS'_transformSet'
p80
I01
sS'_angle'
p81
F0.0
sS'_alpha'
p82
NsS'_transform'
p83
g0
(cmatplotlib.transforms
BboxTransformTo
p84
g2
Ntp85
Rp86
(dp87
g48
I0
sS'_mtx'
p88
cnumpy.core.multiarray
_reconstruct
p89
(cnumpy
ndarray
p90
(I0
tp91
S'b'
p92
tp93
Rp94
(I1
(I3
I3
tp95
cnumpy
dtype
p96
(S'f8'
p97
I0
I1
tp98
Rp99
(I3
S'<'
p100
NNNI-1
I-1
I0
tp101
bI00
S'\x00\x00\x00\x00\x00\x00t@\x00\x00\x00\x00\x00\x00\x00\x00\x00\x00\x00\x00\x00\x00\x00\x00\x00\x00\x00\x00\x00\x00\x00\x00\x00\x00\x00\x00\x00\x00t@\x00\x00\x00\x00\x00\x00\x00\x00\x00\x00\x00\x00\x00\x00\x00\x00\x00\x00\x00\x00\x00\x00\x00\x00\x00\x00\x00\x00\x00\x00\xf0?'
p102
tp103
bsg49
g0
(cmatplotlib.transforms
Affine2D
p104
g2
Ntp105
Rp106
(dp107
g48
I0
sg49
Nsg88
g89
(g90
(I0
tp108
g92
tp109
Rp110
(I1
(I3
I3
tp111
g99
I00
S'\x9a\x99\x99\x99\x99\x99i?\x00\x00\x00\x00\x00\x00\x00\x00\x00\x00\x00\x00\x00\x00\x00\x00\x00\x00\x00\x00\x00\x00\x00\x00\x9a\x99\x99\x99\x99\x99i?\x00\x00\x00\x00\x00\x00\x00\x00\x00\x00\x00\x00\x00\x00\x00\x00\x00\x00\x00\x00\x00\x00\x00\x00\x00\x00\x00\x00\x00\x00\xf0?'
p112
tp113
bsg50
g7
sg51
(dp114
sbsS'_boxout'
p115
g0
(cmatplotlib.transforms
TransformedBbox
p116
g2
Ntp117
Rp118
(dp119
g48
I0
sS'_bbox'
p120
g0
(cmatplotlib.transforms
Bbox
p121
g2
Ntp122
Rp123
(dp124
g48
I0
sS'_minpos'
p125
g89
(g90
(I0
tp126
g92
tp127
Rp128
(I1
(I2
tp129
g99
I00
S'H\xaf\xbc\x9a\xf2\xd7z>H\xaf\xbc\x9a\xf2\xd7z>'
p130
tp131
bsg51
(dp132
I4945367824
g118
ssS'_points_orig'
p133
g89
(g90
(I0
tp134
g92
tp135
Rp136
(I1
(I2
I2
tp137
g99
I00
S'\x00\x00\x00\x00\x00\x00\x00\x00\x00\x00\x00\x00\x00\x00\x00\x00\x00\x00\x00\x00\x00\x00\x10@\x00\x00\x00\x00\x00\x00\x10@'
p138
tp139
bsS'_points'
p140
g89
(g90
(I0
tp141
g92
tp142
Rp143
(I1
(I2
I2
tp144
g99
I00
S'\x00\x00\x00\x00\x00\x00\x00\x00\x00\x00\x00\x00\x00\x00\x00\x00\x00\x00\x00\x00\x00\x00\x10@\x00\x00\x00\x00\x00\x00\x10@'
p145
tp146
bsS'_ignore'
p147
I01
sg50
g7
sbsg83
g0
(g104
g2
Ntp148
Rp149
(dp150
g48
I0
sg49
Nsg88
g89
(g90
(I0
tp151
g92
tp152
Rp153
(I1
(I3
I3
tp154
g99
I00
S'\x00\x00\x00\x00\x00\x00T@\x00\x00\x00\x00\x00\x00\x00\x00\x00\x00\x00\x00\x00\x00\x00\x00\x00\x00\x00\x00\x00\x00\x00\x00\x00\x00\x00\x00\x00\x00T@\x00\x00\x00\x00\x00\x00\x00\x00\x00\x00\x00\x00\x00\x00\x00\x00\x00\x00\x00\x00\x00\x00\x00\x00\x00\x00\x00\x00\x00\x00\xf0?'
p155
tp156
bsg50
g7
sg51
(dp157
I4713311120
g0
(cmatplotlib.transforms
ScaledTranslation
p158
g2
Ntp159
Rp160
(dp161
g48
I0
sg88
g89
(g90
(I0
tp162
g92
tp163
Rp164
(I1
(I3
I3
tp165
g99
I00
S'\x00\x00\x00\x00\x00\x00\xf0?\x00\x00\x00\x00\x00\x00\x00\x00\x00\x00\x00\x00\x00\x00\x00\x00\x00\x00\x00\x00\x00\x00\x00\x00\x00\x00\x00\x00\x00\x00\xf0?\x8e\xe38\x8e\xe38\x16@\x00\x00\x00\x00\x00\x00\x00\x00\x00\x00\x00\x00\x00\x00\x00\x00\x00\x00\x00\x00\x00\x00\xf0?'
p166
tp167
bsS'_scale_trans'
p168
g149
sg49
NsS'_t'
p169
(F0.0
F0.06944444444444445
tp170
sg50
g7
sg51
(dp171
I4713311568
g0
(cmatplotlib.transforms
CompositeGenericTransform
p172
g2
Ntp173
Rp174
(dp175
g48
I2
sS'input_dims'
p176
I2
sS'_a'
p177
g0
(g84
g2
Ntp178
Rp179
(dp180
g48
I2
sg88
g89
(g90
(I0
tp181
g92
tp182
Rp183
(I1
(I3
I3
tp184
g99
I00
S'\x00\x00\x00\x00\x00\x00o@\x00\x00\x00\x00\x00\x00\x00\x00\x00\x00\x00\x00\x00\x00D@\x00\x00\x00\x00\x00\x00\x00\x00\x00\x00\x00\x00\x00\x00o@\x00\x00\x00\x00\x00\x00D@\x00\x00\x00\x00\x00\x00\x00\x00\x00\x00\x00\x00\x00\x00\x00\x00\x00\x00\x00\x00\x00\x00\xf0?'
p185
tp186
bsg49
g0
(g104
g2
Ntp187
Rp188
(dp189
g48
I0
sg49
Nsg88
g89
(g90
(I0
tp190
g92
tp191
Rp192
(I1
(I3
I3
tp193
g99
I00
S'\x84\x10B\x08!\x84p?\x00\x00\x00\x00\x00\x00\x00\x00\xa5\x94RJ)\xa5\xc4\xbf\x00\x00\x00\x00\x00\x00\x00\x00\x84\x10B\x08!\x84p?\xa5\x94RJ)\xa5\xc4\xbf\x00\x00\x00\x00\x00\x00\x00\x00\x00\x00\x00\x00\x00\x00\x00\x00\x00\x00\x00\x00\x00\x00\xf0?'
p194
tp195
bsg50
g7
sg51
(dp196
sbsg115
g0
(g116
g2
Ntp197
Rp198
(dp199
g48
I2
sg120
g0
(g121
g2
Ntp200
Rp201
(dp202
g48
I2
sg125
g89
(g90
(I0
tp203
g92
tp204
Rp205
(I1
(I2
tp206
g99
I00
S'H\xaf\xbc\x9a\xf2\xd7z>H\xaf\xbc\x9a\xf2\xd7z>'
p207
tp208
bsg51
(dp209
I4945369936
g198
ssg133
g89
(g90
(I0
tp210
g92
tp211
Rp212
(I1
(I2
I2
tp213
g99
I00
S'\x00\x00\x00\x00\x00\x00\xc0?\x00\x00\x00\x00\x00\x00\xc0?\xcd\xcc\xcc\xcc\xcc\xcc\xec?\xcd\xcc\xcc\xcc\xcc\xcc\xec?'
p214
tp215
bsg140
g89
(g90
(I0
tp216
g92
tp217
Rp218
(I1
(I2
I2
tp219
g99
I00
S'Q\x8e8GM~\xc5? B\xfdD\x1a.\xc5?\xf2[\x02\x95\xb1\xfc\xed?x\xc5I\xf5\xb7\x06\xee?'
p220
tp221
bsg147
I01
sg50
g7
sbsg83
g86
sg140
g89
(g90
(I0
tp222
g92
tp223
Rp224
(I1
(I2
I2
tp225
g99
I00
S'\x00\x00\x00\x00\x00\x00D@\x00\x00\x00\x00\x00\x00D@\x00\x00\x00\x00\x00\x00r@\x00\x00\x00\x00\x00\x00r@'
p226
tp227
bsg51
(dp228
I4945370256
g179
ssg50
g7
sbsg51
(dp229
I4945421200
g0
(g172
g2
Ntp230
Rp231
(dp232
g48
I2
sg176
I2
sg177
g0
(g172
g2
Ntp233
Rp234
(dp235
g48
I1
sg176
I2
sg177
g0
(g84
g2
Ntp236
Rp237
(dp238
g48
I1
sg88
Nsg49
Nsg115
g0
(g121
g2
Ntp239
Rp240
(dp241
g48
I1
sg125
g89
(g90
(I0
tp242
g92
tp243
Rp244
(I1
(I2
tp245
g99
I00
S'H\xaf\xbc\x9a\xf2\xd7z>H\xaf\xbc\x9a\xf2\xd7z>'
p246
tp247
bsg51
(dp248
I4713345936
g237
ssg133
g89
(g90
(I0
tp249
g92
tp250
Rp251
(I1
(I2
I2
tp252
g99
I00
S'\x00\x00\x00\x00\x00\x00\x00\x00\x00\x00\x00\x00\x00\x00\x00\x00\x00\x00\x00\x00\x00\x00\xf0?\x00\x00\x00\x00\x00\x00\xf0?'
p253
tp254
bsg140
g89
(g90
(I0
tp255
g92
tp256
Rp257
(I1
(I2
I2
tp258
g99
I00
S'\x00\x00\x00\x00\x00\x00\x00\x00\x00\x00\x00\x00\x00\x00\x00\x00\x00\x00\x00\x00\x00\x00\xf0?\x00\x00\x00\x00\x00\x00\xf0?'
p259
tp260
bsg147
I01
sg50
g7
sbsg51
(dp261
I4713346320
g234
ssg50
g7
sbsS'output_dims'
p262
I2
sS'_b'
p263
g0
(g104
g2
Ntp264
Rp265
(dp266
g48
I2
sg49
Nsg88
g89
(g90
(I0
tp267
g92
tp268
Rp269
(I1
(I3
I3
tp270
g99
I00
S'\x00\x00\x00\x00\x00\x00\xf0?\x00\x00\x00\x00\x00\x00\x00\x00\x00\x00\x00\x00\x00\x00\x00\x00\x00\x00\x00\x00\x00\x00\x00\x00\x00\x00\x00\x00\x00\x00\xf0?\x00\x00\x00\x00\x00\x00\x00\x00\x00\x00\x00\x00\x00\x00\x00\x00\x00\x00\x00\x00\x00\x00\x00\x00\x00\x00\x00\x00\x00\x00\xf0?'
p271
tp272
bsg50
g7
sg51
(dp273
I4713346320
g234
ssbsg51
(dp274
I4945421200
g231
ssg50
g7
sbsg262
I2
sg263
g179
sg51
(dp275
I4945421264
g0
(g116
g2
Ntp276
Rp277
(dp278
g48
I2
sg120
g0
(g121
g2
Ntp279
Rp280
(dp281
g48
I1
sg125
g89
(g90
(I0
tp282
g92
tp283
Rp284
(I1
(I2
tp285
g99
I00
S'H\xaf\xbc\x9a\xf2\xd7z>H\xaf\xbc\x9a\xf2\xd7z>'
p286
tp287
bsg51
(dp288
I4945421264
g277
ssg133
g89
(g90
(I0
tp289
g92
tp290
Rp291
(I1
(I2
I2
tp292
g99
I00
S'\x00\x00\x00\x00\x00\x00\x00\x00\x00\x00\x00\x00\x00\x00\x00\x00\x00\x00\x00\x00\x00\x00\xf0?\x00\x00\x00\x00\x00\x00\xf0?'
p293
tp294
bsg140
g89
(g90
(I0
tp295
g92
tp296
Rp297
(I1
(I2
I2
tp298
g99
I00
S'\x00\x00\x00\x00\x00\x00\x00\x00\x00\x00\x00\x00\x00\x00\x00\x00\x00\x00\x00\x00\x00\x00\xf0?\x00\x00\x00\x00\x00\x00\xf0?'
p299
tp300
bsg147
I01
sg50
g7
sbsg83
g231
sg140
Nsg51
(dp301
sg50
g7
sbssg50
g7
sbsI4713124944
g0
(cmatplotlib.transforms
BlendedAffine2D
p302
g2
Ntp303
Rp304
(dp305
g48
I2
sg88
g89
(g90
(I0
tp306
g92
tp307
Rp308
(I1
(I3
I3
tp309
g99
I00
S'\x00\x00\x00\x00\x00\x00o@\x00\x00\x00\x00\x00\x00\x00\x00\x00\x00\x00\x00\x00\x00D@\x00\x00\x00\x00\x00\x00\x00\x00\x00\x00\x00\x00\x00\x00\xf0?\x00\x00\x00\x00\x00\x00\x00\x00\x00\x00\x00\x00\x00\x00\x00\x00\x00\x00\x00\x00\x00\x00\x00\x00\x00\x00\x00\x00\x00\x00\xf0?'
p310
tp311
bsg55
g0
(g44
g2
Ntp312
Rp313
(dp314
g48
I1
sg49
Nsg50
g7
sg51
(dp315
I4713124944
g304
ssbsg56
g179
sg49
Nsg50
g7
sg51
(dp316
sbsI4945420752
g0
(g172
g2
Ntp317
Rp318
(dp319
g48
I2
sg176
I2
sg177
g0
(g172
g2
Ntp320
Rp321
(dp322
g48
I1
sg176
I2
sg177
g0
(g84
g2
Ntp323
Rp324
(dp325
g48
I1
sg88
Nsg49
Nsg115
g0
(g121
g2
Ntp326
Rp327
(dp328
g48
I1
sg125
g89
(g90
(I0
tp329
g92
tp330
Rp331
(I1
(I2
tp332
g99
I00
S'H\xaf\xbc\x9a\xf2\xd7z>H\xaf\xbc\x9a\xf2\xd7z>'
p333
tp334
bsg51
(dp335
I4945420624
g324
ssg133
g89
(g90
(I0
tp336
g92
tp337
Rp338
(I1
(I2
I2
tp339
g99
I00
S'\x00\x00\x00\x00\x00\x00\x00\x00\x00\x00\x00\x00\x00\x00\x00\x00\x00\x00\x00\x00\x00\x00\xf0?\x00\x00\x00\x00\x00\x00\xf0?'
p340
tp341
bsg140
g89
(g90
(I0
tp342
g92
tp343
Rp344
(I1
(I2
I2
tp345
g99
I00
S'\x00\x00\x00\x00\x00\x00\x00\x00\x00\x00\x00\x00\x00\x00\x00\x00\x00\x00\x00\x00\x00\x00\xf0?\x00\x00\x00\x00\x00\x00\xf0?'
p346
tp347
bsg147
I01
sg50
g7
sbsg51
(dp348
I4945420688
g321
ssg50
g7
sbsg262
I2
sg263
g0
(g104
g2
Ntp349
Rp350
(dp351
g48
I2
sg49
Nsg88
g89
(g90
(I0
tp352
g92
tp353
Rp354
(I1
(I3
I3
tp355
g99
I00
S'\x00\x00\x00\x00\x00\x00\xf0?\x00\x00\x00\x00\x00\x00\x00\x00\x00\x00\x00\x00\x00\x00\x00\x00\x00\x00\x00\x00\x00\x00\x00\x00\x00\x00\x00\x00\x00\x00\xf0?\x00\x00\x00\x00\x00\x00\x00\x00\x00\x00\x00\x00\x00\x00\x00\x00\x00\x00\x00\x00\x00\x00\x00\x00\x00\x00\x00\x00\x00\x00\xf0?'
p356
tp357
bsg50
g7
sg51
(dp358
I4945420688
g321
ssbsg51
(dp359
I4945420752
g318
ssg50
g7
sbsg262
I2
sg263
g179
sg51
(dp360
I4945420816
g0
(g116
g2
Ntp361
Rp362
(dp363
g48
I2
sg120
g0
(g121
g2
Ntp364
Rp365
(dp366
g48
I1
sg125
g89
(g90
(I0
tp367
g92
tp368
Rp369
(I1
(I2
tp370
g99
I00
S'H\xaf\xbc\x9a\xf2\xd7z>H\xaf\xbc\x9a\xf2\xd7z>'
p371
tp372
bsg51
(dp373
I4945420816
g362
ssg133
g89
(g90
(I0
tp374
g92
tp375
Rp376
(I1
(I2
I2
tp377
g99
I00
S'\x00\x00\x00\x00\x00\x00\x00\x00\x00\x00\x00\x00\x00\x00\x00\x00\x00\x00\x00\x00\x00\x00\xf0?\x00\x00\x00\x00\x00\x00\xf0?'
p378
tp379
bsg140
g89
(g90
(I0
tp380
g92
tp381
Rp382
(I1
(I2
I2
tp383
g99
I00
S'\x00\x00\x00\x00\x00\x00\x00\x00\x00\x00\x00\x00\x00\x00\x00\x00\x00\x00\x00\x00\x00\x00\xf0?\x00\x00\x00\x00\x00\x00\xf0?'
p384
tp385
bsg147
I01
sg50
g7
sbsg83
g318
sg140
Nsg51
(dp386
sg50
g7
sbssg50
g7
sbsI4945384336
g0
(g172
g2
Ntp387
Rp388
(dp389
g48
I2
sg176
I2
sg177
g0
(g172
g2
Ntp390
Rp391
(dp392
g48
I1
sg176
I2
sg177
g0
(g84
g2
Ntp393
Rp394
(dp395
g48
I1
sg88
Nsg49
Nsg115
g0
(g121
g2
Ntp396
Rp397
(dp398
g48
I1
sg125
g89
(g90
(I0
tp399
g92
tp400
Rp401
(I1
(I2
tp402
g99
I00
S'H\xaf\xbc\x9a\xf2\xd7z>H\xaf\xbc\x9a\xf2\xd7z>'
p403
tp404
bsg51
(dp405
I4945384208
g394
ssg133
g89
(g90
(I0
tp406
g92
tp407
Rp408
(I1
(I2
I2
tp409
g99
I00
S'\x00\x00\x00\x00\x00\x00\x00\x00\x00\x00\x00\x00\x00\x00\x00\x00\x00\x00\x00\x00\x00\x00\xf0?\x00\x00\x00\x00\x00\x00\xf0?'
p410
tp411
bsg140
g89
(g90
(I0
tp412
g92
tp413
Rp414
(I1
(I2
I2
tp415
g99
I00
S'\x00\x00\x00\x00\x00\x00\x00\x00\x00\x00\x00\x00\x00\x00\x00\x00\x00\x00\x00\x00\x00\x00\xf0?\x00\x00\x00\x00\x00\x00\xf0?'
p416
tp417
bsg147
I01
sg50
g7
sbsg51
(dp418
I4945384272
g391
ssg50
g7
sbsg262
I2
sg263
g0
(g104
g2
Ntp419
Rp420
(dp421
g48
I2
sg49
Nsg88
g89
(g90
(I0
tp422
g92
tp423
Rp424
(I1
(I3
I3
tp425
g99
I00
S'\x00\x00\x00\x00\x00\x00\xf0?\x00\x00\x00\x00\x00\x00\x00\x00\x00\x00\x00\x00\x00\x00\x00\x00\x00\x00\x00\x00\x00\x00\x00\x00\x00\x00\x00\x00\x00\x00\xf0?\x00\x00\x00\x00\x00\x00\x00\x00\x00\x00\x00\x00\x00\x00\x00\x00\x00\x00\x00\x00\x00\x00\x00\x00\x00\x00\x00\x00\x00\x00\xf0?'
p426
tp427
bsg50
g7
sg51
(dp428
I4945384272
g391
ssbsg51
(dp429
I4945384336
g388
ssg50
g7
sbsg262
I2
sg263
g179
sg51
(dp430
I4945384400
g0
(g116
g2
Ntp431
Rp432
(dp433
g48
I2
sg120
g0
(g121
g2
Ntp434
Rp435
(dp436
g48
I1
sg125
g89
(g90
(I0
tp437
g92
tp438
Rp439
(I1
(I2
tp440
g99
I00
S'H\xaf\xbc\x9a\xf2\xd7z>H\xaf\xbc\x9a\xf2\xd7z>'
p441
tp442
bsg51
(dp443
I4945384400
g432
ssg133
g89
(g90
(I0
tp444
g92
tp445
Rp446
(I1
(I2
I2
tp447
g99
I00
S'\x00\x00\x00\x00\x00\x00\x00\x00\x00\x00\x00\x00\x00\x00\x00\x00\x00\x00\x00\x00\x00\x00\xf0?\x00\x00\x00\x00\x00\x00\xf0?'
p448
tp449
bsg140
g89
(g90
(I0
tp450
g92
tp451
Rp452
(I1
(I2
I2
tp453
g99
I00
S'\x00\x00\x00\x00\x00\x00\x00\x00\x00\x00\x00\x00\x00\x00\x00\x00\x00\x00\x00\x00\x00\x00\xf0?\x00\x00\x00\x00\x00\x00\xf0?'
p454
tp455
bsg147
I01
sg50
g7
sbsg83
g388
sg140
Nsg51
(dp456
sg50
g7
sbssg50
g7
sbsI4945387408
g0
(g172
g2
Ntp457
Rp458
(dp459
g48
I2
sg176
I2
sg177
g0
(g172
g2
Ntp460
Rp461
(dp462
g48
I1
sg176
I2
sg177
g0
(g84
g2
Ntp463
Rp464
(dp465
g48
I1
sg88
Nsg49
Nsg115
g0
(g121
g2
Ntp466
Rp467
(dp468
g48
I1
sg125
g89
(g90
(I0
tp469
g92
tp470
Rp471
(I1
(I2
tp472
g99
I00
S'H\xaf\xbc\x9a\xf2\xd7z>H\xaf\xbc\x9a\xf2\xd7z>'
p473
tp474
bsg51
(dp475
I4945085968
g464
ssg133
g89
(g90
(I0
tp476
g92
tp477
Rp478
(I1
(I2
I2
tp479
g99
I00
S'\x00\x00\x00\x00\x00\x00\x00\x00\x00\x00\x00\x00\x00\x00\x00\x00\x00\x00\x00\x00\x00\x00\xf0?\x00\x00\x00\x00\x00\x00\xf0?'
p480
tp481
bsg140
g89
(g90
(I0
tp482
g92
tp483
Rp484
(I1
(I2
I2
tp485
g99
I00
S'\x00\x00\x00\x00\x00\x00\x00\x00\x00\x00\x00\x00\x00\x00\x00\x00\x00\x00\x00\x00\x00\x00\xf0?\x00\x00\x00\x00\x00\x00\xf0?'
p486
tp487
bsg147
I01
sg50
g7
sbsg51
(dp488
I4945387472
g461
ssg50
g7
sbsg262
I2
sg263
g0
(g104
g2
Ntp489
Rp490
(dp491
g48
I2
sg49
Nsg88
g89
(g90
(I0
tp492
g92
tp493
Rp494
(I1
(I3
I3
tp495
g99
I00
S'\x00\x00\x00\x00\x00\x00\xf0?\x00\x00\x00\x00\x00\x00\x00\x00\x00\x00\x00\x00\x00\x00\x00\x00\x00\x00\x00\x00\x00\x00\x00\x00\x00\x00\x00\x00\x00\x00\xf0?\x00\x00\x00\x00\x00\x00\x00\x00\x00\x00\x00\x00\x00\x00\x00\x00\x00\x00\x00\x00\x00\x00\x00\x00\x00\x00\x00\x00\x00\x00\xf0?'
p496
tp497
bsg50
g7
sg51
(dp498
I4945387472
g461
ssbsg51
(dp499
I4945387408
g458
ssg50
g7
sbsg262
I2
sg263
g179
sg51
(dp500
I4945387344
g0
(g116
g2
Ntp501
Rp502
(dp503
g48
I2
sg120
g0
(g121
g2
Ntp504
Rp505
(dp506
g48
I1
sg125
g89
(g90
(I0
tp507
g92
tp508
Rp509
(I1
(I2
tp510
g99
I00
S'H\xaf\xbc\x9a\xf2\xd7z>H\xaf\xbc\x9a\xf2\xd7z>'
p511
tp512
bsg51
(dp513
I4945387344
g502
ssg133
g89
(g90
(I0
tp514
g92
tp515
Rp516
(I1
(I2
I2
tp517
g99
I00
S'\x00\x00\x00\x00\x00\x00\x00\x00\x00\x00\x00\x00\x00\x00\x00\x00\x00\x00\x00\x00\x00\x00\xf0?\x00\x00\x00\x00\x00\x00\xf0?'
p518
tp519
bsg140
g89
(g90
(I0
tp520
g92
tp521
Rp522
(I1
(I2
I2
tp523
g99
I00
S'\x00\x00\x00\x00\x00\x00\x00\x00\x00\x00\x00\x00\x00\x00\x00\x00\x00\x00\x00\x00\x00\x00\xf0?\x00\x00\x00\x00\x00\x00\xf0?'
p524
tp525
bsg147
I01
sg50
g7
sbsg83
g458
sg140
Nsg51
(dp526
sg50
g7
sbssg50
g7
sbsI4945385232
g0
(g172
g2
Ntp527
Rp528
(dp529
g48
I2
sg176
I2
sg177
g0
(g172
g2
Ntp530
Rp531
(dp532
g48
I1
sg176
I2
sg177
g0
(g84
g2
Ntp533
Rp534
(dp535
g48
I1
sg88
Nsg49
Nsg115
g0
(g121
g2
Ntp536
Rp537
(dp538
g48
I1
sg125
g89
(g90
(I0
tp539
g92
tp540
Rp541
(I1
(I2
tp542
g99
I00
S'H\xaf\xbc\x9a\xf2\xd7z>H\xaf\xbc\x9a\xf2\xd7z>'
p543
tp544
bsg51
(dp545
I4945385104
g534
ssg133
g89
(g90
(I0
tp546
g92
tp547
Rp548
(I1
(I2
I2
tp549
g99
I00
S'\x00\x00\x00\x00\x00\x00\x00\x00\x00\x00\x00\x00\x00\x00\x00\x00\x00\x00\x00\x00\x00\x00\xf0?\x00\x00\x00\x00\x00\x00\xf0?'
p550
tp551
bsg140
g89
(g90
(I0
tp552
g92
tp553
Rp554
(I1
(I2
I2
tp555
g99
I00
S'\x00\x00\x00\x00\x00\x00\x00\x00\x00\x00\x00\x00\x00\x00\x00\x00\x00\x00\x00\x00\x00\x00\xf0?\x00\x00\x00\x00\x00\x00\xf0?'
p556
tp557
bsg147
I01
sg50
g7
sbsg51
(dp558
I4945385168
g531
ssg50
g7
sbsg262
I2
sg263
g0
(g104
g2
Ntp559
Rp560
(dp561
g48
I2
sg49
Nsg88
g89
(g90
(I0
tp562
g92
tp563
Rp564
(I1
(I3
I3
tp565
g99
I00
S'\x00\x00\x00\x00\x00\x00\xf0?\x00\x00\x00\x00\x00\x00\x00\x00\x00\x00\x00\x00\x00\x00\x00\x00\x00\x00\x00\x00\x00\x00\x00\x00\x00\x00\x00\x00\x00\x00\xf0?\x00\x00\x00\x00\x00\x00\x00\x00\x00\x00\x00\x00\x00\x00\x00\x00\x00\x00\x00\x00\x00\x00\x00\x00\x00\x00\x00\x00\x00\x00\xf0?'
p566
tp567
bsg50
g7
sg51
(dp568
I4945385168
g531
ssbsg51
(dp569
I4945385232
g528
ssg50
g7
sbsg262
I2
sg263
g179
sg51
(dp570
I4945385296
g0
(g116
g2
Ntp571
Rp572
(dp573
g48
I2
sg120
g0
(g121
g2
Ntp574
Rp575
(dp576
g48
I1
sg125
g89
(g90
(I0
tp577
g92
tp578
Rp579
(I1
(I2
tp580
g99
I00
S'H\xaf\xbc\x9a\xf2\xd7z>H\xaf\xbc\x9a\xf2\xd7z>'
p581
tp582
bsg51
(dp583
I4945385296
g572
ssg133
g89
(g90
(I0
tp584
g92
tp585
Rp586
(I1
(I2
I2
tp587
g99
I00
S'\x00\x00\x00\x00\x00\x00\x00\x00\x00\x00\x00\x00\x00\x00\x00\x00\x00\x00\x00\x00\x00\x00\xf0?\x00\x00\x00\x00\x00\x00\xf0?'
p588
tp589
bsg140
g89
(g90
(I0
tp590
g92
tp591
Rp592
(I1
(I2
I2
tp593
g99
I00
S'\x00\x00\x00\x00\x00\x00\x00\x00\x00\x00\x00\x00\x00\x00\x00\x00\x00\x00\x00\x00\x00\x00\xf0?\x00\x00\x00\x00\x00\x00\xf0?'
p594
tp595
bsg147
I01
sg50
g7
sbsg83
g528
sg140
Nsg51
(dp596
sg50
g7
sbssg50
g7
sbsI4945370448
g0
(g172
g2
Ntp597
Rp598
(dp599
g48
I2
sg176
I2
sg177
g0
(cmatplotlib.transforms
BboxTransformFrom
p600
g2
Ntp601
Rp602
(dp603
g48
I0
sS'_boxin'
p604
g0
(g116
g2
Ntp605
Rp606
(dp607
g48
I0
sg120
g0
(g121
g2
Ntp608
Rp609
(dp610
g48
I0
sg125
g89
(g90
(I0
tp611
g92
tp612
Rp613
(I1
(I2
tp614
g99
I00
S'H\xaf\xbc\x9a\xf2\xd7z>H\xaf\xbc\x9a\xf2\xd7z>'
p615
tp616
bsg51
(dp617
I4945370192
g606
ssg133
g89
(g90
(I0
tp618
g92
tp619
Rp620
(I1
(I2
I2
tp621
g99
I00
S'\x00\x00\x00\x00\x00\x00\x00\x00\x00\x00\x00\x00\x00\x00\x00\x00\x00\x00\x00\x00\x00\x00\xf0?\x00\x00\x00\x00\x00\x00\xf0?'
p622
tp623
bsg140
g89
(g90
(I0
tp624
g92
tp625
Rp626
(I1
(I2
I2
tp627
g99
I00
S'\x00\x00\x00\x00\x00\x006@\x00\x00\x00\x00\x00\x006@\x00\x00\x00\x00\x00\x00;@\x00\x00\x00\x00\x00\x00;@'
p628
tp629
bsg147
I01
sg50
g7
sbsg83
g0
(cmatplotlib.transforms
TransformWrapper
p630
g2
Ntp631
Rp632
(dp633
Voutput_dims
p634
I2
sVparents
p635
(dp636
I4945370192
g606
sI4945370512
g0
(g172
g2
Ntp637
Rp638
(dp639
g48
I2
sg176
I2
sg177
g632
sg262
I2
sg263
g598
sg51
(dp640
I4945370576
g0
(cmatplotlib.transforms
BlendedGenericTransform
p641
g2
Ntp642
Rp643
(dp644
g48
I2
sg55
g179
sg56
g638
sS'_affine'
p645
g0
(g104
g2
Ntp646
Rp647
(dp648
g48
I0
sg49
Nsg88
g89
(g90
(I0
tp649
g92
tp650
Rp651
(I1
(I3
I3
tp652
g99
I00
S'\xcd\xcc\xcc\xcc\xcc\xccH@\x00\x00\x00\x00\x00\x00\x00\x00\xcd\xcc\xcc\xcc\xccl\x90\xc0\x00\x00\x00\x00\x00\x00\x00\x00\x00\x00\x00\x00\x00\x00o@\x00\x00\x00\x00\x00\x00D@\x00\x00\x00\x00\x00\x00\x00\x00\x00\x00\x00\x00\x00\x00\x00\x00\x00\x00\x00\x00\x00\x00\xf0?'
p653
tp654
bsg50
g7
sg51
(dp655
sbsg51
(dp656
I4713308496
g0
(g172
g2
Ntp657
Rp658
(dp659
g48
I2
sg176
I2
sg177
g643
sg262
I2
sg263
g0
(g158
g2
Ntp660
Rp661
(dp662
g48
I1
sg88
Nsg168
g149
sg49
Nsg169
(I0
F-0.05555555555555555
tp663
sg50
g7
sg51
(dp664
I4713308496
g658
ssbsg51
(dp665
sg50
g7
sbsI4713140368
g0
(g172
g2
Ntp666
Rp667
(dp668
g48
I2
sg176
I2
sg177
g643
sg262
I2
sg263
g0
(g158
g2
Ntp669
Rp670
(dp671
g48
I1
sg88
Nsg168
g149
sg49
Nsg169
(I0
F-0.05555555555555555
tp672
sg50
g7
sg51
(dp673
I4713140368
g667
ssbsg51
(dp674
sg50
g7
sbsI4713346576
g0
(g172
g2
Ntp675
Rp676
(dp677
g48
I2
sg176
I2
sg177
g643
sg262
I2
sg263
g0
(g158
g2
Ntp678
Rp679
(dp680
g48
I0
sg88
g89
(g90
(I0
tp681
g92
tp682
Rp683
(I1
(I3
I3
tp684
g99
I00
S'\x00\x00\x00\x00\x00\x00\xf0?\x00\x00\x00\x00\x00\x00\x00\x00\x00\x00\x00\x00\x00\x00\x00\x00\x00\x00\x00\x00\x00\x00\x00\x00\x00\x00\x00\x00\x00\x00\xf0?r\x1c\xc7q\x1c\xc7\x11\xc0\x00\x00\x00\x00\x00\x00\x00\x00\x00\x00\x00\x00\x00\x00\x00\x00\x00\x00\x00\x00\x00\x00\xf0?'
p685
tp686
bsg168
g149
sg49
Nsg169
(I0
F-0.05555555555555555
tp687
sg50
g7
sg51
(dp688
I4713346576
g676
ssbsg51
(dp689
sg50
g7
sbsI4713346832
g0
(g172
g2
Ntp690
Rp691
(dp692
g48
I2
sg176
I2
sg177
g643
sg262
I2
sg263
g0
(g158
g2
Ntp693
Rp694
(dp695
g48
I1
sg88
Nsg168
g149
sg49
Nsg169
(I0
F0.05555555555555555
tp696
sg50
g7
sg51
(dp697
I4713346832
g691
ssbsg51
(dp698
sg50
g7
sbsI4713140752
g0
(g172
g2
Ntp699
Rp700
(dp701
g48
I2
sg176
I2
sg177
g643
sg262
I2
sg263
g0
(g158
g2
Ntp702
Rp703
(dp704
g48
I1
sg88
Nsg168
g149
sg49
Nsg169
(I0
F0.05555555555555555
tp705
sg50
g7
sg51
(dp706
I4713140752
g700
ssbsg51
(dp707
sg50
g7
sbsI4713308752
g0
(g172
g2
Ntp708
Rp709
(dp710
g48
I2
sg176
I2
sg177
g643
sg262
I2
sg263
g0
(g158
g2
Ntp711
Rp712
(dp713
g48
I1
sg88
Nsg168
g149
sg49
Nsg169
(I0
F0.05555555555555555
tp714
sg50
g7
sg51
(dp715
I4713308752
g709
ssbsg51
(dp716
sg50
g7
sbssg50
g7
sbsI4945370640
g0
(g641
g2
Ntp717
Rp718
(dp719
g48
I2
sg55
g638
sg56
g179
sg645
g0
(g104
g2
Ntp720
Rp721
(dp722
g48
I0
sg49
Nsg88
g89
(g90
(I0
tp723
g92
tp724
Rp725
(I1
(I3
I3
tp726
g99
I00
S'\x00\x00\x00\x00\x00\x00o@\x00\x00\x00\x00\x00\x00\x00\x00\x00\x00\x00\x00\x00\x00D@\x00\x00\x00\x00\x00\x00\x00\x00\xcd\xcc\xcc\xcc\xcc\xccH@\xcd\xcc\xcc\xcc\xccl\x90\xc0\x00\x00\x00\x00\x00\x00\x00\x00\x00\x00\x00\x00\x00\x00\x00\x00\x00\x00\x00\x00\x00\x00\xf0?'
p727
tp728
bsg50
g7
sg51
(dp729
sbsg51
(dp730
I4713345872
g0
(g172
g2
Ntp731
Rp732
(dp733
g48
I2
sg176
I2
sg177
g718
sg262
I2
sg263
g0
(g158
g2
Ntp734
Rp735
(dp736
g48
I1
sg88
Nsg168
g149
sg49
Nsg169
(F0.05555555555555555
I0
tp737
sg50
g7
sg51
(dp738
I4713345872
g732
ssbsg51
(dp739
sg50
g7
sbsI4713310288
g0
(g172
g2
Ntp740
Rp741
(dp742
g48
I2
sg176
I2
sg177
g718
sg262
I2
sg263
g0
(g158
g2
Ntp743
Rp744
(dp745
g48
I1
sg88
Nsg168
g149
sg49
Nsg169
(F-0.05555555555555555
I0
tp746
sg50
g7
sg51
(dp747
I4713310288
g741
ssbsg51
(dp748
sg50
g7
sbsI4713310544
g0
(g172
g2
Ntp749
Rp750
(dp751
g48
I2
sg176
I2
sg177
g718
sg262
I2
sg263
g0
(g158
g2
Ntp752
Rp753
(dp754
g48
I1
sg88
Nsg168
g149
sg49
Nsg169
(F0.05555555555555555
I0
tp755
sg50
g7
sg51
(dp756
I4713310544
g750
ssbsg51
(dp757
sg50
g7
sbsI4713143440
g0
(g172
g2
Ntp758
Rp759
(dp760
g48
I2
sg176
I2
sg177
g718
sg262
I2
sg263
g0
(g158
g2
Ntp761
Rp762
(dp763
g48
I1
sg88
Nsg168
g149
sg49
Nsg169
(F0.05555555555555555
I0
tp764
sg50
g7
sg51
(dp765
I4713143440
g759
ssbsg51
(dp766
sg50
g7
sbsI4713142800
g0
(g172
g2
Ntp767
Rp768
(dp769
g48
I2
sg176
I2
sg177
g718
sg262
I2
sg263
g0
(g158
g2
Ntp770
Rp771
(dp772
g48
I0
sg88
g89
(g90
(I0
tp773
g92
tp774
Rp775
(I1
(I3
I3
tp776
g99
I00
S'\x00\x00\x00\x00\x00\x00\xf0?\x00\x00\x00\x00\x00\x00\x00\x00r\x1c\xc7q\x1c\xc7\x11\xc0\x00\x00\x00\x00\x00\x00\x00\x00\x00\x00\x00\x00\x00\x00\xf0?\x00\x00\x00\x00\x00\x00\x00\x00\x00\x00\x00\x00\x00\x00\x00\x00\x00\x00\x00\x00\x00\x00\x00\x00\x00\x00\x00\x00\x00\x00\xf0?'
p777
tp778
bsg168
g149
sg49
Nsg169
(F-0.05555555555555555
I0
tp779
sg50
g7
sg51
(dp780
I4713142800
g768
ssbsg51
(dp781
sg50
g7
sbsI4713345680
g0
(g172
g2
Ntp782
Rp783
(dp784
g48
I2
sg176
I2
sg177
g718
sg262
I2
sg263
g0
(g158
g2
Ntp785
Rp786
(dp787
g48
I1
sg88
Nsg168
g149
sg49
Nsg169
(F-0.05555555555555555
I0
tp788
sg50
g7
sg51
(dp789
I4713345680
g783
ssbsg51
(dp790
sg50
g7
sbssg50
g7
sbssg50
g7
sbssVinput_dims
p791
I2
sVchild
p792
g0
(g302
g2
Ntp793
Rp794
(dp795
g48
I0
sg88
g89
(g90
(I0
tp796
g92
tp797
Rp798
(I1
(I3
I3
tp799
g99
I00
S'\x00\x00\x00\x00\x00\x00\xf0?\x00\x00\x00\x00\x00\x00\x00\x00\x00\x00\x00\x00\x00\x00\x00\x00\x00\x00\x00\x00\x00\x00\x00\x00\x00\x00\x00\x00\x00\x00\xf0?\x00\x00\x00\x00\x00\x00\x00\x00\x00\x00\x00\x00\x00\x00\x00\x00\x00\x00\x00\x00\x00\x00\x00\x00\x00\x00\x00\x00\x00\x00\xf0?'
p800
tp801
bsg55
g0
(g44
g2
Ntp802
Rp803
(dp804
g48
I1
sg49
Nsg50
g7
sg51
(dp805
I4713310928
g794
ssbsg56
g0
(g44
g2
Ntp806
Rp807
(dp808
g48
I1
sg49
Nsg50
g7
sg51
(dp809
I4713310928
g794
ssbsg49
g0
(g104
g2
Ntp810
Rp811
(dp812
g48
I0
sg49
Nsg88
g89
(g90
(I0
tp813
g92
tp814
Rp815
(I1
(I3
I3
tp816
g99
I00
S'\x00\x00\x00\x00\x00\x00\xf0?\x00\x00\x00\x00\x00\x00\x00\x00\x00\x00\x00\x00\x00\x00\x00\x00\x00\x00\x00\x00\x00\x00\x00\x00\x00\x00\x00\x00\x00\x00\xf0?\x00\x00\x00\x00\x00\x00\x00\x00\x00\x00\x00\x00\x00\x00\x00\x00\x00\x00\x00\x00\x00\x00\x00\x00\x00\x00\x00\x00\x00\x00\xf0?'
p817
tp818
bsg50
g7
sg51
(dp819
sbsg50
g7
sg51
(dp820
I4945370384
g632
ssbsbsg140
g89
(g90
(I0
tp821
g92
tp822
Rp823
(I1
(I2
I2
tp824
g99
I00
S'\x00\x00\x00\x00\x00\x006@\x00\x00\x00\x00\x00\x006@\x00\x00\x00\x00\x00\x00;@\x00\x00\x00\x00\x00\x00;@'
p825
tp826
bsg51
(dp827
I4945370128
g602
ssg50
g7
sbsg88
g89
(g90
(I0
tp828
g92
tp829
Rp830
(I1
(I3
I3
tp831
g99
I00
S'\x9a\x99\x99\x99\x99\x99\xc9?\x00\x00\x00\x00\x00\x00\x00\x00\x9a\x99\x99\x99\x99\x99\x11\xc0\x00\x00\x00\x00\x00\x00\x00\x00\x9a\x99\x99\x99\x99\x99\xc9?\x9a\x99\x99\x99\x99\x99\x11\xc0\x00\x00\x00\x00\x00\x00\x00\x00\x00\x00\x00\x00\x00\x00\x00\x00\x00\x00\x00\x00\x00\x00\xf0?'
p832
tp833
bsg49
g0
(g104
g2
Ntp834
Rp835
(dp836
g48
I0
sg49
Nsg88
g89
(g90
(I0
tp837
g92
tp838
Rp839
(I1
(I3
I3
tp840
g99
I00
S'\x00\x00\x00\x00\x00\x00\x14@\x00\x00\x00\x00\x00\x00\x00\x00\x00\x00\x00\x00\x00\x006@\x00\x00\x00\x00\x00\x00\x00\x00\x00\x00\x00\x00\x00\x00\x14@\x00\x00\x00\x00\x00\x006@\x00\x00\x00\x00\x00\x00\x00\x00\x00\x00\x00\x00\x00\x00\x00\x00\x00\x00\x00\x00\x00\x00\xf0?'
p841
tp842
bsg50
g7
sg51
(dp843
sbsg50
g7
sg51
(dp844
I4945370448
g598
ssbsg262
I2
sg263
g179
sg51
(dp845
I4945370512
g638
ssg50
g7
sbsI4945422544
g0
(g172
g2
Ntp846
Rp847
(dp848
g48
I2
sg176
I2
sg177
g0
(g172
g2
Ntp849
Rp850
(dp851
g48
I1
sg176
I2
sg177
g0
(g84
g2
Ntp852
Rp853
(dp854
g48
I1
sg88
Nsg49
Nsg115
g0
(g121
g2
Ntp855
Rp856
(dp857
g48
I1
sg125
g89
(g90
(I0
tp858
g92
tp859
Rp860
(I1
(I2
tp861
g99
I00
S'H\xaf\xbc\x9a\xf2\xd7z>H\xaf\xbc\x9a\xf2\xd7z>'
p862
tp863
bsg51
(dp864
I4945422416
g853
ssg133
g89
(g90
(I0
tp865
g92
tp866
Rp867
(I1
(I2
I2
tp868
g99
I00
S'\x00\x00\x00\x00\x00\x00\x00\x00\x00\x00\x00\x00\x00\x00\x00\x00\x00\x00\x00\x00\x00\x00\xf0?\x00\x00\x00\x00\x00\x00\xf0?'
p869
tp870
bsg140
g89
(g90
(I0
tp871
g92
tp872
Rp873
(I1
(I2
I2
tp874
g99
I00
S'\x00\x00\x00\x00\x00\x00\x00\x00\x00\x00\x00\x00\x00\x00\x00\x00\x00\x00\x00\x00\x00\x00\xf0?\x00\x00\x00\x00\x00\x00\xf0?'
p875
tp876
bsg147
I01
sg50
g7
sbsg51
(dp877
I4945422480
g850
ssg50
g7
sbsg262
I2
sg263
g0
(g104
g2
Ntp878
Rp879
(dp880
g48
I2
sg49
Nsg88
g89
(g90
(I0
tp881
g92
tp882
Rp883
(I1
(I3
I3
tp884
g99
I00
S'\x00\x00\x00\x00\x00\x00\xf0?\x00\x00\x00\x00\x00\x00\x00\x00\x00\x00\x00\x00\x00\x00\x00\x00\x00\x00\x00\x00\x00\x00\x00\x00\x00\x00\x00\x00\x00\x00\xf0?\x00\x00\x00\x00\x00\x00\x00\x00\x00\x00\x00\x00\x00\x00\x00\x00\x00\x00\x00\x00\x00\x00\x00\x00\x00\x00\x00\x00\x00\x00\xf0?'
p885
tp886
bsg50
g7
sg51
(dp887
I4945422480
g850
ssbsg51
(dp888
I4945422544
g847
ssg50
g7
sbsg262
I2
sg263
g179
sg51
(dp889
I4945422608
g0
(g116
g2
Ntp890
Rp891
(dp892
g48
I2
sg120
g0
(g121
g2
Ntp893
Rp894
(dp895
g48
I1
sg125
g89
(g90
(I0
tp896
g92
tp897
Rp898
(I1
(I2
tp899
g99
I00
S'H\xaf\xbc\x9a\xf2\xd7z>H\xaf\xbc\x9a\xf2\xd7z>'
p900
tp901
bsg51
(dp902
I4945422608
g891
ssg133
g89
(g90
(I0
tp903
g92
tp904
Rp905
(I1
(I2
I2
tp906
g99
I00
S'\x00\x00\x00\x00\x00\x00\x00\x00\x00\x00\x00\x00\x00\x00\x00\x00\x00\x00\x00\x00\x00\x00\xf0?\x00\x00\x00\x00\x00\x00\xf0?'
p907
tp908
bsg140
g89
(g90
(I0
tp909
g92
tp910
Rp911
(I1
(I2
I2
tp912
g99
I00
S'\x00\x00\x00\x00\x00\x00\x00\x00\x00\x00\x00\x00\x00\x00\x00\x00\x00\x00\x00\x00\x00\x00\xf0?\x00\x00\x00\x00\x00\x00\xf0?'
p913
tp914
bsg147
I01
sg50
g7
sbsg83
g847
sg140
Nsg51
(dp915
sg50
g7
sbssg50
g7
sbsI4945262928
g0
(g172
g2
Ntp916
Rp917
(dp918
g48
I2
sg176
I2
sg177
g0
(g172
g2
Ntp919
Rp920
(dp921
g48
I1
sg176
I2
sg177
g0
(g84
g2
Ntp922
Rp923
(dp924
g48
I1
sg88
Nsg49
Nsg115
g0
(g121
g2
Ntp925
Rp926
(dp927
g48
I1
sg125
g89
(g90
(I0
tp928
g92
tp929
Rp930
(I1
(I2
tp931
g99
I00
S'H\xaf\xbc\x9a\xf2\xd7z>H\xaf\xbc\x9a\xf2\xd7z>'
p932
tp933
bsg51
(dp934
I4945262800
g923
ssg133
g89
(g90
(I0
tp935
g92
tp936
Rp937
(I1
(I2
I2
tp938
g99
I00
S'\x00\x00\x00\x00\x00\x00\x00\x00\x00\x00\x00\x00\x00\x00\x00\x00\x00\x00\x00\x00\x00\x00\xf0?\x00\x00\x00\x00\x00\x00\xf0?'
p939
tp940
bsg140
g89
(g90
(I0
tp941
g92
tp942
Rp943
(I1
(I2
I2
tp944
g99
I00
S'\x00\x00\x00\x00\x00\x00\x00\x00\x00\x00\x00\x00\x00\x00\x00\x00\x00\x00\x00\x00\x00\x00\xf0?\x00\x00\x00\x00\x00\x00\xf0?'
p945
tp946
bsg147
I01
sg50
g7
sbsg51
(dp947
I4945262864
g920
ssg50
g7
sbsg262
I2
sg263
g0
(g104
g2
Ntp948
Rp949
(dp950
g48
I2
sg49
Nsg88
g89
(g90
(I0
tp951
g92
tp952
Rp953
(I1
(I3
I3
tp954
g99
I00
S'\x00\x00\x00\x00\x00\x00\xf0?\x00\x00\x00\x00\x00\x00\x00\x00\x00\x00\x00\x00\x00\x00\x00\x00\x00\x00\x00\x00\x00\x00\x00\x00\x00\x00\x00\x00\x00\x00\xf0?\x00\x00\x00\x00\x00\x00\x00\x00\x00\x00\x00\x00\x00\x00\x00\x00\x00\x00\x00\x00\x00\x00\x00\x00\x00\x00\x00\x00\x00\x00\xf0?'
p955
tp956
bsg50
g7
sg51
(dp957
I4945262864
g920
ssbsg51
(dp958
I4945262928
g917
ssg50
g7
sbsg262
I2
sg263
g179
sg51
(dp959
I4945262992
g0
(g116
g2
Ntp960
Rp961
(dp962
g48
I2
sg120
g0
(g121
g2
Ntp963
Rp964
(dp965
g48
I1
sg125
g89
(g90
(I0
tp966
g92
tp967
Rp968
(I1
(I2
tp969
g99
I00
S'H\xaf\xbc\x9a\xf2\xd7z>H\xaf\xbc\x9a\xf2\xd7z>'
p970
tp971
bsg51
(dp972
I4945262992
g961
ssg133
g89
(g90
(I0
tp973
g92
tp974
Rp975
(I1
(I2
I2
tp976
g99
I00
S'\x00\x00\x00\x00\x00\x00\x00\x00\x00\x00\x00\x00\x00\x00\x00\x00\x00\x00\x00\x00\x00\x00\xf0?\x00\x00\x00\x00\x00\x00\xf0?'
p977
tp978
bsg140
g89
(g90
(I0
tp979
g92
tp980
Rp981
(I1
(I2
I2
tp982
g99
I00
S'\x00\x00\x00\x00\x00\x00\x00\x00\x00\x00\x00\x00\x00\x00\x00\x00\x00\x00\x00\x00\x00\x00\xf0?\x00\x00\x00\x00\x00\x00\xf0?'
p983
tp984
bsg147
I01
sg50
g7
sbsg83
g917
sg140
Nsg51
(dp985
sg50
g7
sbssg50
g7
sbsI4945423440
g0
(g172
g2
Ntp986
Rp987
(dp988
g48
I2
sg176
I2
sg177
g0
(g172
g2
Ntp989
Rp990
(dp991
g48
I1
sg176
I2
sg177
g0
(g84
g2
Ntp992
Rp993
(dp994
g48
I1
sg88
Nsg49
Nsg115
g0
(g121
g2
Ntp995
Rp996
(dp997
g48
I1
sg125
g89
(g90
(I0
tp998
g92
tp999
Rp1000
(I1
(I2
tp1001
g99
I00
S'H\xaf\xbc\x9a\xf2\xd7z>H\xaf\xbc\x9a\xf2\xd7z>'
p1002
tp1003
bsg51
(dp1004
I4945423312
g993
ssg133
g89
(g90
(I0
tp1005
g92
tp1006
Rp1007
(I1
(I2
I2
tp1008
g99
I00
S'\x00\x00\x00\x00\x00\x00\x00\x00\x00\x00\x00\x00\x00\x00\x00\x00\x00\x00\x00\x00\x00\x00\xf0?\x00\x00\x00\x00\x00\x00\xf0?'
p1009
tp1010
bsg140
g89
(g90
(I0
tp1011
g92
tp1012
Rp1013
(I1
(I2
I2
tp1014
g99
I00
S'\x00\x00\x00\x00\x00\x00\x00\x00\x00\x00\x00\x00\x00\x00\x00\x00\x00\x00\x00\x00\x00\x00\xf0?\x00\x00\x00\x00\x00\x00\xf0?'
p1015
tp1016
bsg147
I01
sg50
g7
sbsg51
(dp1017
I4945423376
g990
ssg50
g7
sbsg262
I2
sg263
g0
(g104
g2
Ntp1018
Rp1019
(dp1020
g48
I2
sg49
Nsg88
g89
(g90
(I0
tp1021
g92
tp1022
Rp1023
(I1
(I3
I3
tp1024
g99
I00
S'\x00\x00\x00\x00\x00\x00\xf0?\x00\x00\x00\x00\x00\x00\x00\x00\x00\x00\x00\x00\x00\x00\x00\x00\x00\x00\x00\x00\x00\x00\x00\x00\x00\x00\x00\x00\x00\x00\xf0?\x00\x00\x00\x00\x00\x00\x00\x00\x00\x00\x00\x00\x00\x00\x00\x00\x00\x00\x00\x00\x00\x00\x00\x00\x00\x00\x00\x00\x00\x00\xf0?'
p1025
tp1026
bsg50
g7
sg51
(dp1027
I4945423376
g990
ssbsg51
(dp1028
I4945423440
g987
ssg50
g7
sbsg262
I2
sg263
g179
sg51
(dp1029
I4945423504
g0
(g116
g2
Ntp1030
Rp1031
(dp1032
g48
I2
sg120
g0
(g121
g2
Ntp1033
Rp1034
(dp1035
g48
I1
sg125
g89
(g90
(I0
tp1036
g92
tp1037
Rp1038
(I1
(I2
tp1039
g99
I00
S'H\xaf\xbc\x9a\xf2\xd7z>H\xaf\xbc\x9a\xf2\xd7z>'
p1040
tp1041
bsg51
(dp1042
I4945423504
g1031
ssg133
g89
(g90
(I0
tp1043
g92
tp1044
Rp1045
(I1
(I2
I2
tp1046
g99
I00
S'\x00\x00\x00\x00\x00\x00\x00\x00\x00\x00\x00\x00\x00\x00\x00\x00\x00\x00\x00\x00\x00\x00\xf0?\x00\x00\x00\x00\x00\x00\xf0?'
p1047
tp1048
bsg140
g89
(g90
(I0
tp1049
g92
tp1050
Rp1051
(I1
(I2
I2
tp1052
g99
I00
S'\x00\x00\x00\x00\x00\x00\x00\x00\x00\x00\x00\x00\x00\x00\x00\x00\x00\x00\x00\x00\x00\x00\xf0?\x00\x00\x00\x00\x00\x00\xf0?'
p1053
tp1054
bsg147
I01
sg50
g7
sbsg83
g987
sg140
Nsg51
(dp1055
sg50
g7
sbssg50
g7
sbsI4713150992
g0
(g302
g2
Ntp1056
Rp1057
(dp1058
g48
I2
sg88
g89
(g90
(I0
tp1059
g92
tp1060
Rp1061
(I1
(I3
I3
tp1062
g99
I00
S'\x00\x00\x00\x00\x00\x00\xf0?\x00\x00\x00\x00\x00\x00\x00\x00\x00\x00\x00\x00\x00\x00\x00\x00\x00\x00\x00\x00\x00\x00\x00\x00\x00\x00\x00\x00\x00\x00o@\x00\x00\x00\x00\x00\x00D@\x00\x00\x00\x00\x00\x00\x00\x00\x00\x00\x00\x00\x00\x00\x00\x00\x00\x00\x00\x00\x00\x00\xf0?'
p1063
tp1064
bsg55
g179
sg56
g0
(g44
g2
Ntp1065
Rp1066
(dp1067
g48
I1
sg49
Nsg50
g7
sg51
(dp1068
I4713150992
g1057
ssbsg49
Nsg50
g7
sg51
(dp1069
sbsI4945087248
g0
(g172
g2
Ntp1070
Rp1071
(dp1072
g48
I2
sg176
I2
sg177
g0
(g172
g2
Ntp1073
Rp1074
(dp1075
g48
I1
sg176
I2
sg177
g0
(g84
g2
Ntp1076
Rp1077
(dp1078
g48
I1
sg88
Nsg49
Nsg115
g0
(g121
g2
Ntp1079
Rp1080
(dp1081
g48
I1
sg125
g89
(g90
(I0
tp1082
g92
tp1083
Rp1084
(I1
(I2
tp1085
g99
I00
S'H\xaf\xbc\x9a\xf2\xd7z>H\xaf\xbc\x9a\xf2\xd7z>'
p1086
tp1087
bsg51
(dp1088
I4945087120
g1077
ssg133
g89
(g90
(I0
tp1089
g92
tp1090
Rp1091
(I1
(I2
I2
tp1092
g99
I00
S'\x00\x00\x00\x00\x00\x00\x00\x00\x00\x00\x00\x00\x00\x00\x00\x00\x00\x00\x00\x00\x00\x00\xf0?\x00\x00\x00\x00\x00\x00\xf0?'
p1093
tp1094
bsg140
g89
(g90
(I0
tp1095
g92
tp1096
Rp1097
(I1
(I2
I2
tp1098
g99
I00
S'\x00\x00\x00\x00\x00\x00\x00\x00\x00\x00\x00\x00\x00\x00\x00\x00\x00\x00\x00\x00\x00\x00\xf0?\x00\x00\x00\x00\x00\x00\xf0?'
p1099
tp1100
bsg147
I01
sg50
g7
sbsg51
(dp1101
I4945087184
g1074
ssg50
g7
sbsg262
I2
sg263
g0
(g104
g2
Ntp1102
Rp1103
(dp1104
g48
I2
sg49
Nsg88
g89
(g90
(I0
tp1105
g92
tp1106
Rp1107
(I1
(I3
I3
tp1108
g99
I00
S'\x00\x00\x00\x00\x00\x00\xf0?\x00\x00\x00\x00\x00\x00\x00\x00\x00\x00\x00\x00\x00\x00\x00\x00\x00\x00\x00\x00\x00\x00\x00\x00\x00\x00\x00\x00\x00\x00\xf0?\x00\x00\x00\x00\x00\x00\x00\x00\x00\x00\x00\x00\x00\x00\x00\x00\x00\x00\x00\x00\x00\x00\x00\x00\x00\x00\x00\x00\x00\x00\xf0?'
p1109
tp1110
bsg50
g7
sg51
(dp1111
I4945087184
g1074
ssbsg51
(dp1112
I4945087248
g1071
ssg50
g7
sbsg262
I2
sg263
g179
sg51
(dp1113
I4945087312
g0
(g116
g2
Ntp1114
Rp1115
(dp1116
g48
I2
sg120
g0
(g121
g2
Ntp1117
Rp1118
(dp1119
g48
I1
sg125
g89
(g90
(I0
tp1120
g92
tp1121
Rp1122
(I1
(I2
tp1123
g99
I00
S'H\xaf\xbc\x9a\xf2\xd7z>H\xaf\xbc\x9a\xf2\xd7z>'
p1124
tp1125
bsg51
(dp1126
I4945087312
g1115
ssg133
g89
(g90
(I0
tp1127
g92
tp1128
Rp1129
(I1
(I2
I2
tp1130
g99
I00
S'\x00\x00\x00\x00\x00\x00\x00\x00\x00\x00\x00\x00\x00\x00\x00\x00\x00\x00\x00\x00\x00\x00\xf0?\x00\x00\x00\x00\x00\x00\xf0?'
p1131
tp1132
bsg140
g89
(g90
(I0
tp1133
g92
tp1134
Rp1135
(I1
(I2
I2
tp1136
g99
I00
S'\x00\x00\x00\x00\x00\x00\x00\x00\x00\x00\x00\x00\x00\x00\x00\x00\x00\x00\x00\x00\x00\x00\xf0?\x00\x00\x00\x00\x00\x00\xf0?'
p1137
tp1138
bsg147
I01
sg50
g7
sbsg83
g1071
sg140
Nsg51
(dp1139
sg50
g7
sbssg50
g7
sbsI4945386128
g0
(g172
g2
Ntp1140
Rp1141
(dp1142
g48
I2
sg176
I2
sg177
g0
(g172
g2
Ntp1143
Rp1144
(dp1145
g48
I1
sg176
I2
sg177
g0
(g84
g2
Ntp1146
Rp1147
(dp1148
g48
I1
sg88
Nsg49
Nsg115
g0
(g121
g2
Ntp1149
Rp1150
(dp1151
g48
I1
sg125
g89
(g90
(I0
tp1152
g92
tp1153
Rp1154
(I1
(I2
tp1155
g99
I00
S'H\xaf\xbc\x9a\xf2\xd7z>H\xaf\xbc\x9a\xf2\xd7z>'
p1156
tp1157
bsg51
(dp1158
I4945386000
g1147
ssg133
g89
(g90
(I0
tp1159
g92
tp1160
Rp1161
(I1
(I2
I2
tp1162
g99
I00
S'\x00\x00\x00\x00\x00\x00\x00\x00\x00\x00\x00\x00\x00\x00\x00\x00\x00\x00\x00\x00\x00\x00\xf0?\x00\x00\x00\x00\x00\x00\xf0?'
p1163
tp1164
bsg140
g89
(g90
(I0
tp1165
g92
tp1166
Rp1167
(I1
(I2
I2
tp1168
g99
I00
S'\x00\x00\x00\x00\x00\x00\x00\x00\x00\x00\x00\x00\x00\x00\x00\x00\x00\x00\x00\x00\x00\x00\xf0?\x00\x00\x00\x00\x00\x00\xf0?'
p1169
tp1170
bsg147
I01
sg50
g7
sbsg51
(dp1171
I4945386064
g1144
ssg50
g7
sbsg262
I2
sg263
g0
(g104
g2
Ntp1172
Rp1173
(dp1174
g48
I2
sg49
Nsg88
g89
(g90
(I0
tp1175
g92
tp1176
Rp1177
(I1
(I3
I3
tp1178
g99
I00
S'\x00\x00\x00\x00\x00\x00\xf0?\x00\x00\x00\x00\x00\x00\x00\x00\x00\x00\x00\x00\x00\x00\x00\x00\x00\x00\x00\x00\x00\x00\x00\x00\x00\x00\x00\x00\x00\x00\xf0?\x00\x00\x00\x00\x00\x00\x00\x00\x00\x00\x00\x00\x00\x00\x00\x00\x00\x00\x00\x00\x00\x00\x00\x00\x00\x00\x00\x00\x00\x00\xf0?'
p1179
tp1180
bsg50
g7
sg51
(dp1181
I4945386064
g1144
ssbsg51
(dp1182
I4945386128
g1141
ssg50
g7
sbsg262
I2
sg263
g179
sg51
(dp1183
I4945386192
g0
(g116
g2
Ntp1184
Rp1185
(dp1186
g48
I2
sg120
g0
(g121
g2
Ntp1187
Rp1188
(dp1189
g48
I1
sg125
g89
(g90
(I0
tp1190
g92
tp1191
Rp1192
(I1
(I2
tp1193
g99
I00
S'H\xaf\xbc\x9a\xf2\xd7z>H\xaf\xbc\x9a\xf2\xd7z>'
p1194
tp1195
bsg51
(dp1196
I4945386192
g1185
ssg133
g89
(g90
(I0
tp1197
g92
tp1198
Rp1199
(I1
(I2
I2
tp1200
g99
I00
S'\x00\x00\x00\x00\x00\x00\x00\x00\x00\x00\x00\x00\x00\x00\x00\x00\x00\x00\x00\x00\x00\x00\xf0?\x00\x00\x00\x00\x00\x00\xf0?'
p1201
tp1202
bsg140
g89
(g90
(I0
tp1203
g92
tp1204
Rp1205
(I1
(I2
I2
tp1206
g99
I00
S'\x00\x00\x00\x00\x00\x00\x00\x00\x00\x00\x00\x00\x00\x00\x00\x00\x00\x00\x00\x00\x00\x00\xf0?\x00\x00\x00\x00\x00\x00\xf0?'
p1207
tp1208
bsg147
I01
sg50
g7
sbsg83
g1141
sg140
Nsg51
(dp1209
sg50
g7
sbssg50
g7
sbsI4945370576
g643
sI4713151248
g0
(g302
g2
Ntp1210
Rp1211
(dp1212
g48
I2
sg88
g89
(g90
(I0
tp1213
g92
tp1214
Rp1215
(I1
(I3
I3
tp1216
g99
I00
S'\x00\x00\x00\x00\x00\x00o@\x00\x00\x00\x00\x00\x00\x00\x00\x00\x00\x00\x00\x00\x00D@\x00\x00\x00\x00\x00\x00\x00\x00\x00\x00\x00\x00\x00\x00\xf0?\x00\x00\x00\x00\x00\x00\x00\x00\x00\x00\x00\x00\x00\x00\x00\x00\x00\x00\x00\x00\x00\x00\x00\x00\x00\x00\x00\x00\x00\x00\xf0?'
p1217
tp1218
bsg55
g0
(g44
g2
Ntp1219
Rp1220
(dp1221
g48
I1
sg49
Nsg50
g7
sg51
(dp1222
I4713151248
g1211
ssbsg56
g179
sg49
Nsg50
g7
sg51
(dp1223
sbsI4945386576
g0
(g172
g2
Ntp1224
Rp1225
(dp1226
g48
I2
sg176
I2
sg177
g0
(g172
g2
Ntp1227
Rp1228
(dp1229
g48
I1
sg176
I2
sg177
g0
(g84
g2
Ntp1230
Rp1231
(dp1232
g48
I1
sg88
Nsg49
Nsg115
g0
(g121
g2
Ntp1233
Rp1234
(dp1235
g48
I1
sg125
g89
(g90
(I0
tp1236
g92
tp1237
Rp1238
(I1
(I2
tp1239
g99
I00
S'H\xaf\xbc\x9a\xf2\xd7z>H\xaf\xbc\x9a\xf2\xd7z>'
p1240
tp1241
bsg51
(dp1242
I4945386448
g1231
ssg133
g89
(g90
(I0
tp1243
g92
tp1244
Rp1245
(I1
(I2
I2
tp1246
g99
I00
S'\x00\x00\x00\x00\x00\x00\x00\x00\x00\x00\x00\x00\x00\x00\x00\x00\x00\x00\x00\x00\x00\x00\xf0?\x00\x00\x00\x00\x00\x00\xf0?'
p1247
tp1248
bsg140
g89
(g90
(I0
tp1249
g92
tp1250
Rp1251
(I1
(I2
I2
tp1252
g99
I00
S'\x00\x00\x00\x00\x00\x00\x00\x00\x00\x00\x00\x00\x00\x00\x00\x00\x00\x00\x00\x00\x00\x00\xf0?\x00\x00\x00\x00\x00\x00\xf0?'
p1253
tp1254
bsg147
I01
sg50
g7
sbsg51
(dp1255
I4945386512
g1228
ssg50
g7
sbsg262
I2
sg263
g0
(g104
g2
Ntp1256
Rp1257
(dp1258
g48
I2
sg49
Nsg88
g89
(g90
(I0
tp1259
g92
tp1260
Rp1261
(I1
(I3
I3
tp1262
g99
I00
S'\x00\x00\x00\x00\x00\x00\xf0?\x00\x00\x00\x00\x00\x00\x00\x00\x00\x00\x00\x00\x00\x00\x00\x00\x00\x00\x00\x00\x00\x00\x00\x00\x00\x00\x00\x00\x00\x00\xf0?\x00\x00\x00\x00\x00\x00\x00\x00\x00\x00\x00\x00\x00\x00\x00\x00\x00\x00\x00\x00\x00\x00\x00\x00\x00\x00\x00\x00\x00\x00\xf0?'
p1263
tp1264
bsg50
g7
sg51
(dp1265
I4945386512
g1228
ssbsg51
(dp1266
I4945386576
g1225
ssg50
g7
sbsg262
I2
sg263
g179
sg51
(dp1267
I4945386640
g0
(g116
g2
Ntp1268
Rp1269
(dp1270
g48
I2
sg120
g0
(g121
g2
Ntp1271
Rp1272
(dp1273
g48
I1
sg125
g89
(g90
(I0
tp1274
g92
tp1275
Rp1276
(I1
(I2
tp1277
g99
I00
S'H\xaf\xbc\x9a\xf2\xd7z>H\xaf\xbc\x9a\xf2\xd7z>'
p1278
tp1279
bsg51
(dp1280
I4945386640
g1269
ssg133
g89
(g90
(I0
tp1281
g92
tp1282
Rp1283
(I1
(I2
I2
tp1284
g99
I00
S'\x00\x00\x00\x00\x00\x00\x00\x00\x00\x00\x00\x00\x00\x00\x00\x00\x00\x00\x00\x00\x00\x00\xf0?\x00\x00\x00\x00\x00\x00\xf0?'
p1285
tp1286
bsg140
g89
(g90
(I0
tp1287
g92
tp1288
Rp1289
(I1
(I2
I2
tp1290
g99
I00
S'\x00\x00\x00\x00\x00\x00\x00\x00\x00\x00\x00\x00\x00\x00\x00\x00\x00\x00\x00\x00\x00\x00\xf0?\x00\x00\x00\x00\x00\x00\xf0?'
p1291
tp1292
bsg147
I01
sg50
g7
sbsg83
g1225
sg140
Nsg51
(dp1293
sg50
g7
sbssg50
g7
sbsI4945086288
g0
(g172
g2
Ntp1294
Rp1295
(dp1296
g48
I2
sg176
I2
sg177
g0
(g172
g2
Ntp1297
Rp1298
(dp1299
g48
I1
sg176
I2
sg177
g0
(g84
g2
Ntp1300
Rp1301
(dp1302
g48
I1
sg88
Nsg49
Nsg115
g0
(g121
g2
Ntp1303
Rp1304
(dp1305
g48
I1
sg125
g89
(g90
(I0
tp1306
g92
tp1307
Rp1308
(I1
(I2
tp1309
g99
I00
S'H\xaf\xbc\x9a\xf2\xd7z>H\xaf\xbc\x9a\xf2\xd7z>'
p1310
tp1311
bsg51
(dp1312
I4945086160
g1301
ssg133
g89
(g90
(I0
tp1313
g92
tp1314
Rp1315
(I1
(I2
I2
tp1316
g99
I00
S'\x00\x00\x00\x00\x00\x00\x00\x00\x00\x00\x00\x00\x00\x00\x00\x00\x00\x00\x00\x00\x00\x00\xf0?\x00\x00\x00\x00\x00\x00\xf0?'
p1317
tp1318
bsg140
g89
(g90
(I0
tp1319
g92
tp1320
Rp1321
(I1
(I2
I2
tp1322
g99
I00
S'\x00\x00\x00\x00\x00\x00\x00\x00\x00\x00\x00\x00\x00\x00\x00\x00\x00\x00\x00\x00\x00\x00\xf0?\x00\x00\x00\x00\x00\x00\xf0?'
p1323
tp1324
bsg147
I01
sg50
g7
sbsg51
(dp1325
I4945086224
g1298
ssg50
g7
sbsg262
I2
sg263
g0
(g104
g2
Ntp1326
Rp1327
(dp1328
g48
I2
sg49
Nsg88
g89
(g90
(I0
tp1329
g92
tp1330
Rp1331
(I1
(I3
I3
tp1332
g99
I00
S'\x00\x00\x00\x00\x00\x00\xf0?\x00\x00\x00\x00\x00\x00\x00\x00\x00\x00\x00\x00\x00\x00\x00\x00\x00\x00\x00\x00\x00\x00\x00\x00\x00\x00\x00\x00\x00\x00\xf0?\x00\x00\x00\x00\x00\x00\x00\x00\x00\x00\x00\x00\x00\x00\x00\x00\x00\x00\x00\x00\x00\x00\x00\x00\x00\x00\x00\x00\x00\x00\xf0?'
p1333
tp1334
bsg50
g7
sg51
(dp1335
I4945086224
g1298
ssbsg51
(dp1336
I4945086288
g1295
ssg50
g7
sbsg262
I2
sg263
g179
sg51
(dp1337
I4945086352
g0
(g116
g2
Ntp1338
Rp1339
(dp1340
g48
I2
sg120
g0
(g121
g2
Ntp1341
Rp1342
(dp1343
g48
I1
sg125
g89
(g90
(I0
tp1344
g92
tp1345
Rp1346
(I1
(I2
tp1347
g99
I00
S'H\xaf\xbc\x9a\xf2\xd7z>H\xaf\xbc\x9a\xf2\xd7z>'
p1348
tp1349
bsg51
(dp1350
I4945086352
g1339
ssg133
g89
(g90
(I0
tp1351
g92
tp1352
Rp1353
(I1
(I2
I2
tp1354
g99
I00
S'\x00\x00\x00\x00\x00\x00\x00\x00\x00\x00\x00\x00\x00\x00\x00\x00\x00\x00\x00\x00\x00\x00\xf0?\x00\x00\x00\x00\x00\x00\xf0?'
p1355
tp1356
bsg140
g89
(g90
(I0
tp1357
g92
tp1358
Rp1359
(I1
(I2
I2
tp1360
g99
I00
S'\x00\x00\x00\x00\x00\x00\x00\x00\x00\x00\x00\x00\x00\x00\x00\x00\x00\x00\x00\x00\x00\x00\xf0?\x00\x00\x00\x00\x00\x00\xf0?'
p1361
tp1362
bsg147
I01
sg50
g7
sbsg83
g1295
sg140
Nsg51
(dp1363
sg50
g7
sbssg50
g7
sbsI4713127312
g0
(g172
g2
Ntp1364
Rp1365
(dp1366
g48
I2
sg176
I2
sg177
g0
(g172
g2
Ntp1367
Rp1368
(dp1369
g48
I1
sg176
I2
sg177
g0
(g84
g2
Ntp1370
Rp1371
(dp1372
g48
I1
sg88
Nsg49
Nsg115
g0
(g121
g2
Ntp1373
Rp1374
(dp1375
g48
I1
sg125
g89
(g90
(I0
tp1376
g92
tp1377
Rp1378
(I1
(I2
tp1379
g99
I00
S'H\xaf\xbc\x9a\xf2\xd7z>H\xaf\xbc\x9a\xf2\xd7z>'
p1380
tp1381
bsg51
(dp1382
I4945421072
g1371
ssg133
g89
(g90
(I0
tp1383
g92
tp1384
Rp1385
(I1
(I2
I2
tp1386
g99
I00
S'\x00\x00\x00\x00\x00\x00\x00\x00\x00\x00\x00\x00\x00\x00\x00\x00\x00\x00\x00\x00\x00\x00\xf0?\x00\x00\x00\x00\x00\x00\xf0?'
p1387
tp1388
bsg140
g89
(g90
(I0
tp1389
g92
tp1390
Rp1391
(I1
(I2
I2
tp1392
g99
I00
S'\x00\x00\x00\x00\x00\x00\x00\x00\x00\x00\x00\x00\x00\x00\x00\x00\x00\x00\x00\x00\x00\x00\xf0?\x00\x00\x00\x00\x00\x00\xf0?'
p1393
tp1394
bsg147
I01
sg50
g7
sbsg51
(dp1395
I4945421136
g1368
ssg50
g7
sbsg262
I2
sg263
g0
(g104
g2
Ntp1396
Rp1397
(dp1398
g48
I2
sg49
Nsg88
g89
(g90
(I0
tp1399
g92
tp1400
Rp1401
(I1
(I3
I3
tp1402
g99
I00
S'\x00\x00\x00\x00\x00\x00\xf0?\x00\x00\x00\x00\x00\x00\x00\x00\x00\x00\x00\x00\x00\x00\x00\x00\x00\x00\x00\x00\x00\x00\x00\x00\x00\x00\x00\x00\x00\x00\xf0?\x00\x00\x00\x00\x00\x00\x00\x00\x00\x00\x00\x00\x00\x00\x00\x00\x00\x00\x00\x00\x00\x00\x00\x00\x00\x00\x00\x00\x00\x00\xf0?'
p1403
tp1404
bsg50
g7
sg51
(dp1405
I4945421136
g1368
ssbsg51
(dp1406
I4713127312
g1365
ssg50
g7
sbsg262
I2
sg263
g179
sg51
(dp1407
I4713125776
g0
(g116
g2
Ntp1408
Rp1409
(dp1410
g48
I2
sg120
g0
(g121
g2
Ntp1411
Rp1412
(dp1413
g48
I1
sg125
g89
(g90
(I0
tp1414
g92
tp1415
Rp1416
(I1
(I2
tp1417
g99
I00
S'H\xaf\xbc\x9a\xf2\xd7z>H\xaf\xbc\x9a\xf2\xd7z>'
p1418
tp1419
bsg51
(dp1420
I4713125776
g1409
ssg133
g89
(g90
(I0
tp1421
g92
tp1422
Rp1423
(I1
(I2
I2
tp1424
g99
I00
S'\x00\x00\x00\x00\x00\x00\x00\x00\x00\x00\x00\x00\x00\x00\x00\x00\x00\x00\x00\x00\x00\x00\xf0?\x00\x00\x00\x00\x00\x00\xf0?'
p1425
tp1426
bsg140
g89
(g90
(I0
tp1427
g92
tp1428
Rp1429
(I1
(I2
I2
tp1430
g99
I00
S'\x00\x00\x00\x00\x00\x00\x00\x00\x00\x00\x00\x00\x00\x00\x00\x00\x00\x00\x00\x00\x00\x00\xf0?\x00\x00\x00\x00\x00\x00\xf0?'
p1431
tp1432
bsg147
I01
sg50
g7
sbsg83
g1365
sg140
Nsg51
(dp1433
sg50
g7
sbssg50
g7
sbsI4713311696
g0
(g172
g2
Ntp1434
Rp1435
(dp1436
g48
I2
sg176
I2
sg177
g179
sg262
I2
sg263
g160
sg51
(dp1437
sg50
g7
sbsI4945370640
g718
sI4713125200
g0
(g302
g2
Ntp1438
Rp1439
(dp1440
g48
I2
sg88
g89
(g90
(I0
tp1441
g92
tp1442
Rp1443
(I1
(I3
I3
tp1444
g99
I00
S'\x00\x00\x00\x00\x00\x00o@\x00\x00\x00\x00\x00\x00\x00\x00\x00\x00\x00\x00\x00\x00D@\x00\x00\x00\x00\x00\x00\x00\x00\x00\x00\x00\x00\x00\x00\xf0?\x00\x00\x00\x00\x00\x00\x00\x00\x00\x00\x00\x00\x00\x00\x00\x00\x00\x00\x00\x00\x00\x00\x00\x00\x00\x00\x00\x00\x00\x00\xf0?'
p1445
tp1446
bsg55
g0
(g44
g2
Ntp1447
Rp1448
(dp1449
g48
I1
sg49
Nsg50
g7
sg51
(dp1450
I4713125200
g1439
ssbsg56
g179
sg49
Nsg50
g7
sg51
(dp1451
sbsI4945088272
g0
(g172
g2
Ntp1452
Rp1453
(dp1454
g48
I2
sg176
I2
sg177
g0
(g172
g2
Ntp1455
Rp1456
(dp1457
g48
I1
sg176
I2
sg177
g0
(g84
g2
Ntp1458
Rp1459
(dp1460
g48
I1
sg88
Nsg49
Nsg115
g0
(g121
g2
Ntp1461
Rp1462
(dp1463
g48
I1
sg125
g89
(g90
(I0
tp1464
g92
tp1465
Rp1466
(I1
(I2
tp1467
g99
I00
S'H\xaf\xbc\x9a\xf2\xd7z>H\xaf\xbc\x9a\xf2\xd7z>'
p1468
tp1469
bsg51
(dp1470
I4945088144
g1459
ssg133
g89
(g90
(I0
tp1471
g92
tp1472
Rp1473
(I1
(I2
I2
tp1474
g99
I00
S'\x00\x00\x00\x00\x00\x00\x00\x00\x00\x00\x00\x00\x00\x00\x00\x00\x00\x00\x00\x00\x00\x00\xf0?\x00\x00\x00\x00\x00\x00\xf0?'
p1475
tp1476
bsg140
g89
(g90
(I0
tp1477
g92
tp1478
Rp1479
(I1
(I2
I2
tp1480
g99
I00
S'\x00\x00\x00\x00\x00\x00\x00\x00\x00\x00\x00\x00\x00\x00\x00\x00\x00\x00\x00\x00\x00\x00\xf0?\x00\x00\x00\x00\x00\x00\xf0?'
p1481
tp1482
bsg147
I01
sg50
g7
sbsg51
(dp1483
I4945088208
g1456
ssg50
g7
sbsg262
I2
sg263
g0
(g104
g2
Ntp1484
Rp1485
(dp1486
g48
I2
sg49
Nsg88
g89
(g90
(I0
tp1487
g92
tp1488
Rp1489
(I1
(I3
I3
tp1490
g99
I00
S'\x00\x00\x00\x00\x00\x00\xf0?\x00\x00\x00\x00\x00\x00\x00\x00\x00\x00\x00\x00\x00\x00\x00\x00\x00\x00\x00\x00\x00\x00\x00\x00\x00\x00\x00\x00\x00\x00\xf0?\x00\x00\x00\x00\x00\x00\x00\x00\x00\x00\x00\x00\x00\x00\x00\x00\x00\x00\x00\x00\x00\x00\x00\x00\x00\x00\x00\x00\x00\x00\xf0?'
p1491
tp1492
bsg50
g7
sg51
(dp1493
I4945088208
g1456
ssbsg51
(dp1494
I4945088272
g1453
ssg50
g7
sbsg262
I2
sg263
g179
sg51
(dp1495
I4945088336
g0
(g116
g2
Ntp1496
Rp1497
(dp1498
g48
I2
sg120
g0
(g121
g2
Ntp1499
Rp1500
(dp1501
g48
I1
sg125
g89
(g90
(I0
tp1502
g92
tp1503
Rp1504
(I1
(I2
tp1505
g99
I00
S'H\xaf\xbc\x9a\xf2\xd7z>H\xaf\xbc\x9a\xf2\xd7z>'
p1506
tp1507
bsg51
(dp1508
I4945088336
g1497
ssg133
g89
(g90
(I0
tp1509
g92
tp1510
Rp1511
(I1
(I2
I2
tp1512
g99
I00
S'\x00\x00\x00\x00\x00\x00\x00\x00\x00\x00\x00\x00\x00\x00\x00\x00\x00\x00\x00\x00\x00\x00\xf0?\x00\x00\x00\x00\x00\x00\xf0?'
p1513
tp1514
bsg140
g89
(g90
(I0
tp1515
g92
tp1516
Rp1517
(I1
(I2
I2
tp1518
g99
I00
S'\x00\x00\x00\x00\x00\x00\x00\x00\x00\x00\x00\x00\x00\x00\x00\x00\x00\x00\x00\x00\x00\x00\xf0?\x00\x00\x00\x00\x00\x00\xf0?'
p1519
tp1520
bsg147
I01
sg50
g7
sbsg83
g1453
sg140
Nsg51
(dp1521
sg50
g7
sbssg50
g7
sbsI4945422096
g0
(g172
g2
Ntp1522
Rp1523
(dp1524
g48
I2
sg176
I2
sg177
g0
(g172
g2
Ntp1525
Rp1526
(dp1527
g48
I1
sg176
I2
sg177
g0
(g84
g2
Ntp1528
Rp1529
(dp1530
g48
I1
sg88
Nsg49
Nsg115
g0
(g121
g2
Ntp1531
Rp1532
(dp1533
g48
I1
sg125
g89
(g90
(I0
tp1534
g92
tp1535
Rp1536
(I1
(I2
tp1537
g99
I00
S'H\xaf\xbc\x9a\xf2\xd7z>H\xaf\xbc\x9a\xf2\xd7z>'
p1538
tp1539
bsg51
(dp1540
I4945421968
g1529
ssg133
g89
(g90
(I0
tp1541
g92
tp1542
Rp1543
(I1
(I2
I2
tp1544
g99
I00
S'\x00\x00\x00\x00\x00\x00\x00\x00\x00\x00\x00\x00\x00\x00\x00\x00\x00\x00\x00\x00\x00\x00\xf0?\x00\x00\x00\x00\x00\x00\xf0?'
p1545
tp1546
bsg140
g89
(g90
(I0
tp1547
g92
tp1548
Rp1549
(I1
(I2
I2
tp1550
g99
I00
S'\x00\x00\x00\x00\x00\x00\x00\x00\x00\x00\x00\x00\x00\x00\x00\x00\x00\x00\x00\x00\x00\x00\xf0?\x00\x00\x00\x00\x00\x00\xf0?'
p1551
tp1552
bsg147
I01
sg50
g7
sbsg51
(dp1553
I4945422032
g1526
ssg50
g7
sbsg262
I2
sg263
g0
(g104
g2
Ntp1554
Rp1555
(dp1556
g48
I2
sg49
Nsg88
g89
(g90
(I0
tp1557
g92
tp1558
Rp1559
(I1
(I3
I3
tp1560
g99
I00
S'\x00\x00\x00\x00\x00\x00\xf0?\x00\x00\x00\x00\x00\x00\x00\x00\x00\x00\x00\x00\x00\x00\x00\x00\x00\x00\x00\x00\x00\x00\x00\x00\x00\x00\x00\x00\x00\x00\xf0?\x00\x00\x00\x00\x00\x00\x00\x00\x00\x00\x00\x00\x00\x00\x00\x00\x00\x00\x00\x00\x00\x00\x00\x00\x00\x00\x00\x00\x00\x00\xf0?'
p1561
tp1562
bsg50
g7
sg51
(dp1563
I4945422032
g1526
ssbsg51
(dp1564
I4945422096
g1523
ssg50
g7
sbsg262
I2
sg263
g179
sg51
(dp1565
I4945422160
g0
(g116
g2
Ntp1566
Rp1567
(dp1568
g48
I2
sg120
g0
(g121
g2
Ntp1569
Rp1570
(dp1571
g48
I1
sg125
g89
(g90
(I0
tp1572
g92
tp1573
Rp1574
(I1
(I2
tp1575
g99
I00
S'H\xaf\xbc\x9a\xf2\xd7z>H\xaf\xbc\x9a\xf2\xd7z>'
p1576
tp1577
bsg51
(dp1578
I4945422160
g1567
ssg133
g89
(g90
(I0
tp1579
g92
tp1580
Rp1581
(I1
(I2
I2
tp1582
g99
I00
S'\x00\x00\x00\x00\x00\x00\x00\x00\x00\x00\x00\x00\x00\x00\x00\x00\x00\x00\x00\x00\x00\x00\xf0?\x00\x00\x00\x00\x00\x00\xf0?'
p1583
tp1584
bsg140
g89
(g90
(I0
tp1585
g92
tp1586
Rp1587
(I1
(I2
I2
tp1588
g99
I00
S'\x00\x00\x00\x00\x00\x00\x00\x00\x00\x00\x00\x00\x00\x00\x00\x00\x00\x00\x00\x00\x00\x00\xf0?\x00\x00\x00\x00\x00\x00\xf0?'
p1589
tp1590
bsg147
I01
sg50
g7
sbsg83
g1523
sg140
Nsg51
(dp1591
sg50
g7
sbssg50
g7
sbsI4945385680
g0
(g172
g2
Ntp1592
Rp1593
(dp1594
g48
I2
sg176
I2
sg177
g0
(g172
g2
Ntp1595
Rp1596
(dp1597
g48
I1
sg176
I2
sg177
g0
(g84
g2
Ntp1598
Rp1599
(dp1600
g48
I1
sg88
Nsg49
Nsg115
g0
(g121
g2
Ntp1601
Rp1602
(dp1603
g48
I1
sg125
g89
(g90
(I0
tp1604
g92
tp1605
Rp1606
(I1
(I2
tp1607
g99
I00
S'H\xaf\xbc\x9a\xf2\xd7z>H\xaf\xbc\x9a\xf2\xd7z>'
p1608
tp1609
bsg51
(dp1610
I4945385552
g1599
ssg133
g89
(g90
(I0
tp1611
g92
tp1612
Rp1613
(I1
(I2
I2
tp1614
g99
I00
S'\x00\x00\x00\x00\x00\x00\x00\x00\x00\x00\x00\x00\x00\x00\x00\x00\x00\x00\x00\x00\x00\x00\xf0?\x00\x00\x00\x00\x00\x00\xf0?'
p1615
tp1616
bsg140
g89
(g90
(I0
tp1617
g92
tp1618
Rp1619
(I1
(I2
I2
tp1620
g99
I00
S'\x00\x00\x00\x00\x00\x00\x00\x00\x00\x00\x00\x00\x00\x00\x00\x00\x00\x00\x00\x00\x00\x00\xf0?\x00\x00\x00\x00\x00\x00\xf0?'
p1621
tp1622
bsg147
I01
sg50
g7
sbsg51
(dp1623
I4945385616
g1596
ssg50
g7
sbsg262
I2
sg263
g0
(g104
g2
Ntp1624
Rp1625
(dp1626
g48
I2
sg49
Nsg88
g89
(g90
(I0
tp1627
g92
tp1628
Rp1629
(I1
(I3
I3
tp1630
g99
I00
S'\x00\x00\x00\x00\x00\x00\xf0?\x00\x00\x00\x00\x00\x00\x00\x00\x00\x00\x00\x00\x00\x00\x00\x00\x00\x00\x00\x00\x00\x00\x00\x00\x00\x00\x00\x00\x00\x00\xf0?\x00\x00\x00\x00\x00\x00\x00\x00\x00\x00\x00\x00\x00\x00\x00\x00\x00\x00\x00\x00\x00\x00\x00\x00\x00\x00\x00\x00\x00\x00\xf0?'
p1631
tp1632
bsg50
g7
sg51
(dp1633
I4945385616
g1596
ssbsg51
(dp1634
I4945385680
g1593
ssg50
g7
sbsg262
I2
sg263
g179
sg51
(dp1635
I4945385744
g0
(g116
g2
Ntp1636
Rp1637
(dp1638
g48
I2
sg120
g0
(g121
g2
Ntp1639
Rp1640
(dp1641
g48
I1
sg125
g89
(g90
(I0
tp1642
g92
tp1643
Rp1644
(I1
(I2
tp1645
g99
I00
S'H\xaf\xbc\x9a\xf2\xd7z>H\xaf\xbc\x9a\xf2\xd7z>'
p1646
tp1647
bsg51
(dp1648
I4945385744
g1637
ssg133
g89
(g90
(I0
tp1649
g92
tp1650
Rp1651
(I1
(I2
I2
tp1652
g99
I00
S'\x00\x00\x00\x00\x00\x00\x00\x00\x00\x00\x00\x00\x00\x00\x00\x00\x00\x00\x00\x00\x00\x00\xf0?\x00\x00\x00\x00\x00\x00\xf0?'
p1653
tp1654
bsg140
g89
(g90
(I0
tp1655
g92
tp1656
Rp1657
(I1
(I2
I2
tp1658
g99
I00
S'\x00\x00\x00\x00\x00\x00\x00\x00\x00\x00\x00\x00\x00\x00\x00\x00\x00\x00\x00\x00\x00\x00\xf0?\x00\x00\x00\x00\x00\x00\xf0?'
p1659
tp1660
bsg147
I01
sg50
g7
sbsg83
g1593
sg140
Nsg51
(dp1661
sg50
g7
sbssg50
g7
sbsI4713312144
g0
(g172
g2
Ntp1662
Rp1663
(dp1664
g48
I2
sg176
I2
sg177
g0
(g172
g2
Ntp1665
Rp1666
(dp1667
g48
I1
sg176
I2
sg177
g0
(g84
g2
Ntp1668
Rp1669
(dp1670
g48
I1
sg88
Nsg49
Nsg115
g0
(g121
g2
Ntp1671
Rp1672
(dp1673
g48
I1
sg125
g89
(g90
(I0
tp1674
g92
tp1675
Rp1676
(I1
(I2
tp1677
g99
I00
S'H\xaf\xbc\x9a\xf2\xd7z>H\xaf\xbc\x9a\xf2\xd7z>'
p1678
tp1679
bsg51
(dp1680
I4713312080
g1669
ssg133
g89
(g90
(I0
tp1681
g92
tp1682
Rp1683
(I1
(I2
I2
tp1684
g99
I00
S'\x00\x00\x00\x00\x00\x00\x00\x00\x00\x00\x00\x00\x00\x00\x00\x00\x00\x00\x00\x00\x00\x00\xf0?\x00\x00\x00\x00\x00\x00\xf0?'
p1685
tp1686
bsg140
g89
(g90
(I0
tp1687
g92
tp1688
Rp1689
(I1
(I2
I2
tp1690
g99
I00
S'\x00\x00\x00\x00\x00\x00\x00\x00\x00\x00\x00\x00\x00\x00\x00\x00\x00\x00\x00\x00\x00\x00\xf0?\x00\x00\x00\x00\x00\x00\xf0?'
p1691
tp1692
bsg147
I01
sg50
g7
sbsg51
(dp1693
I4713311824
g1666
ssg50
g7
sbsg262
I2
sg263
g0
(g104
g2
Ntp1694
Rp1695
(dp1696
g48
I2
sg49
Nsg88
g89
(g90
(I0
tp1697
g92
tp1698
Rp1699
(I1
(I3
I3
tp1700
g99
I00
S'\x00\x00\x00\x00\x00\x00\xf0?\x00\x00\x00\x00\x00\x00\x00\x00\x00\x00\x00\x00\x00\x00\x00\x00\x00\x00\x00\x00\x00\x00\x00\x00\x00\x00\x00\x00\x00\x00\xf0?\x00\x00\x00\x00\x00\x00\x00\x00\x00\x00\x00\x00\x00\x00\x00\x00\x00\x00\x00\x00\x00\x00\x00\x00\x00\x00\x00\x00\x00\x00\xf0?'
p1701
tp1702
bsg50
g7
sg51
(dp1703
I4713311824
g1666
ssbsg51
(dp1704
I4713312144
g1663
ssg50
g7
sbsg262
I2
sg263
g179
sg51
(dp1705
I4713312208
g0
(g116
g2
Ntp1706
Rp1707
(dp1708
g48
I2
sg120
g0
(g121
g2
Ntp1709
Rp1710
(dp1711
g48
I1
sg125
g89
(g90
(I0
tp1712
g92
tp1713
Rp1714
(I1
(I2
tp1715
g99
I00
S'H\xaf\xbc\x9a\xf2\xd7z>H\xaf\xbc\x9a\xf2\xd7z>'
p1716
tp1717
bsg51
(dp1718
I4713312208
g1707
ssg133
g89
(g90
(I0
tp1719
g92
tp1720
Rp1721
(I1
(I2
I2
tp1722
g99
I00
S'\x00\x00\x00\x00\x00\x00\x00\x00\x00\x00\x00\x00\x00\x00\x00\x00\x00\x00\x00\x00\x00\x00\xf0?\x00\x00\x00\x00\x00\x00\xf0?'
p1723
tp1724
bsg140
g89
(g90
(I0
tp1725
g92
tp1726
Rp1727
(I1
(I2
I2
tp1728
g99
I00
S'\x00\x00\x00\x00\x00\x00\x00\x00\x00\x00\x00\x00\x00\x00\x00\x00\x00\x00\x00\x00\x00\x00\xf0?\x00\x00\x00\x00\x00\x00\xf0?'
p1729
tp1730
bsg147
I01
sg50
g7
sbsg83
g1663
sg140
Nsg51
(dp1731
sg50
g7
sbssg50
g7
sbsI4945424336
g0
(g172
g2
Ntp1732
Rp1733
(dp1734
g48
I2
sg176
I2
sg177
g0
(g172
g2
Ntp1735
Rp1736
(dp1737
g48
I1
sg176
I2
sg177
g0
(g84
g2
Ntp1738
Rp1739
(dp1740
g48
I1
sg88
Nsg49
Nsg115
g0
(g121
g2
Ntp1741
Rp1742
(dp1743
g48
I1
sg125
g89
(g90
(I0
tp1744
g92
tp1745
Rp1746
(I1
(I2
tp1747
g99
I00
S'H\xaf\xbc\x9a\xf2\xd7z>H\xaf\xbc\x9a\xf2\xd7z>'
p1748
tp1749
bsg51
(dp1750
I4945424208
g1739
ssg133
g89
(g90
(I0
tp1751
g92
tp1752
Rp1753
(I1
(I2
I2
tp1754
g99
I00
S'\x00\x00\x00\x00\x00\x00\x00\x00\x00\x00\x00\x00\x00\x00\x00\x00\x00\x00\x00\x00\x00\x00\xf0?\x00\x00\x00\x00\x00\x00\xf0?'
p1755
tp1756
bsg140
g89
(g90
(I0
tp1757
g92
tp1758
Rp1759
(I1
(I2
I2
tp1760
g99
I00
S'\x00\x00\x00\x00\x00\x00\x00\x00\x00\x00\x00\x00\x00\x00\x00\x00\x00\x00\x00\x00\x00\x00\xf0?\x00\x00\x00\x00\x00\x00\xf0?'
p1761
tp1762
bsg147
I01
sg50
g7
sbsg51
(dp1763
I4945424272
g1736
ssg50
g7
sbsg262
I2
sg263
g0
(g104
g2
Ntp1764
Rp1765
(dp1766
g48
I2
sg49
Nsg88
g89
(g90
(I0
tp1767
g92
tp1768
Rp1769
(I1
(I3
I3
tp1770
g99
I00
S'\x00\x00\x00\x00\x00\x00\xf0?\x00\x00\x00\x00\x00\x00\x00\x00\x00\x00\x00\x00\x00\x00\x00\x00\x00\x00\x00\x00\x00\x00\x00\x00\x00\x00\x00\x00\x00\x00\xf0?\x00\x00\x00\x00\x00\x00\x00\x00\x00\x00\x00\x00\x00\x00\x00\x00\x00\x00\x00\x00\x00\x00\x00\x00\x00\x00\x00\x00\x00\x00\xf0?'
p1771
tp1772
bsg50
g7
sg51
(dp1773
I4945424272
g1736
ssbsg51
(dp1774
I4945424336
g1733
ssg50
g7
sbsg262
I2
sg263
g179
sg51
(dp1775
I4945383504
g0
(g116
g2
Ntp1776
Rp1777
(dp1778
g48
I2
sg120
g0
(g121
g2
Ntp1779
Rp1780
(dp1781
g48
I1
sg125
g89
(g90
(I0
tp1782
g92
tp1783
Rp1784
(I1
(I2
tp1785
g99
I00
S'H\xaf\xbc\x9a\xf2\xd7z>H\xaf\xbc\x9a\xf2\xd7z>'
p1786
tp1787
bsg51
(dp1788
I4945383504
g1777
ssg133
g89
(g90
(I0
tp1789
g92
tp1790
Rp1791
(I1
(I2
I2
tp1792
g99
I00
S'\x00\x00\x00\x00\x00\x00\x00\x00\x00\x00\x00\x00\x00\x00\x00\x00\x00\x00\x00\x00\x00\x00\xf0?\x00\x00\x00\x00\x00\x00\xf0?'
p1793
tp1794
bsg140
g89
(g90
(I0
tp1795
g92
tp1796
Rp1797
(I1
(I2
I2
tp1798
g99
I00
S'\x00\x00\x00\x00\x00\x00\x00\x00\x00\x00\x00\x00\x00\x00\x00\x00\x00\x00\x00\x00\x00\x00\xf0?\x00\x00\x00\x00\x00\x00\xf0?'
p1799
tp1800
bsg147
I01
sg50
g7
sbsg83
g1733
sg140
Nsg51
(dp1801
sg50
g7
sbssg50
g7
sbsI4713311568
g174
sI4945422992
g0
(g172
g2
Ntp1802
Rp1803
(dp1804
g48
I2
sg176
I2
sg177
g0
(g172
g2
Ntp1805
Rp1806
(dp1807
g48
I1
sg176
I2
sg177
g0
(g84
g2
Ntp1808
Rp1809
(dp1810
g48
I1
sg88
Nsg49
Nsg115
g0
(g121
g2
Ntp1811
Rp1812
(dp1813
g48
I1
sg125
g89
(g90
(I0
tp1814
g92
tp1815
Rp1816
(I1
(I2
tp1817
g99
I00
S'H\xaf\xbc\x9a\xf2\xd7z>H\xaf\xbc\x9a\xf2\xd7z>'
p1818
tp1819
bsg51
(dp1820
I4945422864
g1809
ssg133
g89
(g90
(I0
tp1821
g92
tp1822
Rp1823
(I1
(I2
I2
tp1824
g99
I00
S'\x00\x00\x00\x00\x00\x00\x00\x00\x00\x00\x00\x00\x00\x00\x00\x00\x00\x00\x00\x00\x00\x00\xf0?\x00\x00\x00\x00\x00\x00\xf0?'
p1825
tp1826
bsg140
g89
(g90
(I0
tp1827
g92
tp1828
Rp1829
(I1
(I2
I2
tp1830
g99
I00
S'\x00\x00\x00\x00\x00\x00\x00\x00\x00\x00\x00\x00\x00\x00\x00\x00\x00\x00\x00\x00\x00\x00\xf0?\x00\x00\x00\x00\x00\x00\xf0?'
p1831
tp1832
bsg147
I01
sg50
g7
sbsg51
(dp1833
I4945422928
g1806
ssg50
g7
sbsg262
I2
sg263
g0
(g104
g2
Ntp1834
Rp1835
(dp1836
g48
I2
sg49
Nsg88
g89
(g90
(I0
tp1837
g92
tp1838
Rp1839
(I1
(I3
I3
tp1840
g99
I00
S'\x00\x00\x00\x00\x00\x00\xf0?\x00\x00\x00\x00\x00\x00\x00\x00\x00\x00\x00\x00\x00\x00\x00\x00\x00\x00\x00\x00\x00\x00\x00\x00\x00\x00\x00\x00\x00\x00\xf0?\x00\x00\x00\x00\x00\x00\x00\x00\x00\x00\x00\x00\x00\x00\x00\x00\x00\x00\x00\x00\x00\x00\x00\x00\x00\x00\x00\x00\x00\x00\xf0?'
p1841
tp1842
bsg50
g7
sg51
(dp1843
I4945422928
g1806
ssbsg51
(dp1844
I4945422992
g1803
ssg50
g7
sbsg262
I2
sg263
g179
sg51
(dp1845
I4945423056
g0
(g116
g2
Ntp1846
Rp1847
(dp1848
g48
I2
sg120
g0
(g121
g2
Ntp1849
Rp1850
(dp1851
g48
I1
sg125
g89
(g90
(I0
tp1852
g92
tp1853
Rp1854
(I1
(I2
tp1855
g99
I00
S'H\xaf\xbc\x9a\xf2\xd7z>H\xaf\xbc\x9a\xf2\xd7z>'
p1856
tp1857
bsg51
(dp1858
I4945423056
g1847
ssg133
g89
(g90
(I0
tp1859
g92
tp1860
Rp1861
(I1
(I2
I2
tp1862
g99
I00
S'\x00\x00\x00\x00\x00\x00\x00\x00\x00\x00\x00\x00\x00\x00\x00\x00\x00\x00\x00\x00\x00\x00\xf0?\x00\x00\x00\x00\x00\x00\xf0?'
p1863
tp1864
bsg140
g89
(g90
(I0
tp1865
g92
tp1866
Rp1867
(I1
(I2
I2
tp1868
g99
I00
S'\x00\x00\x00\x00\x00\x00\x00\x00\x00\x00\x00\x00\x00\x00\x00\x00\x00\x00\x00\x00\x00\x00\xf0?\x00\x00\x00\x00\x00\x00\xf0?'
p1869
tp1870
bsg147
I01
sg50
g7
sbsg83
g1803
sg140
Nsg51
(dp1871
sg50
g7
sbssg50
g7
sbsI4945423824
g0
(g172
g2
Ntp1872
Rp1873
(dp1874
g48
I2
sg176
I2
sg177
g0
(g172
g2
Ntp1875
Rp1876
(dp1877
g48
I1
sg176
I2
sg177
g0
(g84
g2
Ntp1878
Rp1879
(dp1880
g48
I1
sg88
Nsg49
Nsg115
g0
(g121
g2
Ntp1881
Rp1882
(dp1883
g48
I1
sg125
g89
(g90
(I0
tp1884
g92
tp1885
Rp1886
(I1
(I2
tp1887
g99
I00
S'H\xaf\xbc\x9a\xf2\xd7z>H\xaf\xbc\x9a\xf2\xd7z>'
p1888
tp1889
bsg51
(dp1890
I4945423696
g1879
ssg133
g89
(g90
(I0
tp1891
g92
tp1892
Rp1893
(I1
(I2
I2
tp1894
g99
I00
S'\x00\x00\x00\x00\x00\x00\x00\x00\x00\x00\x00\x00\x00\x00\x00\x00\x00\x00\x00\x00\x00\x00\xf0?\x00\x00\x00\x00\x00\x00\xf0?'
p1895
tp1896
bsg140
g89
(g90
(I0
tp1897
g92
tp1898
Rp1899
(I1
(I2
I2
tp1900
g99
I00
S'\x00\x00\x00\x00\x00\x00\x00\x00\x00\x00\x00\x00\x00\x00\x00\x00\x00\x00\x00\x00\x00\x00\xf0?\x00\x00\x00\x00\x00\x00\xf0?'
p1901
tp1902
bsg147
I01
sg50
g7
sbsg51
(dp1903
I4945423760
g1876
ssg50
g7
sbsg262
I2
sg263
g0
(g104
g2
Ntp1904
Rp1905
(dp1906
g48
I2
sg49
Nsg88
g89
(g90
(I0
tp1907
g92
tp1908
Rp1909
(I1
(I3
I3
tp1910
g99
I00
S'\x00\x00\x00\x00\x00\x00\xf0?\x00\x00\x00\x00\x00\x00\x00\x00\x00\x00\x00\x00\x00\x00\x00\x00\x00\x00\x00\x00\x00\x00\x00\x00\x00\x00\x00\x00\x00\x00\xf0?\x00\x00\x00\x00\x00\x00\x00\x00\x00\x00\x00\x00\x00\x00\x00\x00\x00\x00\x00\x00\x00\x00\x00\x00\x00\x00\x00\x00\x00\x00\xf0?'
p1911
tp1912
bsg50
g7
sg51
(dp1913
I4945423760
g1876
ssbsg51
(dp1914
I4945423824
g1873
ssg50
g7
sbsg262
I2
sg263
g179
sg51
(dp1915
I4945423888
g0
(g116
g2
Ntp1916
Rp1917
(dp1918
g48
I2
sg120
g0
(g121
g2
Ntp1919
Rp1920
(dp1921
g48
I1
sg125
g89
(g90
(I0
tp1922
g92
tp1923
Rp1924
(I1
(I2
tp1925
g99
I00
S'H\xaf\xbc\x9a\xf2\xd7z>H\xaf\xbc\x9a\xf2\xd7z>'
p1926
tp1927
bsg51
(dp1928
I4945423888
g1917
ssg133
g89
(g90
(I0
tp1929
g92
tp1930
Rp1931
(I1
(I2
I2
tp1932
g99
I00
S'\x00\x00\x00\x00\x00\x00\x00\x00\x00\x00\x00\x00\x00\x00\x00\x00\x00\x00\x00\x00\x00\x00\xf0?\x00\x00\x00\x00\x00\x00\xf0?'
p1933
tp1934
bsg140
g89
(g90
(I0
tp1935
g92
tp1936
Rp1937
(I1
(I2
I2
tp1938
g99
I00
S'\x00\x00\x00\x00\x00\x00\x00\x00\x00\x00\x00\x00\x00\x00\x00\x00\x00\x00\x00\x00\x00\x00\xf0?\x00\x00\x00\x00\x00\x00\xf0?'
p1939
tp1940
bsg147
I01
sg50
g7
sbsg83
g1873
sg140
Nsg51
(dp1941
sg50
g7
sbssg50
g7
sbsI4945261008
g0
(g172
g2
Ntp1942
Rp1943
(dp1944
g48
I2
sg176
I2
sg177
g0
(g172
g2
Ntp1945
Rp1946
(dp1947
g48
I1
sg176
I2
sg177
g0
(g84
g2
Ntp1948
Rp1949
(dp1950
g48
I1
sg88
Nsg49
Nsg115
g0
(g121
g2
Ntp1951
Rp1952
(dp1953
g48
I1
sg125
g89
(g90
(I0
tp1954
g92
tp1955
Rp1956
(I1
(I2
tp1957
g99
I00
S'H\xaf\xbc\x9a\xf2\xd7z>H\xaf\xbc\x9a\xf2\xd7z>'
p1958
tp1959
bsg51
(dp1960
I4945260880
g1949
ssg133
g89
(g90
(I0
tp1961
g92
tp1962
Rp1963
(I1
(I2
I2
tp1964
g99
I00
S'\x00\x00\x00\x00\x00\x00\x00\x00\x00\x00\x00\x00\x00\x00\x00\x00\x00\x00\x00\x00\x00\x00\xf0?\x00\x00\x00\x00\x00\x00\xf0?'
p1965
tp1966
bsg140
g89
(g90
(I0
tp1967
g92
tp1968
Rp1969
(I1
(I2
I2
tp1970
g99
I00
S'\x00\x00\x00\x00\x00\x00\x00\x00\x00\x00\x00\x00\x00\x00\x00\x00\x00\x00\x00\x00\x00\x00\xf0?\x00\x00\x00\x00\x00\x00\xf0?'
p1971
tp1972
bsg147
I01
sg50
g7
sbsg51
(dp1973
I4945260944
g1946
ssg50
g7
sbsg262
I2
sg263
g0
(g104
g2
Ntp1974
Rp1975
(dp1976
g48
I2
sg49
Nsg88
g89
(g90
(I0
tp1977
g92
tp1978
Rp1979
(I1
(I3
I3
tp1980
g99
I00
S'\x00\x00\x00\x00\x00\x00\xf0?\x00\x00\x00\x00\x00\x00\x00\x00\x00\x00\x00\x00\x00\x00\x00\x00\x00\x00\x00\x00\x00\x00\x00\x00\x00\x00\x00\x00\x00\x00\xf0?\x00\x00\x00\x00\x00\x00\x00\x00\x00\x00\x00\x00\x00\x00\x00\x00\x00\x00\x00\x00\x00\x00\x00\x00\x00\x00\x00\x00\x00\x00\xf0?'
p1981
tp1982
bsg50
g7
sg51
(dp1983
I4945260944
g1946
ssbsg51
(dp1984
I4945261008
g1943
ssg50
g7
sbsg262
I2
sg263
g179
sg51
(dp1985
I4945261072
g0
(g116
g2
Ntp1986
Rp1987
(dp1988
g48
I2
sg120
g0
(g121
g2
Ntp1989
Rp1990
(dp1991
g48
I1
sg125
g89
(g90
(I0
tp1992
g92
tp1993
Rp1994
(I1
(I2
tp1995
g99
I00
S'H\xaf\xbc\x9a\xf2\xd7z>H\xaf\xbc\x9a\xf2\xd7z>'
p1996
tp1997
bsg51
(dp1998
I4945261072
g1987
ssg133
g89
(g90
(I0
tp1999
g92
tp2000
Rp2001
(I1
(I2
I2
tp2002
g99
I00
S'\x00\x00\x00\x00\x00\x00\x00\x00\x00\x00\x00\x00\x00\x00\x00\x00\x00\x00\x00\x00\x00\x00\xf0?\x00\x00\x00\x00\x00\x00\xf0?'
p2003
tp2004
bsg140
g89
(g90
(I0
tp2005
g92
tp2006
Rp2007
(I1
(I2
I2
tp2008
g99
I00
S'\x00\x00\x00\x00\x00\x00\x00\x00\x00\x00\x00\x00\x00\x00\x00\x00\x00\x00\x00\x00\x00\x00\xf0?\x00\x00\x00\x00\x00\x00\xf0?'
p2009
tp2010
bsg147
I01
sg50
g7
sbsg83
g1943
sg140
Nsg51
(dp2011
sg50
g7
sbssg50
g7
sbsI4945383888
g0
(g172
g2
Ntp2012
Rp2013
(dp2014
g48
I2
sg176
I2
sg177
g0
(g172
g2
Ntp2015
Rp2016
(dp2017
g48
I1
sg176
I2
sg177
g0
(g84
g2
Ntp2018
Rp2019
(dp2020
g48
I1
sg88
Nsg49
Nsg115
g0
(g121
g2
Ntp2021
Rp2022
(dp2023
g48
I1
sg125
g89
(g90
(I0
tp2024
g92
tp2025
Rp2026
(I1
(I2
tp2027
g99
I00
S'H\xaf\xbc\x9a\xf2\xd7z>H\xaf\xbc\x9a\xf2\xd7z>'
p2028
tp2029
bsg51
(dp2030
I4945383760
g2019
ssg133
g89
(g90
(I0
tp2031
g92
tp2032
Rp2033
(I1
(I2
I2
tp2034
g99
I00
S'\x00\x00\x00\x00\x00\x00\x00\x00\x00\x00\x00\x00\x00\x00\x00\x00\x00\x00\x00\x00\x00\x00\xf0?\x00\x00\x00\x00\x00\x00\xf0?'
p2035
tp2036
bsg140
g89
(g90
(I0
tp2037
g92
tp2038
Rp2039
(I1
(I2
I2
tp2040
g99
I00
S'\x00\x00\x00\x00\x00\x00\x00\x00\x00\x00\x00\x00\x00\x00\x00\x00\x00\x00\x00\x00\x00\x00\xf0?\x00\x00\x00\x00\x00\x00\xf0?'
p2041
tp2042
bsg147
I01
sg50
g7
sbsg51
(dp2043
I4945383824
g2016
ssg50
g7
sbsg262
I2
sg263
g0
(g104
g2
Ntp2044
Rp2045
(dp2046
g48
I2
sg49
Nsg88
g89
(g90
(I0
tp2047
g92
tp2048
Rp2049
(I1
(I3
I3
tp2050
g99
I00
S'\x00\x00\x00\x00\x00\x00\xf0?\x00\x00\x00\x00\x00\x00\x00\x00\x00\x00\x00\x00\x00\x00\x00\x00\x00\x00\x00\x00\x00\x00\x00\x00\x00\x00\x00\x00\x00\x00\xf0?\x00\x00\x00\x00\x00\x00\x00\x00\x00\x00\x00\x00\x00\x00\x00\x00\x00\x00\x00\x00\x00\x00\x00\x00\x00\x00\x00\x00\x00\x00\xf0?'
p2051
tp2052
bsg50
g7
sg51
(dp2053
I4945383824
g2016
ssbsg51
(dp2054
I4945383888
g2013
ssg50
g7
sbsg262
I2
sg263
g179
sg51
(dp2055
I4945383952
g0
(g116
g2
Ntp2056
Rp2057
(dp2058
g48
I2
sg120
g0
(g121
g2
Ntp2059
Rp2060
(dp2061
g48
I1
sg125
g89
(g90
(I0
tp2062
g92
tp2063
Rp2064
(I1
(I2
tp2065
g99
I00
S'H\xaf\xbc\x9a\xf2\xd7z>H\xaf\xbc\x9a\xf2\xd7z>'
p2066
tp2067
bsg51
(dp2068
I4945383952
g2057
ssg133
g89
(g90
(I0
tp2069
g92
tp2070
Rp2071
(I1
(I2
I2
tp2072
g99
I00
S'\x00\x00\x00\x00\x00\x00\x00\x00\x00\x00\x00\x00\x00\x00\x00\x00\x00\x00\x00\x00\x00\x00\xf0?\x00\x00\x00\x00\x00\x00\xf0?'
p2073
tp2074
bsg140
g89
(g90
(I0
tp2075
g92
tp2076
Rp2077
(I1
(I2
I2
tp2078
g99
I00
S'\x00\x00\x00\x00\x00\x00\x00\x00\x00\x00\x00\x00\x00\x00\x00\x00\x00\x00\x00\x00\x00\x00\xf0?\x00\x00\x00\x00\x00\x00\xf0?'
p2079
tp2080
bsg147
I01
sg50
g7
sbsg83
g2013
sg140
Nsg51
(dp2081
sg50
g7
sbssg50
g7
sbsI4713311632
g0
(g172
g2
Ntp2082
Rp2083
(dp2084
g48
I2
sg176
I2
sg177
g179
sg262
I2
sg263
g160
sg51
(dp2085
sg50
g7
sbsI4945261904
g0
(g172
g2
Ntp2086
Rp2087
(dp2088
g48
I2
sg176
I2
sg177
g0
(g172
g2
Ntp2089
Rp2090
(dp2091
g48
I1
sg176
I2
sg177
g0
(g84
g2
Ntp2092
Rp2093
(dp2094
g48
I1
sg88
Nsg49
Nsg115
g0
(g121
g2
Ntp2095
Rp2096
(dp2097
g48
I1
sg125
g89
(g90
(I0
tp2098
g92
tp2099
Rp2100
(I1
(I2
tp2101
g99
I00
S'H\xaf\xbc\x9a\xf2\xd7z>H\xaf\xbc\x9a\xf2\xd7z>'
p2102
tp2103
bsg51
(dp2104
I4945261840
g2093
ssg133
g89
(g90
(I0
tp2105
g92
tp2106
Rp2107
(I1
(I2
I2
tp2108
g99
I00
S'\x00\x00\x00\x00\x00\x00\x00\x00\x00\x00\x00\x00\x00\x00\x00\x00\x00\x00\x00\x00\x00\x00\xf0?\x00\x00\x00\x00\x00\x00\xf0?'
p2109
tp2110
bsg140
g89
(g90
(I0
tp2111
g92
tp2112
Rp2113
(I1
(I2
I2
tp2114
g99
I00
S'\x00\x00\x00\x00\x00\x00\x00\x00\x00\x00\x00\x00\x00\x00\x00\x00\x00\x00\x00\x00\x00\x00\xf0?\x00\x00\x00\x00\x00\x00\xf0?'
p2115
tp2116
bsg147
I01
sg50
g7
sbsg51
(dp2117
I4945261264
g2090
ssg50
g7
sbsg262
I2
sg263
g0
(g104
g2
Ntp2118
Rp2119
(dp2120
g48
I2
sg49
Nsg88
g89
(g90
(I0
tp2121
g92
tp2122
Rp2123
(I1
(I3
I3
tp2124
g99
I00
S'\x00\x00\x00\x00\x00\x00\xf0?\x00\x00\x00\x00\x00\x00\x00\x00\x00\x00\x00\x00\x00\x00\x00\x00\x00\x00\x00\x00\x00\x00\x00\x00\x00\x00\x00\x00\x00\x00\xf0?\x00\x00\x00\x00\x00\x00\x00\x00\x00\x00\x00\x00\x00\x00\x00\x00\x00\x00\x00\x00\x00\x00\x00\x00\x00\x00\x00\x00\x00\x00\xf0?'
p2125
tp2126
bsg50
g7
sg51
(dp2127
I4945261264
g2090
ssbsg51
(dp2128
I4945261904
g2087
ssg50
g7
sbsg262
I2
sg263
g179
sg51
(dp2129
I4945261968
g0
(g116
g2
Ntp2130
Rp2131
(dp2132
g48
I2
sg120
g0
(g121
g2
Ntp2133
Rp2134
(dp2135
g48
I1
sg125
g89
(g90
(I0
tp2136
g92
tp2137
Rp2138
(I1
(I2
tp2139
g99
I00
S'H\xaf\xbc\x9a\xf2\xd7z>H\xaf\xbc\x9a\xf2\xd7z>'
p2140
tp2141
bsg51
(dp2142
I4945261968
g2131
ssg133
g89
(g90
(I0
tp2143
g92
tp2144
Rp2145
(I1
(I2
I2
tp2146
g99
I00
S'\x00\x00\x00\x00\x00\x00\x00\x00\x00\x00\x00\x00\x00\x00\x00\x00\x00\x00\x00\x00\x00\x00\xf0?\x00\x00\x00\x00\x00\x00\xf0?'
p2147
tp2148
bsg140
g89
(g90
(I0
tp2149
g92
tp2150
Rp2151
(I1
(I2
I2
tp2152
g99
I00
S'\x00\x00\x00\x00\x00\x00\x00\x00\x00\x00\x00\x00\x00\x00\x00\x00\x00\x00\x00\x00\x00\x00\xf0?\x00\x00\x00\x00\x00\x00\xf0?'
p2153
tp2154
bsg147
I01
sg50
g7
sbsg83
g2087
sg140
Nsg51
(dp2155
sg50
g7
sbssg50
g7
sbssg50
g7
sbsg262
I2
sg263
g160
sg51
(dp2156
sg50
g7
sbsI4713311632
g2083
sI4713311696
g1435
ssbsI4713142224
g670
sI4713310224
g744
sI4713142608
g771
sI4713346128
g786
sI4713346192
g679
sI4713346256
g694
sI4713140816
g703
sI4713308432
g661
sI4713310480
g753
sI4713143504
g762
sI4713308688
g712
sI4713345616
g735
sI4945367824
g118
ssbsg140
g89
(g90
(I0
tp2157
g92
tp2158
Rp2159
(I1
(I2
I2
tp2160
g99
I00
S'\x00\x00\x00\x00\x00\x00\x00\x00\x00\x00\x00\x00\x00\x00\x00\x00\x00\x00\x00\x00\x00\x00t@\x00\x00\x00\x00\x00\x00t@'
p2161
tp2162
bsg51
(dp2163
I4945368144
g86
ssg50
g7
sbsg51
(dp2164
I4945369936
g198
ssg50
g7
sbsS'_capstyle'
p2165
Vbutt
p2166
sS'_url'
p2167
NsS'_axes'
p2168
Nsg33
Nsbsg41
Nsg67
NsV_restore_to_pylab
p2169
I01
sS'images'
p2170
(lp2171
sS'_suptitle'
p2172
NsS'dpi_scale_trans'
p2173
g149
sS'number'
p2174
I1
sS'callbacks'
p2175
g0
(cmatplotlib.cbook
CallbackRegistry
p2176
g2
Ntp2177
Rp2178
sg72
NsS'_tight'
p2179
I00
sg65
I01
sS'bbox'
p2180
g118
sg57
Nsg79
I0
sS'patches'
p2181
(lp2182
sS'legends'
p2183
(lp2184
sS'suppressComposite'
p2185
Nsg80
I00
sg82
NsS'_axstack'
p2186
g0
(cmatplotlib.figure
AxesStack
p2187
g2
Ntp2188
Rp2189
(dp2190
S'_default'
p2191
NsS'_elements'
p2192
(lp2193
(((g0
(cmatplotlib.gridspec
SubplotSpec
p2194
g2
Ntp2195
Rp2196
(dp2197
S'num1'
p2198
I0
sS'num2'
p2199
I0
sS'_gridspec'
p2200
g0
(cmatplotlib.gridspec
GridSpec
p2201
g2
Ntp2202
Rp2203
(dp2204
S'_nrows'
p2205
I1
sS'right'
p2206
NsS'_col_width_ratios'
p2207
NsS'bottom'
p2208
NsS'top'
p2209
NsS'wspace'
p2210
NsS'_ncols'
p2211
I1
sS'hspace'
p2212
NsS'_row_height_ratios'
p2213
NsS'left'
p2214
Nsbsbtp2215
(ttp2216
(I1
g0
(cmatplotlib.axes._subplots
_PicklableSubplotClassConstructor
p2217
g2
Ntp2218
Rp2219
(cmatplotlib.axes._axes
Axes
p2220
tp2221
Rp2222
(dp2223
S'transLimits'
p2224
g602
sS'_get_patches_for_fill'
p2225
g0
(cmatplotlib.axes._base
_process_plot_var_args
p2226
g2
Ntp2227
Rp2228
(dp2229
Vaxes
p2230
g2222
sVcommand
p2231
Vfill
p2232
sbsS'_xcid'
p2233
I1
sg6
V
p2234
sS'legend_'
p2235
Nsg12
(lp2236
g0
(cmatplotlib.text
Text
p2237
g2
Ntp2238
Rp2239
(dp2240
g6
g7
sg8
I01
sg9
g4
sg10
NsS'_fontproperties'
p2241
g0
(cmatplotlib.font_manager
FontProperties
p2242
g2
Ntp2243
Rp2244
(dp2245
S'_family'
p2246
(lp2247
Vserif
p2248
asS'_file'
p2249
NsS'_variant'
p2250
Vnormal
p2251
sS'_slant'
p2252
Vitalic
p2253
sS'_size'
p2254
F10.0
sS'_weight'
p2255
I400
sS'_stretch'
p2256
g2251
sbsg41
Nsg17
g18
sS'_multialignment'
p2257
Nsg20
I00
sg23
Nsg55
F26.0
sg56
F22.3
sg24
Nsg11
Nsg27
I00
sg28
I00
sg29
(dp2258
sS'_renderer'
p2259
Nsg31
I00
sg2168
g2222
sg67
g2131
sg2167
NsS'_rotation_mode'
p2260
Nsg32
Nsg72
Nsg65
I01
sS'_verticalalignment'
p2261
Vbaseline
p2262
sS'_text'
p2263
V$\u005cmathrm{\u005csigma_{MAD}\u005c (Bootstrap)  = }$0.157
p2264
sS'_bbox_patch'
p2265
g0
(cmatplotlib.patches
FancyBboxPatch
p2266
g2
Ntp2267
Rp2268
(dp2269
g6
g7
sg39
F1.0
sg40
I01
sg9
NsS'_mutation_aspect'
p2270
Nsg10
Nsg41
Nsg17
g18
sg42
Nsg20
I00
sg43
g0
(g44
g2
Ntp2271
Rp2272
(dp2273
g48
I1
sg49
Nsg50
g7
sg51
(dp2274
sbsg53
(F1.0
F1.0
F0.9411764705882353
I1
tp2275
sg23
Nsg55
F0.0
sg56
F0.0
sg57
Nsg24
Nsg11
Nsg27
I00
sg28
I00
sg29
(dp2276
sg31
I00
sg64
Nsg65
I01
sg66
F1.0
sg67
g2131
sg68
F1.0
sg32
Nsg69
I01
sg70
Vwhite
p2277
sg72
Nsg73
(F1.0
F1.0
F1.0
I1
tp2278
sg74
g75
sS'_bbox_transmuter'
p2279
g0
(cmatplotlib.cbook
_NestedClassGetter
p2280
g2
Ntp2281
Rp2282
(cmatplotlib.patches
BoxStyle
p2283
S'Square'
p2284
tp2285
Rp2286
(dp2287
S'pad'
p2288
F1.0
sbsg76
g77
sg78
Vivory
p2289
sg79
I0
sg80
I01
sg82
I1
sg83
g0
(g44
g2
Ntp2290
Rp2291
(dp2292
g48
I1
sg49
Nsg50
g7
sg51
(dp2293
sbsg8
I01
sS'_mutation_scale'
p2294
F1.0
sg2165
g2166
sg2167
Nsg2168
Nsg33
Nsbsg57
Nsg79
I0
sS'_rotation'
p2295
Nsg80
I01
sg82
NsS'_linespacing'
p2296
F1.2
sg83
g638
sS'_usetex'
p2297
NsS'_wrap'
p2298
I00
sg42
NsS'_color'
p2299
Vk
p2300
sS'_horizontalalignment'
p2301
Vleft
p2302
sg33
NsbasS'_frameon'
p2303
I01
sS'_autoscaleYon'
p2304
I00
sg14
I01
sg15
(lp2305
sg20
I01
sS'tables'
p2306
(lp2307
sg2181
(lp2308
sS'title'
p2309
g0
(g2237
g2
Ntp2310
Rp2311
(dp2312
g6
g7
sg8
I01
sg9
g4
sg10
Nsg2241
g0
(g2242
g2
Ntp2313
Rp2314
(dp2315
g2246
(lp2316
g2248
asg2249
Nsg2250
g2251
sg2252
g2251
sg2254
Vlarge
p2317
sg2255
I400
sg2256
g2251
sbsg41
Nsg17
g18
sg2257
Nsg20
I01
sg23
Nsg55
F1.0
sg56
F0.5
sg24
Nsg11
Nsg27
I00
sg28
I00
sg29
(dp2318
sg2259
Nsg31
I00
sg2168
g2222
sg67
Nsg2167
Nsg2260
Nsg32
Nsg72
Nsg65
I01
sg2261
Vbaseline
p2319
sg2263
V
p2320
sg2265
Nsg57
Nsg79
I0
sg2295
Nsg80
I01
sg82
Nsg2296
F1.2
sg83
g174
sg2297
Nsg2298
I00
sg42
Nsg2299
g2300
sg2301
Vcenter
p2321
sg33
NsbsS'_current_image'
p2322
NsS'mouseover_set'
p2323
c__builtin__
set
p2324
((lp2325
tp2326
Rp2327
sg11
NsS'_cursorProps'
p2328
(I1
(F0.0
F0.0
F0.0
F1.0
tp2329
tp2330
sS'numRows'
p2331
I1
sS'collections'
p2332
(lp2333
g0
(cmatplotlib.collections
LineCollection
p2334
g2
Ntp2335
Rp2336
(dp2337
g6
V_nolegend_
p2338
sS'_facecolors_original'
p2339
Vnone
p2340
sg8
I01
sg9
g4
sS'_linestyles'
p2341
(lp2342
(NNtp2343
asS'_offset_position'
p2344
Vscreen
p2345
sg10
Nsg41
NsS'callbacksSM'
p2346
g0
(g2176
g2
Ntp2347
Rp2348
sg17
NsS'_offsets'
p2349
g89
(g90
(I0
tp2350
g92
tp2351
Rp2352
(I1
(I1
I2
tp2353
g99
I00
S'\x00\x00\x00\x00\x00\x00\x00\x00\x00\x00\x00\x00\x00\x00\x00\x00'
p2354
tp2355
bsS'_paths'
p2356
(lp2357
g0
(cmatplotlib.path
Path
p2358
g2
Ntp2359
Rp2360
(dp2361
S'_should_simplify'
p2362
I00
sS'_codes'
p2363
NsS'_vertices'
p2364
g89
(g90
(I0
tp2365
g92
tp2366
Rp2367
(I1
(I2
I2
tp2368
g99
I00
S'\x05;\x96\x86d\xbb6@\xda\x9a\x8aO\xcc)7@\x91\xc7mBe\xcd6@\xda\x9a\x8aO\xcc)7@'
p2369
tp2370
bsS'_readonly'
p2371
I00
sS'_simplify_threshold'
p2372
F0.1111111111111111
sS'_interpolation_steps'
p2373
I1
sS'_has_nonfinite'
p2374
I00
sbag0
(g2358
g2
Ntp2375
Rp2376
(dp2377
g2362
I00
sg2363
Nsg2364
g89
(g90
(I0
tp2378
g92
tp2379
Rp2380
(I1
(I2
I2
tp2381
g99
I00
S'\xe1\x99\x806P\xf57@\x8fjs\x8a\x81\xc57@e\x03\n\xe5\x0c\x1a8@\x8fjs\x8a\x81\xc57@'
p2382
tp2383
bsg2371
I00
sg2372
F0.1111111111111111
sg2373
I1
sg2374
I00
sbag0
(g2358
g2
Ntp2384
Rp2385
(dp2386
g2362
I00
sg2363
Nsg2364
g89
(g90
(I0
tp2387
g92
tp2388
Rp2389
(I1
(I2
I2
tp2390
g99
I00
S'\x18\xfe\x9bu\x8a%8@\xaaG\x8eDzR7@\xfc\xf0C\xe2\x87I8@\xaaG\x8eDzR7@'
p2391
tp2392
bsg2371
I00
sg2372
F0.1111111111111111
sg2373
I1
sg2374
I00
sbag0
(g2358
g2
Ntp2393
Rp2394
(dp2395
g2362
I00
sg2363
Nsg2364
g89
(g90
(I0
tp2396
g92
tp2397
Rp2398
(I1
(I2
I2
tp2399
g99
I00
S'\xa2+\x10)z\xca6@/j\x8e\xcc\x94\xb96@\xe6\x9a\xec\xfd\xa2\xd96@/j\x8e\xcc\x94\xb96@'
p2400
tp2401
bsg2371
I00
sg2372
F0.1111111111111111
sg2373
I1
sg2374
I00
sbag0
(g2358
g2
Ntp2402
Rp2403
(dp2404
g2362
I00
sg2363
Nsg2364
g89
(g90
(I0
tp2405
g92
tp2406
Rp2407
(I1
(I2
I2
tp2408
g99
I00
S'\xcbe\xab\x9dk\xb16@m\tl\xbb\x11X6@\x01w\x13\xa0\xcd\xbf6@m\tl\xbb\x11X6@'
p2409
tp2410
bsg2371
I00
sg2372
F0.1111111111111111
sg2373
I1
sg2374
I00
sbag0
(g2358
g2
Ntp2411
Rp2412
(dp2413
g2362
I00
sg2363
Nsg2364
g89
(g90
(I0
tp2414
g92
tp2415
Rp2416
(I1
(I2
I2
tp2417
g99
I00
S'\xb1\xcai\x16H\xc86@\xc1\t\xe8\xef;\xe76@9\xb9-g\x02\xd56@\xc1\t\xe8\xef;\xe76@'
p2418
tp2419
bsg2371
I00
sg2372
F0.1111111111111111
sg2373
I1
sg2374
I00
sbag0
(g2358
g2
Ntp2420
Rp2421
(dp2422
g2362
I00
sg2363
Nsg2364
g89
(g90
(I0
tp2423
g92
tp2424
Rp2425
(I1
(I2
I2
tp2426
g99
I00
S'xv\xa6\xe0\xf7Z8@\xf3\xbe\x13\xa3\xdch8@\x90\xeebir\x818@\xf3\xbe\x13\xa3\xdch8@'
p2427
tp2428
bsg2371
I00
sg2372
F0.1111111111111111
sg2373
I1
sg2374
I00
sbag0
(g2358
g2
Ntp2429
Rp2430
(dp2431
g2362
I00
sg2363
Nsg2364
g89
(g90
(I0
tp2432
g92
tp2433
Rp2434
(I1
(I2
I2
tp2435
g99
I00
S'M2=F\x1f\xd37@\x83\x95\xf5-j\xc37@o\xee\x0f\x11\xbf\xf07@\x83\x95\xf5-j\xc37@'
p2436
tp2437
bsg2371
I00
sg2372
F0.1111111111111111
sg2373
I1
sg2374
I00
sbag0
(g2358
g2
Ntp2438
Rp2439
(dp2440
g2362
I00
sg2363
Nsg2364
g89
(g90
(I0
tp2441
g92
tp2442
Rp2443
(I1
(I2
I2
tp2444
g99
I00
S'e\x0eq\xfaC\x188@\x13\xac\xa5}\xb8\x828@\xab\x19z3\xc688@\x13\xac\xa5}\xb8\x828@'
p2445
tp2446
bsg2371
I00
sg2372
F0.1111111111111111
sg2373
I1
sg2374
I00
sbag0
(g2358
g2
Ntp2447
Rp2448
(dp2449
g2362
I00
sg2363
Nsg2364
g89
(g90
(I0
tp2450
g92
tp2451
Rp2452
(I1
(I2
I2
tp2453
g99
I00
S'\x1cw+\x9a\xaf\xe68@\xe7>)\x99\xbbv8@0\r\xe1^\x05\x169@\xe7>)\x99\xbbv8@'
p2454
tp2455
bsg2371
I00
sg2372
F0.1111111111111111
sg2373
I1
sg2374
I00
sbag0
(g2358
g2
Ntp2456
Rp2457
(dp2458
g2362
I00
sg2363
Nsg2364
g89
(g90
(I0
tp2459
g92
tp2460
Rp2461
(I1
(I2
I2
tp2462
g99
I00
S'\x1fP\xd3\xac\x98.7@\xc9\\X\xfd\xb1\x7f7@o\xa92\x93\xe7>7@\xc9\\X\xfd\xb1\x7f7@'
p2463
tp2464
bsg2371
I00
sg2372
F0.1111111111111111
sg2373
I1
sg2374
I00
sbag0
(g2358
g2
Ntp2465
Rp2466
(dp2467
g2362
I00
sg2363
Nsg2364
g89
(g90
(I0
tp2468
g92
tp2469
Rp2470
(I1
(I2
I2
tp2471
g99
I00
S'(\xd6\x87X\x98o6@\xfe6I\x8b\xe8\xa46@\x8c\xf83\x89zy6@\xfe6I\x8b\xe8\xa46@'
p2472
tp2473
bsg2371
I00
sg2372
F0.1111111111111111
sg2373
I1
sg2374
I00
sbag0
(g2358
g2
Ntp2474
Rp2475
(dp2476
g2362
I00
sg2363
Nsg2364
g89
(g90
(I0
tp2477
g92
tp2478
Rp2479
(I1
(I2
I2
tp2480
g99
I00
S'O\x8f\xb5\x8f\x9aY7@\xaa<\xf7\xad\xf5d7@\x05\xea8\xccPp7@\xaa<\xf7\xad\xf5d7@'
p2481
tp2482
bsg2371
I00
sg2372
F0.1111111111111111
sg2373
I1
sg2374
I00
sbag0
(g2358
g2
Ntp2483
Rp2484
(dp2485
g2362
I00
sg2363
Nsg2364
g89
(g90
(I0
tp2486
g92
tp2487
Rp2488
(I1
(I2
I2
tp2489
g99
I00
S'\x08r\x16\xc7a\xe87@\xeeS\x9e\xa3;\xea7@\x00\xd6\x0e\xae{\x148@\xeeS\x9e\xa3;\xea7@'
p2490
tp2491
bsg2371
I00
sg2372
F0.1111111111111111
sg2373
I1
sg2374
I00
sbag0
(g2358
g2
Ntp2492
Rp2493
(dp2494
g2362
I00
sg2363
Nsg2364
g89
(g90
(I0
tp2495
g92
tp2496
Rp2497
(I1
(I2
I2
tp2498
g99
I00
S'\xb3\xe7w\xcdVY7@\x7f s\xf5\x9dx7@\xe1uZ\xacd\x827@\x7f s\xf5\x9dx7@'
p2499
tp2500
bsg2371
I00
sg2372
F0.1111111111111111
sg2373
I1
sg2374
I00
sbasg20
I01
sS'_A'
p2501
NsS'_urls'
p2502
(lp2503
Nasg23
Nsg24
Nsg11
Nsg27
I00
sS'_facecolors'
p2504
g89
(g90
(I0
tp2505
g92
tp2506
Rp2507
(I1
(I0
I4
tp2508
g99
I00
S''
p2509
tp2510
bsS'_uniform_offsets'
p2511
Nsg28
I00
sg29
(dp2512
sS'_antialiaseds'
p2513
(I01
tp2514
sg31
I00
sS'norm'
p2515
g0
(cmatplotlib.colors
Normalize
p2516
g2
Ntp2517
Rp2518
(dp2519
S'vmax'
p2520
NsS'clip'
p2521
I00
sS'vmin'
p2522
Nsbsg64
NsS'_edgecolors'
p2523
g89
(g90
(I0
tp2524
g92
tp2525
Rp2526
(I1
(I1
I4
tp2527
g99
I00
S'\x00\x00\x00\x00\x00\x00\x00\x00\x10\x10\x10\x10\x10\x10\xe0?\x00\x00\x00\x00\x00\x00\x00\x00\x00\x00\x00\x00\x00\x00\xe8?'
p2528
tp2529
bsg67
g502
sS'_pickradius'
p2530
I5
sg32
NsS'update_dict'
p2531
(dp2532
Varray
p2533
I00
ssg72
Nsg65
I01
sS'_linewidths'
p2534
(F0.5
tp2535
sg57
Nsg79
I0
sS'_is_stroked'
p2536
I01
sS'_is_filled'
p2537
I00
sg80
I01
sg82
F0.75
sg83
g638
sS'_edgecolors_original'
p2538
Vgreen
p2539
sS'colorbar'
p2540
NsS'cmap'
p2541
g0
(cmatplotlib.colors
LinearSegmentedColormap
p2542
g2
Ntp2543
Rp2544
(dp2545
S'_gamma'
p2546
F1.0
sS'_i_bad'
p2547
I258
sS'_rgba_over'
p2548
NsS'name'
p2549
Vjet
p2550
sS'_i_under'
p2551
I256
sS'_i_over'
p2552
I257
sS'N'
p2553
I256
sS'_segmentdata'
p2554
(dp2555
Vblue
p2556
((F0.0
F0.5
F0.5
tp2557
(F0.11
I1
I1
tp2558
(F0.34
I1
I1
tp2559
(F0.65
I0
I0
tp2560
(I1
I0
I0
tp2561
tp2562
sVgreen
p2563
((F0.0
I0
I0
tp2564
(F0.125
I0
I0
tp2565
(F0.375
I1
I1
tp2566
(F0.64
I1
I1
tp2567
(F0.91
I0
I0
tp2568
(I1
I0
I0
tp2569
tp2570
sVred
p2571
((F0.0
I0
I0
tp2572
(F0.35
I0
I0
tp2573
(F0.66
I1
I1
tp2574
(F0.89
I1
I1
tp2575
(I1
F0.5
F0.5
tp2576
tp2577
ssS'_rgba_under'
p2578
NsS'_rgba_bad'
p2579
(F0.0
F0.0
F0.0
F0.0
tp2580
sS'monochrome'
p2581
I00
sS'colorbar_extend'
p2582
I00
sS'_isinit'
p2583
I00
sbsS'zorder'
p2584
I2
sg42
Nsg2167
Nsg2168
g2222
sg33
Nsbag0
(cmatplotlib.collections
PolyCollection
p2585
g2
Ntp2586
Rp2587
(dp2588
g6
V$\u005csigma_\u005cmathrm{MAD}$
p2589
sg2339
Vgrey
p2590
sg8
I01
sg9
g4
sg2341
(lp2591
g2343
asg2344
g2345
sg10
Nsg41
Nsg2346
g0
(g2176
g2
Ntp2592
Rp2593
sg17
Nsg2349
g89
(g90
(I0
tp2594
g92
tp2595
Rp2596
(I1
(I1
I2
tp2597
g99
I00
S'\x00\x00\x00\x00\x00\x00\x00\x00\x00\x00\x00\x00\x00\x00\x00\x00'
p2598
tp2599
bsg2356
(lp2600
g0
(g2358
g2
Ntp2601
Rp2602
(dp2603
g2362
I00
sg2363
g89
(g90
(I0
tp2604
g92
tp2605
Rp2606
(I1
(I9
tp2607
g96
(S'u1'
p2608
I0
I1
tp2609
Rp2610
(I3
S'|'
p2611
NNNI-1
I-1
I0
tp2612
bI00
S'\x01\x02\x02\x02\x02\x02\x02\x02O'
p2613
tp2614
bsg2364
g89
(g90
(I0
tp2615
g92
tp2616
Rp2617
(I1
(I9
I2
tp2618
g99
I00
S'\x00\x00\x00\x00\x00\x00.@\x83zf\xcc.Q.@\x00\x00\x00\x00\x00\x00.@\xf3\xf8!a\x13\xb0-@\x00\x00\x00\x00\x00\x007@z\xfc\x90\xb0\t\xd86@\x00\x00\x00\x00\x00\x00<@z\xfc\x90\xb0\t\xd8;@\x00\x00\x00\x00\x00\x00<@B=3f\x97(<@\x00\x00\x00\x00\x00\x00<@B=3f\x97(<@\x00\x00\x00\x00\x00\x007@B=3f\x97(7@\x00\x00\x00\x00\x00\x00.@\x83zf\xcc.Q.@\x00\x00\x00\x00\x00\x00.@\x83zf\xcc.Q.@'
p2619
tp2620
bsg2371
I00
sg2372
F0.1111111111111111
sg2373
I1
sg2374
I00
sbasg20
I01
sg2501
Nsg2502
(lp2621
NasS'_sizes'
p2622
g89
(g90
(I0
tp2623
g92
tp2624
Rp2625
(I1
(I0
tp2626
g99
I00
g2509
tp2627
bsS'_transforms'
p2628
g89
(g90
(I0
tp2629
g92
tp2630
Rp2631
(I1
(I0
I3
I3
tp2632
g99
I00
g2509
tp2633
bsg23
Nsg24
Nsg11
Nsg27
I00
sg2504
g89
(g90
(I0
tp2634
g92
tp2635
Rp2636
(I1
(I1
I4
tp2637
g99
I00
S'\x10\x10\x10\x10\x10\x10\xe0?\x10\x10\x10\x10\x10\x10\xe0?\x10\x10\x10\x10\x10\x10\xe0?\x00\x00\x00\x00\x00\x00\xe0?'
p2638
tp2639
bsg2511
Nsg28
I00
sg29
(dp2640
sg2513
(I01
tp2641
sg31
I00
sg2515
g0
(g2516
g2
Ntp2642
Rp2643
(dp2644
g2520
Nsg2521
I00
sg2522
Nsbsg64
Nsg2523
g89
(g90
(I0
tp2645
g92
tp2646
Rp2647
(I1
(I1
I4
tp2648
g99
I00
S'\x10\x10\x10\x10\x10\x10\xe0?\x10\x10\x10\x10\x10\x10\xe0?\x10\x10\x10\x10\x10\x10\xe0?\x00\x00\x00\x00\x00\x00\xe0?'
p2649
tp2650
bsg67
g1987
sg2530
F5.0
sg32
Nsg2531
(dp2651
g2533
I00
ssg72
Nsg65
I01
sg2534
(F1.0
tp2652
sg57
Nsg79
I0
sg2536
I01
sg2537
I01
sg80
I01
sg82
F0.5
sg83
g638
sg2538
g2590
sg2540
Nsg2541
g2544
sg2584
I1
sg42
Nsg2167
Nsg2168
g2222
sg33
Nsbasg2168
g2222
sg29
(dp2653
sg31
I00
sS'containers'
p2654
(lp2655
g0
(cmatplotlib.container
ErrorbarContainer
p2656
c__builtin__
tuple
p2657
(g0
(cmatplotlib.lines
Line2D
p2658
g2
Ntp2659
Rp2660
(dp2661
g6
V_nolegend_
p2662
sg8
I01
sS'_solidcapstyle'
p2663
Vprojecting
p2664
sg9
g4
sS'_dashcapstyle'
p2665
Vbutt
p2666
sg2341
Nsg10
Nsg41
Nsg17
g18
sS'_solidjoinstyle'
p2667
Vround
p2668
sg20
I01
sS'_x_filled'
p2669
Nsg23
Nsg55
g89
(g90
(I0
tp2670
g92
tp2671
Rp2672
(I1
(I15
tp2673
g99
I00
S'\xda\x9a\x8aO\xcc)7@\x8fjs\x8a\x81\xc57@\xaaG\x8eDzR7@/j\x8e\xcc\x94\xb96@m\tl\xbb\x11X6@\xc1\t\xe8\xef;\xe76@\xf3\xbe\x13\xa3\xdch8@\x83\x95\xf5-j\xc37@\x13\xac\xa5}\xb8\x828@\xe7>)\x99\xbbv8@\xc9\\X\xfd\xb1\x7f7@\xfe6I\x8b\xe8\xa46@\xaa<\xf7\xad\xf5d7@\xeeS\x9e\xa3;\xea7@\x7f s\xf5\x9dx7@'
p2674
tp2675
bsg56
g89
(g90
(I0
tp2676
g92
tp2677
Rp2678
(I1
(I15
tp2679
g99
I00
S'K\x01\x82\xe4d\xc46@\xa3N\xc5\x8d\xae\x078@\x8a\xf7\xef+\x8978@Dc~\x93\x0e\xd26@fn\xdf\x9e\x9c\xb86@\xf5\xc1\xcb>\xa5\xce6@\x84\xb2\x04%5n8@^\x90\xa6+\xef\xe17@\x08\x94\xf5\x16\x85(8@&B\x86|Z\xfe8@\xc7\xfc\x02 \xc067@Z\xe7\xddp\x89t6@\xaa<\xf7\xad\xf5d7@\x04\xa4\x92\xban\xfe7@\xca.\xe9\xbc\xddm7@'
p2680
tp2681
bsg57
Nsg24
Nsg11
Nsg27
I00
sS'_markevery'
p2682
Nsg28
I00
sg29
(dp2683
sS'verticalOffset'
p2684
NsS'pickradius'
p2685
I5
sg31
I00
sS'_subslice'
p2686
I00
sg2168
g2222
sS'_transformed_path'
p2687
NsS'_markeredgewidth'
p2688
F0.5
sS'_markerfacecolor'
p2689
Vauto
p2690
sS'_dashSeq'
p2691
Nsg2299
g2539
sS'_marker'
p2692
g0
(cmatplotlib.markers
MarkerStyle
p2693
g2
Ntp2694
Rp2695
(dp2696
g2692
V*
p2697
sS'_alt_path'
p2698
NsS'_snap_threshold'
p2699
F5.0
sg83
g0
(g104
g2
Ntp2700
Rp2701
(dp2702
g48
I2
sg49
Nsg88
g89
(g90
(I0
tp2703
g92
tp2704
Rp2705
(I1
(I3
I3
tp2706
g99
I00
S'\x00\x00\x00\x00\x00\x00\xe0?\x00\x00\x00\x00\x00\x00\x00\x00\x00\x00\x00\x00\x00\x00\x00\x00\x00\x00\x00\x00\x00\x00\x00\x00\x00\x00\x00\x00\x00\x00\xe0?\x00\x00\x00\x00\x00\x00\x00\x00\x00\x00\x00\x00\x00\x00\x00\x00\x00\x00\x00\x00\x00\x00\x00\x00\x00\x00\x00\x00\x00\x00\xf0?'
p2707
tp2708
bsg50
g7
sg51
(dp2709
sbsS'_filled'
p2710
I01
sS'_fillstyle'
p2711
Vfull
p2712
sS'_alt_transform'
p2713
Nsg2165
Vbutt
p2714
sg74
Vbevel
p2715
sS'_path'
p2716
g0
(g2358
g2
Ntp2717
Rp2718
(dp2719
g2362
I00
sg2363
g89
(g90
(I0
tp2720
g92
tp2721
Rp2722
(I1
(I11
tp2723
g2610
I00
S'\x01\x02\x02\x02\x02\x02\x02\x02\x02\x02O'
p2724
tp2725
bsg2364
g89
(g90
(I0
tp2726
g92
tp2727
Rp2728
(I1
(I11
I2
tp2729
g99
I01
S"\x07\\\x143&\xa6\x91<\xc4'f\xc8\xdf\xbc\xcc\xbf\xffTD\x13\x0eo\xee\xbf\xe3\xe7 \x12\xd6?\xd7\xbf_Zu\x04#\xcf\xe2\xbf\x89k\x16\x91V9\x94\xbc\\Zu\x04#\xcf\xe2?\xe2\xe7 \x12\xd6?\xd7?\x00UD\x13\x0eo\xee?\xc9'f\xc8\xdf\xbc\xcc?\ts\xd9\xbf\xaf\x0f\xb6<\x00\x00\x00\x00\x00\x00\xf0?W\x1aj-\xef\xc6\xd3?Q\xe9/7\xef\xc6\xd3? \xde\x90\xaay7\xbe\xbf\xa7\xf4\x97\x9bw\xe3\xe9\xbf\x9c\xc5\x8b\x85!r\xd8\xbf\xa9\xf4\x97\x9bw\xe3\xe9\xbf)\xde\x90\xaay7\xbe\xbfK\xe9/7\xef\xc6\xd3?V\x1aj-\xef\xc6\xd3?\x00\x00\x00\x00\x00\x00\xf0?"
p2730
tp2731
bsg2371
I01
sg2372
F0.1111111111111111
sg2373
I1
sg2374
I00
sbsbsg32
NsS'_markerfacecoloralt'
p2732
Vnone
p2733
sg69
I01
sS'_markeredgecolor'
p2734
Vauto
p2735
sg72
NsS'_markersize'
p2736
F5.0
sg65
I01
sS'_xy'
p2737
g89
(g90
(I0
tp2738
g92
tp2739
Rp2740
(I1
(I15
I2
tp2741
g99
I00
S'K\x01\x82\xe4d\xc46@\xda\x9a\x8aO\xcc)7@\xa3N\xc5\x8d\xae\x078@\x8fjs\x8a\x81\xc57@\x8a\xf7\xef+\x8978@\xaaG\x8eDzR7@Dc~\x93\x0e\xd26@/j\x8e\xcc\x94\xb96@fn\xdf\x9e\x9c\xb86@m\tl\xbb\x11X6@\xf5\xc1\xcb>\xa5\xce6@\xc1\t\xe8\xef;\xe76@\x84\xb2\x04%5n8@\xf3\xbe\x13\xa3\xdch8@^\x90\xa6+\xef\xe17@\x83\x95\xf5-j\xc37@\x08\x94\xf5\x16\x85(8@\x13\xac\xa5}\xb8\x828@&B\x86|Z\xfe8@\xe7>)\x99\xbbv8@\xc7\xfc\x02 \xc067@\xc9\\X\xfd\xb1\x7f7@Z\xe7\xddp\x89t6@\xfe6I\x8b\xe8\xa46@\xaa<\xf7\xad\xf5d7@\xaa<\xf7\xad\xf5d7@\x04\xa4\x92\xban\xfe7@\xeeS\x9e\xa3;\xea7@\xca.\xe9\xbc\xddm7@\x7f s\xf5\x9dx7@'
p2742
tp2743
bsg76
V-
p2744
sS'_xorig'
p2745
g89
(castropy.table.column
Column
p2746
(I0
tp2747
g92
tp2748
Rp2749
(I1
(I15
tp2750
g99
I00
S'K\x01\x82\xe4d\xc46@\xa3N\xc5\x8d\xae\x078@\x8a\xf7\xef+\x8978@Dc~\x93\x0e\xd26@fn\xdf\x9e\x9c\xb86@\xf5\xc1\xcb>\xa5\xce6@\x84\xb2\x04%5n8@^\x90\xa6+\xef\xe17@\x08\x94\xf5\x16\x85(8@&B\x86|Z\xfe8@\xc7\xfc\x02 \xc067@Z\xe7\xddp\x89t6@\xaa<\xf7\xad\xf5d7@\x04\xa4\x92\xban\xfe7@\xca.\xe9\xbc\xddm7@'
p2751
(S'bb'
p2752
NNNccollections
OrderedDict
p2753
((lp2754
tp2755
Rp2756
tp2757
tp2758
bsg79
I0
sS'_drawstyle'
p2759
Vdefault
p2760
sS'ind_offset'
p2761
I0
sg2233
I4
sg80
I01
sg82
F0.75
sS'_dashjoinstyle'
p2762
g2668
sS'_invalidx'
p2763
I00
sg83
g638
sS'_ycid'
p2764
I4
sS'_invalidy'
p2765
I00
sg42
Nsg2167
NsS'_yorig'
p2766
g89
(g2746
(I0
tp2767
g92
tp2768
Rp2769
(I1
(I15
tp2770
g99
I00
S'\xda\x9a\x8aO\xcc)7@\x8fjs\x8a\x81\xc57@\xaaG\x8eDzR7@/j\x8e\xcc\x94\xb96@m\tl\xbb\x11X6@\xc1\t\xe8\xef;\xe76@\xf3\xbe\x13\xa3\xdch8@\x83\x95\xf5-j\xc37@\x13\xac\xa5}\xb8\x828@\xe7>)\x99\xbbv8@\xc9\\X\xfd\xb1\x7f7@\xfe6I\x8b\xe8\xa46@\xaa<\xf7\xad\xf5d7@\xeeS\x9e\xa3;\xea7@\x7f s\xf5\x9dx7@'
p2771
(S'spec_mag_as'
p2772
NNNg2753
((lp2773
tp2774
Rp2775
tp2776
tp2777
bsg67
g1497
sg66
F0.0
sg33
Nsg2716
g0
(g2358
g2
Ntp2778
Rp2779
(dp2780
g2362
I00
sg2363
Nsg2364
g2740
sg2371
I00
sg2372
F0.1111111111111111
sg2373
I1
sg2374
I00
sbsb(g0
(g2658
g2
Ntp2781
Rp2782
(dp2783
g6
V_nolegend_
p2784
sg8
I01
sg2663
g2664
sg9
g4
sg2665
g2666
sg2341
Nsg10
Nsg41
Nsg17
g18
sg2667
g2668
sg20
I01
sg2669
Nsg23
Nsg55
g89
(g90
(I0
tp2785
g92
tp2786
Rp2787
(I1
(I15
tp2788
g99
I00
S'\xda\x9a\x8aO\xcc)7@\x8fjs\x8a\x81\xc57@\xaaG\x8eDzR7@/j\x8e\xcc\x94\xb96@m\tl\xbb\x11X6@\xc1\t\xe8\xef;\xe76@\xf3\xbe\x13\xa3\xdch8@\x83\x95\xf5-j\xc37@\x13\xac\xa5}\xb8\x828@\xe7>)\x99\xbbv8@\xc9\\X\xfd\xb1\x7f7@\xfe6I\x8b\xe8\xa46@\xaa<\xf7\xad\xf5d7@\xeeS\x9e\xa3;\xea7@\x7f s\xf5\x9dx7@'
p2789
tp2790
bsg56
g89
(g90
(I0
tp2791
g92
tp2792
Rp2793
(I1
(I15
tp2794
g99
I00
S'\x05;\x96\x86d\xbb6@\xe1\x99\x806P\xf57@\x18\xfe\x9bu\x8a%8@\xa2+\x10)z\xca6@\xcbe\xab\x9dk\xb16@\xb1\xcai\x16H\xc86@xv\xa6\xe0\xf7Z8@M2=F\x1f\xd37@e\x0eq\xfaC\x188@\x1cw+\x9a\xaf\xe68@\x1fP\xd3\xac\x98.7@(\xd6\x87X\x98o6@O\x8f\xb5\x8f\x9aY7@\x08r\x16\xc7a\xe87@\xb3\xe7w\xcdVY7@'
p2795
tp2796
bsg57
Nsg24
Nsg11
Nsg27
I00
sg2682
Nsg28
I00
sg29
(dp2797
sg2684
Nsg2685
I5
sg31
I00
sg2686
I00
sg2168
g2222
sg2687
Nsg2688
F0.5
sg2689
g2690
sg2691
Nsg2299
g2539
sg2692
g0
(g2693
g2
Ntp2798
Rp2799
(dp2800
g2692
V|
p2801
sg2698
Nsg2699
F1.0
sg83
g0
(g104
g2
Ntp2802
Rp2803
(dp2804
g48
I2
sg49
Nsg88
g89
(g90
(I0
tp2805
g92
tp2806
Rp2807
(I1
(I3
I3
tp2808
g99
I00
S'\x00\x00\x00\x00\x00\x00\xe0?\x00\x00\x00\x00\x00\x00\x00\x00\x00\x00\x00\x00\x00\x00\x00\x00\x00\x00\x00\x00\x00\x00\x00\x00\x00\x00\x00\x00\x00\x00\xe0?\x00\x00\x00\x00\x00\x00\x00\x00\x00\x00\x00\x00\x00\x00\x00\x00\x00\x00\x00\x00\x00\x00\x00\x00\x00\x00\x00\x00\x00\x00\xf0?'
p2809
tp2810
bsg50
g7
sg51
(dp2811
sbsg2710
I00
sg2711
g2712
sg2713
Nsg2165
g2714
sg74
Vround
p2812
sg2716
g0
(g2358
g2
Ntp2813
Rp2814
(dp2815
g2362
I00
sg2363
Nsg2364
g89
(g90
(I0
tp2816
g92
tp2817
Rp2818
(I1
(I2
I2
tp2819
g99
I00
S'\x00\x00\x00\x00\x00\x00\x00\x00\x00\x00\x00\x00\x00\x00\xf0\xbf\x00\x00\x00\x00\x00\x00\x00\x00\x00\x00\x00\x00\x00\x00\xf0?'
p2820
tp2821
bsg2371
I00
sg2372
F0.1111111111111111
sg2373
I1
sg2374
I00
sbsbsg32
Nsg2732
g2733
sg69
I01
sg2734
g2735
sg72
Nsg2736
F6.0
sg65
I01
sg2737
g89
(g90
(I0
tp2822
g92
tp2823
Rp2824
(I1
(I15
I2
tp2825
g99
I00
S'\x05;\x96\x86d\xbb6@\xda\x9a\x8aO\xcc)7@\xe1\x99\x806P\xf57@\x8fjs\x8a\x81\xc57@\x18\xfe\x9bu\x8a%8@\xaaG\x8eDzR7@\xa2+\x10)z\xca6@/j\x8e\xcc\x94\xb96@\xcbe\xab\x9dk\xb16@m\tl\xbb\x11X6@\xb1\xcai\x16H\xc86@\xc1\t\xe8\xef;\xe76@xv\xa6\xe0\xf7Z8@\xf3\xbe\x13\xa3\xdch8@M2=F\x1f\xd37@\x83\x95\xf5-j\xc37@e\x0eq\xfaC\x188@\x13\xac\xa5}\xb8\x828@\x1cw+\x9a\xaf\xe68@\xe7>)\x99\xbbv8@\x1fP\xd3\xac\x98.7@\xc9\\X\xfd\xb1\x7f7@(\xd6\x87X\x98o6@\xfe6I\x8b\xe8\xa46@O\x8f\xb5\x8f\x9aY7@\xaa<\xf7\xad\xf5d7@\x08r\x16\xc7a\xe87@\xeeS\x9e\xa3;\xea7@\xb3\xe7w\xcdVY7@\x7f s\xf5\x9dx7@'
p2826
tp2827
bsg76
VNone
p2828
sg2745
g89
(g90
(I0
tp2829
g92
tp2830
Rp2831
(I1
(I15
tp2832
g99
I00
S'\x05;\x96\x86d\xbb6@\xe1\x99\x806P\xf57@\x18\xfe\x9bu\x8a%8@\xa2+\x10)z\xca6@\xcbe\xab\x9dk\xb16@\xb1\xcai\x16H\xc86@xv\xa6\xe0\xf7Z8@M2=F\x1f\xd37@e\x0eq\xfaC\x188@\x1cw+\x9a\xaf\xe68@\x1fP\xd3\xac\x98.7@(\xd6\x87X\x98o6@O\x8f\xb5\x8f\x9aY7@\x08r\x16\xc7a\xe87@\xb3\xe7w\xcdVY7@'
p2833
tp2834
bsg79
I0
sg2759
g2760
sg2761
I0
sg2233
I2
sg80
I01
sg82
F0.75
sg2762
g2668
sg2763
I00
sg83
g638
sg2764
I2
sg2765
I00
sg42
Nsg2167
Nsg2766
g89
(g90
(I0
tp2835
g92
tp2836
Rp2837
(I1
(I15
tp2838
g99
I00
S'\xda\x9a\x8aO\xcc)7@\x8fjs\x8a\x81\xc57@\xaaG\x8eDzR7@/j\x8e\xcc\x94\xb96@m\tl\xbb\x11X6@\xc1\t\xe8\xef;\xe76@\xf3\xbe\x13\xa3\xdch8@\x83\x95\xf5-j\xc37@\x13\xac\xa5}\xb8\x828@\xe7>)\x99\xbbv8@\xc9\\X\xfd\xb1\x7f7@\xfe6I\x8b\xe8\xa46@\xaa<\xf7\xad\xf5d7@\xeeS\x9e\xa3;\xea7@\x7f s\xf5\x9dx7@'
p2839
tp2840
bsg67
g1339
sg66
F1.0
sg33
Nsg2716
g0
(g2358
g2
Ntp2841
Rp2842
(dp2843
g2362
I00
sg2363
Nsg2364
g2824
sg2371
I00
sg2372
F0.1111111111111111
sg2373
I1
sg2374
I00
sbsbg0
(g2658
g2
Ntp2844
Rp2845
(dp2846
g6
V_nolegend_
p2847
sg8
I01
sg2663
g2664
sg9
g4
sg2665
g2666
sg2341
Nsg10
Nsg41
Nsg17
g18
sg2667
g2668
sg20
I01
sg2669
Nsg23
Nsg55
g89
(g90
(I0
tp2848
g92
tp2849
Rp2850
(I1
(I15
tp2851
g99
I00
S'\xda\x9a\x8aO\xcc)7@\x8fjs\x8a\x81\xc57@\xaaG\x8eDzR7@/j\x8e\xcc\x94\xb96@m\tl\xbb\x11X6@\xc1\t\xe8\xef;\xe76@\xf3\xbe\x13\xa3\xdch8@\x83\x95\xf5-j\xc37@\x13\xac\xa5}\xb8\x828@\xe7>)\x99\xbbv8@\xc9\\X\xfd\xb1\x7f7@\xfe6I\x8b\xe8\xa46@\xaa<\xf7\xad\xf5d7@\xeeS\x9e\xa3;\xea7@\x7f s\xf5\x9dx7@'
p2852
tp2853
bsg56
g89
(g90
(I0
tp2854
g92
tp2855
Rp2856
(I1
(I15
tp2857
g99
I00
S'\x91\xc7mBe\xcd6@e\x03\n\xe5\x0c\x1a8@\xfc\xf0C\xe2\x87I8@\xe6\x9a\xec\xfd\xa2\xd96@\x01w\x13\xa0\xcd\xbf6@9\xb9-g\x02\xd56@\x90\xeebir\x818@o\xee\x0f\x11\xbf\xf07@\xab\x19z3\xc688@0\r\xe1^\x05\x169@o\xa92\x93\xe7>7@\x8c\xf83\x89zy6@\x05\xea8\xccPp7@\x00\xd6\x0e\xae{\x148@\xe1uZ\xacd\x827@'
p2858
tp2859
bsg57
Nsg24
Nsg11
Nsg27
I00
sg2682
Nsg28
I00
sg29
(dp2860
sg2684
Nsg2685
I5
sg31
I00
sg2686
I00
sg2168
g2222
sg2687
Nsg2688
F0.5
sg2689
g2690
sg2691
Nsg2299
g2539
sg2692
g0
(g2693
g2
Ntp2861
Rp2862
(dp2863
g2692
g2801
sg2698
Nsg2699
F1.0
sg83
g0
(g104
g2
Ntp2864
Rp2865
(dp2866
g48
I2
sg49
Nsg88
g89
(g90
(I0
tp2867
g92
tp2868
Rp2869
(I1
(I3
I3
tp2870
g99
I00
S'\x00\x00\x00\x00\x00\x00\xe0?\x00\x00\x00\x00\x00\x00\x00\x00\x00\x00\x00\x00\x00\x00\x00\x00\x00\x00\x00\x00\x00\x00\x00\x00\x00\x00\x00\x00\x00\x00\xe0?\x00\x00\x00\x00\x00\x00\x00\x00\x00\x00\x00\x00\x00\x00\x00\x00\x00\x00\x00\x00\x00\x00\x00\x00\x00\x00\x00\x00\x00\x00\xf0?'
p2871
tp2872
bsg50
g7
sg51
(dp2873
sbsg2710
I00
sg2711
g2712
sg2713
Nsg2165
g2714
sg74
g2812
sg2716
g2814
sbsg32
Nsg2732
g2733
sg69
I01
sg2734
g2735
sg72
Nsg2736
F6.0
sg65
I01
sg2737
g89
(g90
(I0
tp2874
g92
tp2875
Rp2876
(I1
(I15
I2
tp2877
g99
I00
S'\x91\xc7mBe\xcd6@\xda\x9a\x8aO\xcc)7@e\x03\n\xe5\x0c\x1a8@\x8fjs\x8a\x81\xc57@\xfc\xf0C\xe2\x87I8@\xaaG\x8eDzR7@\xe6\x9a\xec\xfd\xa2\xd96@/j\x8e\xcc\x94\xb96@\x01w\x13\xa0\xcd\xbf6@m\tl\xbb\x11X6@9\xb9-g\x02\xd56@\xc1\t\xe8\xef;\xe76@\x90\xeebir\x818@\xf3\xbe\x13\xa3\xdch8@o\xee\x0f\x11\xbf\xf07@\x83\x95\xf5-j\xc37@\xab\x19z3\xc688@\x13\xac\xa5}\xb8\x828@0\r\xe1^\x05\x169@\xe7>)\x99\xbbv8@o\xa92\x93\xe7>7@\xc9\\X\xfd\xb1\x7f7@\x8c\xf83\x89zy6@\xfe6I\x8b\xe8\xa46@\x05\xea8\xccPp7@\xaa<\xf7\xad\xf5d7@\x00\xd6\x0e\xae{\x148@\xeeS\x9e\xa3;\xea7@\xe1uZ\xacd\x827@\x7f s\xf5\x9dx7@'
p2878
tp2879
bsg76
g2828
sg2745
g89
(g90
(I0
tp2880
g92
tp2881
Rp2882
(I1
(I15
tp2883
g99
I00
S'\x91\xc7mBe\xcd6@e\x03\n\xe5\x0c\x1a8@\xfc\xf0C\xe2\x87I8@\xe6\x9a\xec\xfd\xa2\xd96@\x01w\x13\xa0\xcd\xbf6@9\xb9-g\x02\xd56@\x90\xeebir\x818@o\xee\x0f\x11\xbf\xf07@\xab\x19z3\xc688@0\r\xe1^\x05\x169@o\xa92\x93\xe7>7@\x8c\xf83\x89zy6@\x05\xea8\xccPp7@\x00\xd6\x0e\xae{\x148@\xe1uZ\xacd\x827@'
p2884
tp2885
bsg79
I0
sg2759
g2760
sg2761
I0
sg2233
I3
sg80
I01
sg82
F0.75
sg2762
g2668
sg2763
I00
sg83
g638
sg2764
I3
sg2765
I00
sg42
Nsg2167
Nsg2766
g89
(g90
(I0
tp2886
g92
tp2887
Rp2888
(I1
(I15
tp2889
g99
I00
S'\xda\x9a\x8aO\xcc)7@\x8fjs\x8a\x81\xc57@\xaaG\x8eDzR7@/j\x8e\xcc\x94\xb96@m\tl\xbb\x11X6@\xc1\t\xe8\xef;\xe76@\xf3\xbe\x13\xa3\xdch8@\x83\x95\xf5-j\xc37@\x13\xac\xa5}\xb8\x828@\xe7>)\x99\xbbv8@\xc9\\X\xfd\xb1\x7f7@\xfe6I\x8b\xe8\xa46@\xaa<\xf7\xad\xf5d7@\xeeS\x9e\xa3;\xea7@\x7f s\xf5\x9dx7@'
p2890
tp2891
bsg67
g1115
sg66
F1.0
sg33
Nsg2716
g0
(g2358
g2
Ntp2892
Rp2893
(dp2894
g2362
I00
sg2363
Nsg2364
g2876
sg2371
I00
sg2372
F0.1111111111111111
sg2373
I1
sg2374
I00
sbsbtp2895
(g2336
tp2896
tp2897
tp2898
Rp2899
(dp2900
g6
V$\u005cmathrm{After\u005c Scaling}$
p2901
sS'lines'
p2902
(g2660
g2895
g2896
tp2903
sS'has_xerr'
p2904
I01
sg29
(dp2905
sS'has_yerr'
p2906
I00
sg31
I00
sg79
I0
sg33
Nsbasg28
I00
sg67
NsS'_get_lines'
p2907
g0
(g2226
g2
Ntp2908
Rp2909
(dp2910
g2230
g2222
sg2231
Vplot
p2911
sbsS'_aspect'
p2912
Vauto
p2913
sS'fmt_xdata'
p2914
Nsg2175
g0
(g2176
g2
Ntp2915
Rp2916
sg72
NsS'_anchor'
p2917
VC
p2918
sg65
I01
sg2180
g198
sS'ignore_existing_data_limits'
p2919
I00
sg57
Nsg79
I0
sg80
I00
sS'_left_title'
p2920
g0
(g2237
g2
Ntp2921
Rp2922
(dp2923
g6
g7
sg8
I01
sg9
g4
sg10
Nsg2241
g0
(g2242
g2
Ntp2924
Rp2925
(dp2926
g2246
g2316
sg2249
Nsg2250
g2251
sg2252
g2251
sg2254
g2317
sg2255
I400
sg2256
g2251
sbsg41
Nsg17
g18
sg2257
Nsg20
I01
sg23
Nsg55
F1.0
sg56
F0.0
sg24
Nsg11
Nsg27
I00
sg28
I00
sg29
(dp2927
sg2259
Nsg31
I00
sg2168
g2222
sg67
Nsg2167
Nsg2260
Nsg32
Nsg72
Nsg65
I01
sg2261
g2319
sg2263
V
p2928
sg2265
Nsg57
Nsg79
I0
sg2295
Nsg80
I01
sg82
Nsg2296
F1.2
sg83
g2083
sg2297
Nsg2298
I00
sg42
Nsg2299
g2300
sg2301
Vleft
p2929
sg33
NsbsS'_right_title'
p2930
g0
(g2237
g2
Ntp2931
Rp2932
(dp2933
g6
g7
sg8
I01
sg9
g4
sg10
Nsg2241
g0
(g2242
g2
Ntp2934
Rp2935
(dp2936
g2246
g2316
sg2249
Nsg2250
g2251
sg2252
g2251
sg2254
g2317
sg2255
I400
sg2256
g2251
sbsg41
Nsg17
g18
sg2257
Nsg20
I01
sg23
Nsg55
F1.0
sg56
F1.0
sg24
Nsg11
Nsg27
I00
sg28
I00
sg29
(dp2937
sg2259
Nsg31
I00
sg2168
g2222
sg67
Nsg2167
Nsg2260
Nsg32
Nsg72
Nsg65
I01
sg2261
g2319
sg2263
V
p2938
sg2265
Nsg57
Nsg79
I0
sg2295
Nsg80
I01
sg82
Nsg2296
F1.2
sg83
g1435
sg2297
Nsg2298
I00
sg42
Nsg2299
g2300
sg2301
Vright
p2939
sg33
NsbsS'transScale'
p2940
g632
sg83
NsS'axison'
p2941
I01
sS'patch'
p2942
g0
(g35
g2
Ntp2943
Rp2944
(dp2945
g6
g7
sg39
F1.0
sg40
I01
sg9
g4
sg8
I01
sg10
Nsg41
Nsg17
g18
sg42
Nsg20
I01
sg43
g0
(g44
g2
Ntp2946
Rp2947
(dp2948
g48
I1
sg49
Nsg50
g7
sg51
(dp2949
sbsg53
(F0.0
F0.0
F0.0
F0.0
tp2950
sg23
Nsg55
F0.0
sg56
F0.0
sg57
Nsg24
Nsg11
Nsg27
I00
sg28
I00
sg29
(dp2951
sg59
g920
sg31
I00
sg64
Nsg65
I01
sg66
F0.0
sg67
Nsg68
F1.0
sg32
Nsg69
I01
sg70
Vw
p2952
sg72
Nsg73
(F1.0
F1.0
F1.0
F1.0
tp2953
sg74
g75
sg76
g77
sg78
VNone
p2954
sg79
I0
sg80
I01
sg81
F0.0
sg82
Nsg83
g179
sg2165
g2166
sg2167
Nsg2168
Nsg33
NsbsS'viewLim'
p2955
g609
sg17
g18
sS'_subplotspec'
p2956
g2196
sS'_adjustable'
p2957
Vbox
p2958
sg9
g4
sS'titleOffsetTrans'
p2959
g160
sS'_yaxis_transform'
p2960
g718
sS'_gridOn'
p2961
I00
sg10
NsS'colNum'
p2962
I0
sg41
Nsg2170
(lp2963
sS'_autoscaleXon'
p2964
I00
sS'_xmargin'
p2965
F0.0
sS'rowNum'
p2966
I0
sS'_position'
p2967
g201
sS'_rasterization_zorder'
p2968
NsS'_cachedRenderer'
p2969
NsS'_navigate'
p2970
I01
sg23
NsS'_originalPosition'
p2971
g0
(g121
g2
Ntp2972
Rp2973
(dp2974
g48
I2
sg125
g89
(g90
(I0
tp2975
g92
tp2976
Rp2977
(I1
(I2
tp2978
g99
I00
S'H\xaf\xbc\x9a\xf2\xd7z>H\xaf\xbc\x9a\xf2\xd7z>'
p2979
tp2980
bsg51
(dp2981
sg133
g89
(g90
(I0
tp2982
g92
tp2983
Rp2984
(I1
(I2
I2
tp2985
g99
I00
S'\x00\x00\x00\x00\x00\x00\xc0?\x00\x00\x00\x00\x00\x00\xc0?\xcd\xcc\xcc\xcc\xcc\xcc\xec?\xcd\xcc\xcc\xcc\xcc\xcc\xec?'
p2986
tp2987
bsg140
g218
sg147
I01
sg50
g7
sbsg24
NsS'_xaxis_transform'
p2988
g643
sg27
I00
sS'figbox'
p2989
g0
(g121
g2
Ntp2990
Rp2991
(dp2992
g48
I0
sg125
g89
(g90
(I0
tp2993
g92
tp2994
Rp2995
(I1
(I2
tp2996
g99
I00
S'H\xaf\xbc\x9a\xf2\xd7z>H\xaf\xbc\x9a\xf2\xd7z>'
p2997
tp2998
bsg51
(dp2999
sg133
g89
(g90
(I0
tp3000
g92
tp3001
Rp3002
(I1
(I2
I2
tp3003
g99
I00
S'Q\x8e8GM~\xc5? B\xfdD\x1a.\xc5?\xf2[\x02\x95\xb1\xfc\xed?x\xc5I\xf5\xb7\x06\xee?'
p3004
tp3005
bsg140
g218
sg147
I01
sg50
g7
sbsS'xaxis'
p3006
g0
(cmatplotlib.axis
XAxis
p3007
g2
Ntp3008
Rp3009
(dp3010
g6
g7
sS'major'
p3011
g0
(cmatplotlib.axis
Ticker
p3012
g2
Ntp3013
Rp3014
(dp3015
S'locator'
p3016
g0
(cmatplotlib.ticker
AutoLocator
p3017
g2
Ntp3018
Rp3019
(dp3020
S'_symmetric'
p3021
I00
sS'_nbins'
p3022
I9
sS'_steps'
p3023
(lp3024
I1
aI2
aI5
aI10
asS'_prune'
p3025
NsS'_integer'
p3026
I00
sS'_trim'
p3027
I01
sS'axis'
p3028
g3009
sbsS'formatter'
p3029
g0
(cmatplotlib.ticker
ScalarFormatter
p3030
g2
Ntp3031
Rp3032
(dp3033
S'_powerlimits'
p3034
(lp3035
I-7
aI7
asS'orderOfMagnitude'
p3036
I0
sS'_useMathText'
p3037
I00
sS'format'
p3038
V$%1.0f$
p3039
sS'_useLocale'
p3040
I00
sS'_useOffset'
p3041
I01
sS'locs'
p3042
g89
(g90
(I0
tp3043
g92
tp3044
Rp3045
(I1
(I6
tp3046
g99
I00
S'\x00\x00\x00\x00\x00\x006@\x00\x00\x00\x00\x00\x007@\x00\x00\x00\x00\x00\x008@\x00\x00\x00\x00\x00\x009@\x00\x00\x00\x00\x00\x00:@\x00\x00\x00\x00\x00\x00;@'
p3047
tp3048
bsS'offset'
p3049
I0
sg2297
I01
sS'_scientific'
p3050
I01
sg3028
g3009
sbsbsS'isDefault_label'
p3051
I00
sS'_scale'
p3052
g0
(cmatplotlib.scale
LinearScale
p3053
g2
Ntp3054
Rp3055
sg9
g4
sg8
I01
sS'_gridOnMinor'
p3056
I00
sg10
Nsg41
NsS'_smart_bounds'
p3057
I00
sg17
g18
sg20
I01
sg23
NsS'offsetText'
p3058
g0
(g2237
g2
Ntp3059
Rp3060
(dp3061
g6
g7
sg8
I01
sg9
g4
sg10
Nsg2241
g0
(g2242
g2
Ntp3062
Rp3063
(dp3064
g2246
(lp3065
g2248
asg2249
Nsg2250
g2251
sg2252
g2251
sg2254
Vmedium
p3066
sg2255
I400
sg2256
g2251
sbsg41
Nsg17
g18
sg2257
Nsg20
I01
sg23
Nsg55
cnumpy.core.multiarray
scalar
p3067
(g99
S'\xe9P\xfc\xb7B\xbf0@'
p3068
tp3069
Rp3070
sg56
I1
sg24
Nsg11
Nsg27
I00
sg28
I00
sg29
(dp3071
sg2259
Nsg31
I00
sg2168
Nsg67
Nsg2167
Nsg2260
Nsg32
Nsg72
Nsg65
I01
sg2261
Vtop
p3072
sg2263
V
p3073
sg2265
Nsg57
Nsg79
I0
sg2295
Nsg80
I01
sg82
Nsg2296
F1.2
sg83
g1439
sg2297
Nsg2298
I00
sg42
Nsg2299
g2300
sg2301
Vright
p3074
sg33
Nsbsg24
Nsg11
NsS'label'
p3075
g0
(g2237
g2
Ntp3076
Rp3077
(dp3078
g6
g7
sg8
I01
sg9
g4
sg10
Nsg2241
g0
(g2242
g2
Ntp3079
Rp3080
(dp3081
g2246
(lp3082
g2248
asg2249
Nsg2250
g2251
sg2252
g2251
sg2254
F15.0
sg2255
I400
sg2256
g2251
sbsg41
Nsg17
g18
sg2257
Nsg20
I01
sg23
Nsg55
g3067
(g99
S'\xb5\xda\x86S\xbe\x0c-@'
p3083
tp3084
Rp3085
sg56
F0.5
sg24
Nsg11
Nsg27
I00
sg28
I00
sg29
(dp3086
sg2259
Nsg31
I00
sg2168
Nsg67
Nsg2167
Nsg2260
Nsg32
Nsg72
Nsg65
I01
sg2261
Vtop
p3087
sg2263
V$\u005cmathrm{Aperture\u005c Magnitude}$
p3088
sg2265
Nsg57
Nsg79
I0
sg2295
Nsg80
I01
sg82
Nsg2296
F1.2
sg83
g304
sg2297
Nsg2298
I00
sg42
Nsg2299
g2300
sg2301
Vcenter
p3089
sg33
Nsbsg27
I00
sS'isDefault_majfmt'
p3090
I01
sg28
I00
sg29
(dp3091
sS'units'
p3092
Nsg31
I00
sS'minor'
p3093
g0
(g3012
g2
Ntp3094
Rp3095
(dp3096
g3016
g0
(cmatplotlib.ticker
NullLocator
p3097
g2
Ntp3098
Rp3099
(dp3100
g3028
g3009
sbsg3029
g0
(cmatplotlib.ticker
NullFormatter
p3101
g2
Ntp3102
Rp3103
(dp3104
g3042
(lp3105
sg3028
g3009
sbsbsg2168
g2222
sS'_major_tick_kw'
p3106
(dp3107
VgridOn
p3108
I00
ssS'isDefault_minloc'
p3109
I01
sg67
g1707
sg32
NsS'_gridOnMajor'
p3110
I00
sS'_lastNumMinorTicks'
p3111
I0
sS'labelpad'
p3112
F5.0
sS'majorTicks'
p3113
(lp3114
g0
(cmatplotlib.axis
XTick
p3115
g2
Ntp3116
Rp3117
(dp3118
g6
g7
sg39
F0.5
sg9
g4
sS'tick1On'
p3119
I01
sg8
I01
sg10
Nsg79
I0
sg41
NsS'_pad'
p3120
F4.0
sS'_labelcolor'
p3121
g2300
sS'gridOn'
p3122
I00
sg2254
F4.0
sg17
g18
sS'_tickdir'
p3123
Vin
p3124
sg3075
g0
(g2237
g2
Ntp3125
Rp3126
(dp3127
g6
g7
sg8
I01
sg9
g4
sg10
Nsg2241
g0
(g2242
g2
Ntp3128
Rp3129
(dp3130
g2246
(lp3131
g2248
asg2249
Nsg2250
g2251
sg2252
g2251
sg2254
F15.0
sg2255
I400
sg2256
g2251
sbsg41
Nsg17
g18
sg2257
Nsg20
I01
sg23
Nsg55
I0
sg56
g3067
(g99
S'\x00\x00\x00\x00\x00\x006@'
p3132
tp3133
Rp3134
sg24
Nsg11
Nsg27
I00
sg28
I00
sg29
(dp3135
sg2259
Nsg31
I00
sg2168
Nsg67
Nsg2167
Nsg2260
Nsg32
Nsg72
Nsg65
I01
sg2261
Vtop
p3136
sg2263
V$22$
p3137
sg2265
Nsg57
Nsg79
I0
sg2295
Nsg80
I01
sg82
Nsg2296
F1.2
sg83
g676
sg2297
Nsg2298
I00
sg42
Nsg2299
g2300
sg2301
Vcenter
p3138
sg33
Nsbsg20
I01
sg23
NsS'label2On'
p3139
I00
sg24
Nsg11
NsS'tick2On'
p3140
I01
sg27
I00
sg28
I00
sg29
(dp3141
sS'_tickmarkers'
p3142
(I2
I3
tp3143
sg31
I00
sS'_zorder'
p3144
F2.01
sg2168
g2222
sS'label1On'
p3145
I01
sg67
g362
sg2167
NsS'label1'
p3146
g3126
sS'label2'
p3147
g0
(g2237
g2
Ntp3148
Rp3149
(dp3150
g6
g7
sg8
I01
sg9
g4
sg10
Nsg2241
g0
(g2242
g2
Ntp3151
Rp3152
(dp3153
g2246
(lp3154
g2248
asg2249
Nsg2250
g2251
sg2252
g2251
sg2254
g3066
sg2255
I400
sg2256
g2251
sbsg41
Nsg17
g18
sg2257
Nsg20
I01
sg23
Nsg55
I1
sg56
I0
sg24
Nsg11
Nsg27
I00
sg28
I00
sg29
(dp3155
sg2259
Nsg31
I00
sg2168
Nsg67
Nsg2167
Nsg2260
Nsg32
Nsg72
Nsg65
I01
sg2261
Vbottom
p3156
sg2263
V$22$
p3157
sg2265
Nsg57
Nsg79
I0
sg2295
Nsg80
I01
sg82
Nsg2296
F1.2
sg83
g691
sg2297
Nsg2298
I00
sg42
Nsg2299
g2300
sg2301
Vcenter
p3158
sg33
Nsbsg72
NsS'_loc'
p3159
g3134
sg65
I01
sg57
NsS'_base_pad'
p3160
F4.0
sS'tick1line'
p3161
g0
(g2658
g2
Ntp3162
Rp3163
(dp3164
g6
g7
sg8
I01
sg2663
g2664
sg9
g4
sg2665
g2666
sg2341
Nsg10
Nsg41
Nsg17
g18
sg2667
g2668
sg20
I01
sg2669
Nsg23
Nsg55
Nsg56
Nsg57
Nsg24
Nsg11
Nsg27
I00
sg2682
Nsg28
I00
sg29
(dp3165
sg2684
Nsg31
I00
sg2686
I00
sg2168
Nsg2687
Nsg2688
F0.5
sg2689
g2690
sg2691
Nsg2299
g2300
sg2692
g0
(g2693
g2
Ntp3166
Rp3167
(dp3168
g2692
I2
sg2698
Nsg2699
F1.0
sg83
g0
(g104
g2
Ntp3169
Rp3170
(dp3171
g48
I2
sg49
Nsg88
g89
(g90
(I0
tp3172
g92
tp3173
Rp3174
(I1
(I3
I3
tp3175
g99
I00
S'\x00\x00\x00\x00\x00\x00\xf0?\x00\x00\x00\x00\x00\x00\x00\x00\x00\x00\x00\x00\x00\x00\x00\x00\x00\x00\x00\x00\x00\x00\x00\x00\x00\x00\x00\x00\x00\x00\xf0?\x00\x00\x00\x00\x00\x00\x00\x00\x00\x00\x00\x00\x00\x00\x00\x00\x00\x00\x00\x00\x00\x00\x00\x00\x00\x00\x00\x00\x00\x00\xf0?'
p3176
tp3177
bsg50
g7
sg51
(dp3178
sbsg2710
I00
sg2711
g2712
sg2713
Nsg2165
g2714
sg74
g2812
sg2716
g0
(g2358
g2
Ntp3179
Rp3180
(dp3181
g2362
I00
sg2363
Nsg2364
g89
(g90
(I0
tp3182
g92
tp3183
Rp3184
(I1
(I2
I2
tp3185
g99
I00
S'\x00\x00\x00\x00\x00\x00\x00\x80\x00\x00\x00\x00\x00\x00\x00\x00\x00\x00\x00\x00\x00\x00\x00\x80\x00\x00\x00\x00\x00\x00\xf0?'
p3186
tp3187
bsg2371
I00
sg2372
F0.1111111111111111
sg2373
I1
sg2374
I00
sbsbsg32
Nsg2732
g2733
sg69
I01
sg2734
g2735
sg72
Nsg2736
F4.0
sg65
I01
sg2737
Nsg76
VNone
p3188
sg2745
(g3134
tp3189
sg79
I0
sg2759
g2760
sg2761
I0
sg2685
I5
sg80
I01
sg82
Nsg2762
g2668
sg2763
I01
sg83
g643
sg2765
I01
sg2584
F2.01
sg42
Nsg2167
Nsg2766
(I0
tp3190
sg67
Nsg66
F1.0
sg33
Nsg2716
Nsbsg80
I00
sS'gridline'
p3191
g0
(g2658
g2
Ntp3192
Rp3193
(dp3194
g6
g7
sg8
I01
sg2663
g2664
sg9
g4
sg2665
g2666
sg2341
Nsg10
Nsg41
Nsg17
g18
sg2667
g2668
sg20
I01
sg2669
Nsg23
Nsg55
g89
(g90
(I0
tp3195
g92
tp3196
Rp3197
(I1
(I2
tp3198
g99
I00
S'\x00\x00\x00\x00\x00\x00\x00\x00\x00\x00\x00\x00\x00\x00\xf0?'
p3199
tp3200
bsg56
g89
(g90
(I0
tp3201
g92
tp3202
Rp3203
(I1
(I2
tp3204
g99
I00
S'\x00\x00\x00\x00\x00\x00\x00\x00\x00\x00\x00\x00\x00\x00\x00\x00'
p3205
tp3206
bsg57
Nsg24
Nsg11
Nsg27
I00
sg2682
Nsg28
I00
sg29
(dp3207
sg2684
Nsg31
I00
sg2686
I00
sg2168
Nsg2687
Nsg2688
F0.5
sg2689
g2690
sg2691
Nsg2299
g2300
sg2692
g0
(g2693
g2
Ntp3208
Rp3209
(dp3210
g2692
VNone
p3211
sg2698
Nsg2699
Nsg83
g0
(g44
g2
Ntp3212
Rp3213
(dp3214
g48
I1
sg49
Nsg50
g7
sg51
(dp3215
sbsg2710
I00
sg2711
g2712
sg2713
Nsg2165
g2714
sg74
g2812
sg2716
g0
(g2358
g2
Ntp3216
Rp3217
(dp3218
g2362
I00
sg2363
Nsg2364
g89
(g90
(I0
tp3219
g92
tp3220
Rp3221
(I1
(I0
I2
tp3222
g99
I00
g2509
tp3223
bsg2371
I00
sg2372
F0.1111111111111111
sg2373
I1
sg2374
I00
sbsbsg32
Nsg2732
g2733
sg69
I01
sg2734
g2735
sg72
Nsg2736
F0.0
sg65
I01
sg2737
g89
(g90
(I0
tp3224
g92
tp3225
Rp3226
(I1
(I2
I2
tp3227
g99
I00
S'\x00\x00\x00\x00\x00\x00\x00\x00\x00\x00\x00\x00\x00\x00\x00\x00\x00\x00\x00\x00\x00\x00\x00\x00\x00\x00\x00\x00\x00\x00\xf0?'
p3228
tp3229
bsg76
V:
p3230
sg2745
(F0.0
F0.0
tp3231
sg79
I0
sg2759
g2760
sg2761
I0
sg2685
I5
sg80
I01
sg82
F1.0
sg2762
g2668
sg2763
I00
sg83
g643
sg2765
I00
sg42
Nsg2167
Nsg2766
(I0
F1.0
tp3232
sg67
g1409
sg66
F0.5
sg33
Nsg2716
g0
(g2358
g2
Ntp3233
Rp3234
(dp3235
g2362
I00
sg2363
Nsg2364
g3226
sg2371
I00
sg2372
F0.1111111111111111
sg2373
I180
sg2374
I00
sbsbsg82
Nsg32
NsS'tick2line'
p3236
g0
(g2658
g2
Ntp3237
Rp3238
(dp3239
g6
g7
sg8
I01
sg2663
g2664
sg9
g4
sg2665
g2666
sg2341
Nsg10
Nsg41
Nsg17
g18
sg2667
g2668
sg20
I01
sg2669
Nsg23
Nsg55
Nsg56
Nsg57
Nsg24
Nsg11
Nsg27
I00
sg2682
Nsg28
I00
sg29
(dp3240
sg2684
Nsg31
I00
sg2686
I00
sg2168
Nsg2687
Nsg2688
F0.5
sg2689
g2690
sg2691
Nsg2299
g2300
sg2692
g0
(g2693
g2
Ntp3241
Rp3242
(dp3243
g2692
I3
sg2698
Nsg2699
F1.0
sg83
g0
(g104
g2
Ntp3244
Rp3245
(dp3246
g48
I2
sg49
Nsg88
g89
(g90
(I0
tp3247
g92
tp3248
Rp3249
(I1
(I3
I3
tp3250
g99
I00
S'\x00\x00\x00\x00\x00\x00\xf0?\x00\x00\x00\x00\x00\x00\x00\x00\x00\x00\x00\x00\x00\x00\x00\x00\x00\x00\x00\x00\x00\x00\x00\x00\x00\x00\x00\x00\x00\x00\xf0\xbf\x00\x00\x00\x00\x00\x00\x00\x00\x00\x00\x00\x00\x00\x00\x00\x00\x00\x00\x00\x00\x00\x00\x00\x00\x00\x00\x00\x00\x00\x00\xf0?'
p3251
tp3252
bsg50
g7
sg51
(dp3253
sbsg2710
I00
sg2711
g2712
sg2713
Nsg2165
g2714
sg74
g2812
sg2716
g3180
sbsg32
Nsg2732
g2733
sg69
I01
sg2734
g2735
sg72
Nsg2736
F4.0
sg65
I01
sg2737
Nsg76
VNone
p3254
sg2745
(g3134
tp3255
sg79
I0
sg2759
g2760
sg2761
I0
sg2685
I5
sg80
I01
sg82
Nsg2762
g2668
sg2763
I01
sg83
g643
sg2765
I01
sg2584
F2.01
sg42
Nsg2167
Nsg2766
(I1
tp3256
sg67
Nsg66
F1.0
sg33
Nsg2716
Nsbsg83
NsS'_labelsize'
p3257
g3066
sS'_name'
p3258
Vxtick
p3259
sg42
Nsg2299
g2300
sg33
Nsbag0
(g3115
g2
Ntp3260
Rp3261
(dp3262
g6
g7
sg39
F0.5
sg9
g4
sg3119
I01
sg8
I01
sg10
Nsg79
I0
sg41
Nsg3120
F4.0
sg3121
g2300
sg3122
I00
sg2254
F4.0
sg17
g18
sg3123
g3124
sg3075
g0
(g2237
g2
Ntp3263
Rp3264
(dp3265
g6
g7
sg8
I01
sg9
g4
sg10
Nsg2241
g0
(g2242
g2
Ntp3266
Rp3267
(dp3268
g2246
g3131
sg2249
Nsg2250
g2251
sg2252
g2251
sg2254
F15.0
sg2255
I400
sg2256
g2251
sbsg41
Nsg17
g18
sg2257
Nsg20
I01
sg23
Nsg55
I0
sg56
g3067
(g99
S'\x00\x00\x00\x00\x00\x007@'
p3269
tp3270
Rp3271
sg24
Nsg11
Nsg27
I00
sg28
I00
sg29
(dp3272
sg2259
Nsg31
I00
sg2168
Nsg67
Nsg2167
Nsg2260
Nsg32
Nsg72
Nsg65
I01
sg2261
g3136
sg2263
V$23$
p3273
sg2265
Nsg57
Nsg79
I0
sg2295
Nsg80
I01
sg82
Nsg2296
F1.2
sg83
g676
sg2297
Nsg2298
I00
sg42
Nsg2299
g2300
sg2301
g3138
sg33
Nsbsg20
I01
sg23
Nsg3139
I00
sg24
Nsg11
Nsg3140
I01
sg27
I00
sg28
I00
sg29
(dp3274
sg3142
(I2
I3
tp3275
sg31
I00
sg3144
F2.01
sg2168
g2222
sg3145
I01
sg67
g277
sg2167
Nsg3146
g3264
sg3147
g0
(g2237
g2
Ntp3276
Rp3277
(dp3278
g6
g7
sg8
I01
sg9
g4
sg10
Nsg2241
g0
(g2242
g2
Ntp3279
Rp3280
(dp3281
g2246
g3154
sg2249
Nsg2250
g2251
sg2252
g2251
sg2254
g3066
sg2255
I400
sg2256
g2251
sbsg41
Nsg17
g18
sg2257
Nsg20
I01
sg23
Nsg55
I1
sg56
I0
sg24
Nsg11
Nsg27
I00
sg28
I00
sg29
(dp3282
sg2259
Nsg31
I00
sg2168
Nsg67
Nsg2167
Nsg2260
Nsg32
Nsg72
Nsg65
I01
sg2261
g3156
sg2263
V$23$
p3283
sg2265
Nsg57
Nsg79
I0
sg2295
Nsg80
I01
sg82
Nsg2296
F1.2
sg83
g691
sg2297
Nsg2298
I00
sg42
Nsg2299
g2300
sg2301
g3158
sg33
Nsbsg72
Nsg3159
g3271
sg65
I01
sg57
Nsg3160
F4.0
sg3161
g0
(g2658
g2
Ntp3284
Rp3285
(dp3286
g6
g7
sg8
I01
sg2663
g2664
sg9
g4
sg2665
g2666
sg2341
Nsg10
Nsg41
Nsg17
g18
sg2667
g2668
sg20
I01
sg2669
Nsg23
Nsg55
Nsg56
Nsg57
Nsg24
Nsg11
Nsg27
I00
sg2682
Nsg28
I00
sg29
(dp3287
sg2684
Nsg31
I00
sg2686
I00
sg2168
Nsg2687
Nsg2688
F0.5
sg2689
g2690
sg2691
Nsg2299
g2300
sg2692
g0
(g2693
g2
Ntp3288
Rp3289
(dp3290
g2692
I2
sg2698
Nsg2699
F1.0
sg83
g0
(g104
g2
Ntp3291
Rp3292
(dp3293
g48
I2
sg49
Nsg88
g89
(g90
(I0
tp3294
g92
tp3295
Rp3296
(I1
(I3
I3
tp3297
g99
I00
S'\x00\x00\x00\x00\x00\x00\xf0?\x00\x00\x00\x00\x00\x00\x00\x00\x00\x00\x00\x00\x00\x00\x00\x00\x00\x00\x00\x00\x00\x00\x00\x00\x00\x00\x00\x00\x00\x00\xf0?\x00\x00\x00\x00\x00\x00\x00\x00\x00\x00\x00\x00\x00\x00\x00\x00\x00\x00\x00\x00\x00\x00\x00\x00\x00\x00\x00\x00\x00\x00\xf0?'
p3298
tp3299
bsg50
g7
sg51
(dp3300
sbsg2710
I00
sg2711
g2712
sg2713
Nsg2165
g2714
sg74
g2812
sg2716
g3180
sbsg32
Nsg2732
g2733
sg69
I01
sg2734
g2735
sg72
Nsg2736
F4.0
sg65
I01
sg2737
Nsg76
g3188
sg2745
(g3271
tp3301
sg79
I0
sg2759
g2760
sg2761
I0
sg2685
I5
sg80
I01
sg82
Nsg2762
g2668
sg2763
I01
sg83
g643
sg2765
I01
sg2584
F2.01
sg42
Nsg2167
Nsg2766
g3190
sg67
Nsg66
F1.0
sg33
Nsg2716
Nsbsg80
I00
sg3191
g0
(g2658
g2
Ntp3302
Rp3303
(dp3304
g6
g7
sg8
I01
sg2663
g2664
sg9
g4
sg2665
g2666
sg2341
Nsg10
Nsg41
Nsg17
g18
sg2667
g2668
sg20
I01
sg2669
Nsg23
Nsg55
g89
(g90
(I0
tp3305
g92
tp3306
Rp3307
(I1
(I2
tp3308
g99
I00
S'\x00\x00\x00\x00\x00\x00\x00\x00\x00\x00\x00\x00\x00\x00\xf0?'
p3309
tp3310
bsg56
g89
(g90
(I0
tp3311
g92
tp3312
Rp3313
(I1
(I2
tp3314
g99
I00
S'\x00\x00\x00\x00\x00\x00\x00\x00\x00\x00\x00\x00\x00\x00\x00\x00'
p3315
tp3316
bsg57
Nsg24
Nsg11
Nsg27
I00
sg2682
Nsg28
I00
sg29
(dp3317
sg2684
Nsg31
I00
sg2686
I00
sg2168
Nsg2687
Nsg2688
F0.5
sg2689
g2690
sg2691
Nsg2299
g2300
sg2692
g0
(g2693
g2
Ntp3318
Rp3319
(dp3320
g2692
g3211
sg2698
Nsg2699
Nsg83
g0
(g44
g2
Ntp3321
Rp3322
(dp3323
g48
I1
sg49
Nsg50
g7
sg51
(dp3324
sbsg2710
I00
sg2711
g2712
sg2713
Nsg2165
g2714
sg74
g2812
sg2716
g0
(g2358
g2
Ntp3325
Rp3326
(dp3327
g2362
I00
sg2363
Nsg2364
g89
(g90
(I0
tp3328
g92
tp3329
Rp3330
(I1
(I0
I2
tp3331
g99
I00
g2509
tp3332
bsg2371
I00
sg2372
F0.1111111111111111
sg2373
I1
sg2374
I00
sbsbsg32
Nsg2732
g2733
sg69
I01
sg2734
g2735
sg72
Nsg2736
F0.0
sg65
I01
sg2737
g89
(g90
(I0
tp3333
g92
tp3334
Rp3335
(I1
(I2
I2
tp3336
g99
I00
S'\x00\x00\x00\x00\x00\x00\x00\x00\x00\x00\x00\x00\x00\x00\x00\x00\x00\x00\x00\x00\x00\x00\x00\x00\x00\x00\x00\x00\x00\x00\xf0?'
p3337
tp3338
bsg76
g3230
sg2745
g3231
sg79
I0
sg2759
g2760
sg2761
I0
sg2685
I5
sg80
I01
sg82
F1.0
sg2762
g2668
sg2763
I00
sg83
g643
sg2765
I00
sg42
Nsg2167
Nsg2766
g3232
sg67
g1409
sg66
F0.5
sg33
Nsg2716
g0
(g2358
g2
Ntp3339
Rp3340
(dp3341
g2362
I00
sg2363
Nsg2364
g3335
sg2371
I00
sg2372
F0.1111111111111111
sg2373
I180
sg2374
I00
sbsbsg82
Nsg32
Nsg3236
g0
(g2658
g2
Ntp3342
Rp3343
(dp3344
g6
g7
sg8
I01
sg2663
g2664
sg9
g4
sg2665
g2666
sg2341
Nsg10
Nsg41
Nsg17
g18
sg2667
g2668
sg20
I01
sg2669
Nsg23
Nsg55
Nsg56
Nsg57
Nsg24
Nsg11
Nsg27
I00
sg2682
Nsg28
I00
sg29
(dp3345
sg2684
Nsg31
I00
sg2686
I00
sg2168
Nsg2687
Nsg2688
F0.5
sg2689
g2690
sg2691
Nsg2299
g2300
sg2692
g0
(g2693
g2
Ntp3346
Rp3347
(dp3348
g2692
I3
sg2698
Nsg2699
F1.0
sg83
g0
(g104
g2
Ntp3349
Rp3350
(dp3351
g48
I2
sg49
Nsg88
g89
(g90
(I0
tp3352
g92
tp3353
Rp3354
(I1
(I3
I3
tp3355
g99
I00
S'\x00\x00\x00\x00\x00\x00\xf0?\x00\x00\x00\x00\x00\x00\x00\x00\x00\x00\x00\x00\x00\x00\x00\x00\x00\x00\x00\x00\x00\x00\x00\x00\x00\x00\x00\x00\x00\x00\xf0\xbf\x00\x00\x00\x00\x00\x00\x00\x00\x00\x00\x00\x00\x00\x00\x00\x00\x00\x00\x00\x00\x00\x00\x00\x00\x00\x00\x00\x00\x00\x00\xf0?'
p3356
tp3357
bsg50
g7
sg51
(dp3358
sbsg2710
I00
sg2711
g2712
sg2713
Nsg2165
g2714
sg74
g2812
sg2716
g3180
sbsg32
Nsg2732
g2733
sg69
I01
sg2734
g2735
sg72
Nsg2736
F4.0
sg65
I01
sg2737
Nsg76
g3254
sg2745
(g3271
tp3359
sg79
I0
sg2759
g2760
sg2761
I0
sg2685
I5
sg80
I01
sg82
Nsg2762
g2668
sg2763
I01
sg83
g643
sg2765
I01
sg2584
F2.01
sg42
Nsg2167
Nsg2766
g3256
sg67
Nsg66
F1.0
sg33
Nsg2716
Nsbsg83
Nsg3257
g3066
sg3258
g3259
sg42
Nsg2299
g2300
sg33
Nsbag0
(g3115
g2
Ntp3360
Rp3361
(dp3362
g6
g7
sg39
F0.5
sg9
g4
sg3119
I01
sg8
I01
sg10
Nsg79
I0
sg41
Nsg3120
F4.0
sg3121
g2300
sg3122
I00
sg2254
F4.0
sg17
g18
sg3123
g3124
sg3075
g0
(g2237
g2
Ntp3363
Rp3364
(dp3365
g6
g7
sg8
I01
sg9
g4
sg10
Nsg2241
g0
(g2242
g2
Ntp3366
Rp3367
(dp3368
g2246
g3131
sg2249
Nsg2250
g2251
sg2252
g2251
sg2254
F15.0
sg2255
I400
sg2256
g2251
sbsg41
Nsg17
g18
sg2257
Nsg20
I01
sg23
Nsg55
I0
sg56
g3067
(g99
S'\x00\x00\x00\x00\x00\x008@'
p3369
tp3370
Rp3371
sg24
Nsg11
Nsg27
I00
sg28
I00
sg29
(dp3372
sg2259
Nsg31
I00
sg2168
Nsg67
Nsg2167
Nsg2260
Nsg32
Nsg72
Nsg65
I01
sg2261
g3136
sg2263
V$24$
p3373
sg2265
Nsg57
Nsg79
I0
sg2295
Nsg80
I01
sg82
Nsg2296
F1.2
sg83
g676
sg2297
Nsg2298
I00
sg42
Nsg2299
g2300
sg2301
g3138
sg33
Nsbsg20
I01
sg23
Nsg3139
I00
sg24
Nsg11
Nsg3140
I01
sg27
I00
sg28
I00
sg29
(dp3374
sg3142
(I2
I3
tp3375
sg31
I00
sg3144
F2.01
sg2168
g2222
sg3145
I01
sg67
Nsg2167
Nsg3146
g3364
sg3147
g0
(g2237
g2
Ntp3376
Rp3377
(dp3378
g6
g7
sg8
I01
sg9
g4
sg10
Nsg2241
g0
(g2242
g2
Ntp3379
Rp3380
(dp3381
g2246
g3154
sg2249
Nsg2250
g2251
sg2252
g2251
sg2254
g3066
sg2255
I400
sg2256
g2251
sbsg41
Nsg17
g18
sg2257
Nsg20
I01
sg23
Nsg55
I1
sg56
I0
sg24
Nsg11
Nsg27
I00
sg28
I00
sg29
(dp3382
sg2259
Nsg31
I00
sg2168
Nsg67
Nsg2167
Nsg2260
Nsg32
Nsg72
Nsg65
I01
sg2261
g3156
sg2263
V$24$
p3383
sg2265
Nsg57
Nsg79
I0
sg2295
Nsg80
I01
sg82
Nsg2296
F1.2
sg83
g691
sg2297
Nsg2298
I00
sg42
Nsg2299
g2300
sg2301
g3158
sg33
Nsbsg72
Nsg3159
g3371
sg65
I01
sg57
Nsg3160
F4.0
sg3161
g0
(g2658
g2
Ntp3384
Rp3385
(dp3386
g6
g7
sg8
I01
sg2663
g2664
sg9
g4
sg2665
g2666
sg2341
Nsg10
Nsg41
Nsg17
g18
sg2667
g2668
sg20
I01
sg2669
Nsg23
Nsg55
Nsg56
Nsg57
Nsg24
Nsg11
Nsg27
I00
sg2682
Nsg28
I00
sg29
(dp3387
sg2684
Nsg31
I00
sg2686
I00
sg2168
Nsg2687
Nsg2688
F0.5
sg2689
g2690
sg2691
Nsg2299
g2300
sg2692
g0
(g2693
g2
Ntp3388
Rp3389
(dp3390
g2692
I2
sg2698
Nsg2699
F1.0
sg83
g0
(g104
g2
Ntp3391
Rp3392
(dp3393
g48
I2
sg49
Nsg88
g89
(g90
(I0
tp3394
g92
tp3395
Rp3396
(I1
(I3
I3
tp3397
g99
I00
S'\x00\x00\x00\x00\x00\x00\xf0?\x00\x00\x00\x00\x00\x00\x00\x00\x00\x00\x00\x00\x00\x00\x00\x00\x00\x00\x00\x00\x00\x00\x00\x00\x00\x00\x00\x00\x00\x00\xf0?\x00\x00\x00\x00\x00\x00\x00\x00\x00\x00\x00\x00\x00\x00\x00\x00\x00\x00\x00\x00\x00\x00\x00\x00\x00\x00\x00\x00\x00\x00\xf0?'
p3398
tp3399
bsg50
g7
sg51
(dp3400
sbsg2710
I00
sg2711
g2712
sg2713
Nsg2165
g2714
sg74
g2812
sg2716
g3180
sbsg32
Nsg2732
g2733
sg69
I01
sg2734
g2735
sg72
Nsg2736
F4.0
sg65
I01
sg2737
Nsg76
g3188
sg2745
(g3371
tp3401
sg79
I0
sg2759
g2760
sg2761
I0
sg2685
I5
sg80
I01
sg82
Nsg2762
g2668
sg2763
I01
sg83
g643
sg2765
I01
sg2584
F2.01
sg42
Nsg2167
Nsg2766
g3190
sg67
Nsg66
F1.0
sg33
Nsg2716
Nsbsg80
I00
sg3191
g0
(g2658
g2
Ntp3402
Rp3403
(dp3404
g6
g7
sg8
I01
sg2663
g2664
sg9
g4
sg2665
g2666
sg2341
Nsg10
Nsg41
Nsg17
g18
sg2667
g2668
sg20
I01
sg2669
Nsg23
Nsg55
g89
(g90
(I0
tp3405
g92
tp3406
Rp3407
(I1
(I2
tp3408
g99
I00
S'\x00\x00\x00\x00\x00\x00\x00\x00\x00\x00\x00\x00\x00\x00\xf0?'
p3409
tp3410
bsg56
g89
(g90
(I0
tp3411
g92
tp3412
Rp3413
(I1
(I2
tp3414
g99
I00
S'\x00\x00\x00\x00\x00\x00\x00\x00\x00\x00\x00\x00\x00\x00\x00\x00'
p3415
tp3416
bsg57
Nsg24
Nsg11
Nsg27
I00
sg2682
Nsg28
I00
sg29
(dp3417
sg2684
Nsg31
I00
sg2686
I00
sg2168
Nsg2687
Nsg2688
F0.5
sg2689
g2690
sg2691
Nsg2299
g2300
sg2692
g0
(g2693
g2
Ntp3418
Rp3419
(dp3420
g2692
g3211
sg2698
Nsg2699
Nsg83
g0
(g44
g2
Ntp3421
Rp3422
(dp3423
g48
I1
sg49
Nsg50
g7
sg51
(dp3424
sbsg2710
I00
sg2711
g2712
sg2713
Nsg2165
g2714
sg74
g2812
sg2716
g0
(g2358
g2
Ntp3425
Rp3426
(dp3427
g2362
I00
sg2363
Nsg2364
g89
(g90
(I0
tp3428
g92
tp3429
Rp3430
(I1
(I0
I2
tp3431
g99
I00
g2509
tp3432
bsg2371
I00
sg2372
F0.1111111111111111
sg2373
I1
sg2374
I00
sbsbsg32
Nsg2732
g2733
sg69
I01
sg2734
g2735
sg72
Nsg2736
F0.0
sg65
I01
sg2737
g89
(g90
(I0
tp3433
g92
tp3434
Rp3435
(I1
(I2
I2
tp3436
g99
I00
S'\x00\x00\x00\x00\x00\x00\x00\x00\x00\x00\x00\x00\x00\x00\x00\x00\x00\x00\x00\x00\x00\x00\x00\x00\x00\x00\x00\x00\x00\x00\xf0?'
p3437
tp3438
bsg76
g3230
sg2745
g3231
sg79
I0
sg2759
g2760
sg2761
I0
sg2685
I5
sg80
I01
sg82
F1.0
sg2762
g2668
sg2763
I00
sg83
g643
sg2765
I00
sg42
Nsg2167
Nsg2766
g3232
sg67
g1409
sg66
F0.5
sg33
Nsg2716
g0
(g2358
g2
Ntp3439
Rp3440
(dp3441
g2362
I00
sg2363
Nsg2364
g3435
sg2371
I00
sg2372
F0.1111111111111111
sg2373
I180
sg2374
I00
sbsbsg82
Nsg32
Nsg3236
g0
(g2658
g2
Ntp3442
Rp3443
(dp3444
g6
g7
sg8
I01
sg2663
g2664
sg9
g4
sg2665
g2666
sg2341
Nsg10
Nsg41
Nsg17
g18
sg2667
g2668
sg20
I01
sg2669
Nsg23
Nsg55
Nsg56
Nsg57
Nsg24
Nsg11
Nsg27
I00
sg2682
Nsg28
I00
sg29
(dp3445
sg2684
Nsg31
I00
sg2686
I00
sg2168
Nsg2687
Nsg2688
F0.5
sg2689
g2690
sg2691
Nsg2299
g2300
sg2692
g0
(g2693
g2
Ntp3446
Rp3447
(dp3448
g2692
I3
sg2698
Nsg2699
F1.0
sg83
g0
(g104
g2
Ntp3449
Rp3450
(dp3451
g48
I2
sg49
Nsg88
g89
(g90
(I0
tp3452
g92
tp3453
Rp3454
(I1
(I3
I3
tp3455
g99
I00
S'\x00\x00\x00\x00\x00\x00\xf0?\x00\x00\x00\x00\x00\x00\x00\x00\x00\x00\x00\x00\x00\x00\x00\x00\x00\x00\x00\x00\x00\x00\x00\x00\x00\x00\x00\x00\x00\x00\xf0\xbf\x00\x00\x00\x00\x00\x00\x00\x00\x00\x00\x00\x00\x00\x00\x00\x00\x00\x00\x00\x00\x00\x00\x00\x00\x00\x00\x00\x00\x00\x00\xf0?'
p3456
tp3457
bsg50
g7
sg51
(dp3458
sbsg2710
I00
sg2711
g2712
sg2713
Nsg2165
g2714
sg74
g2812
sg2716
g3180
sbsg32
Nsg2732
g2733
sg69
I01
sg2734
g2735
sg72
Nsg2736
F4.0
sg65
I01
sg2737
Nsg76
g3254
sg2745
(g3371
tp3459
sg79
I0
sg2759
g2760
sg2761
I0
sg2685
I5
sg80
I01
sg82
Nsg2762
g2668
sg2763
I01
sg83
g643
sg2765
I01
sg2584
F2.01
sg42
Nsg2167
Nsg2766
g3256
sg67
Nsg66
F1.0
sg33
Nsg2716
Nsbsg83
Nsg3257
g3066
sg3258
g3259
sg42
Nsg2299
g2300
sg33
Nsbag0
(g3115
g2
Ntp3460
Rp3461
(dp3462
g6
g7
sg39
F0.5
sg9
g4
sg3119
I01
sg8
I01
sg10
Nsg79
I0
sg41
Nsg3120
F4.0
sg3121
g2300
sg3122
I00
sg2254
F4.0
sg17
g18
sg3123
g3124
sg3075
g0
(g2237
g2
Ntp3463
Rp3464
(dp3465
g6
g7
sg8
I01
sg9
g4
sg10
Nsg2241
g0
(g2242
g2
Ntp3466
Rp3467
(dp3468
g2246
g3131
sg2249
Nsg2250
g2251
sg2252
g2251
sg2254
F15.0
sg2255
I400
sg2256
g2251
sbsg41
Nsg17
g18
sg2257
Nsg20
I01
sg23
Nsg55
I0
sg56
g3067
(g99
S'\x00\x00\x00\x00\x00\x009@'
p3469
tp3470
Rp3471
sg24
Nsg11
Nsg27
I00
sg28
I00
sg29
(dp3472
sg2259
Nsg31
I00
sg2168
Nsg67
Nsg2167
Nsg2260
Nsg32
Nsg72
Nsg65
I01
sg2261
g3136
sg2263
V$25$
p3473
sg2265
Nsg57
Nsg79
I0
sg2295
Nsg80
I01
sg82
Nsg2296
F1.2
sg83
g676
sg2297
Nsg2298
I00
sg42
Nsg2299
g2300
sg2301
g3138
sg33
Nsbsg20
I01
sg23
Nsg3139
I00
sg24
Nsg11
Nsg3140
I01
sg27
I00
sg28
I00
sg29
(dp3474
sg3142
(I2
I3
tp3475
sg31
I00
sg3144
F2.01
sg2168
g2222
sg3145
I01
sg67
Nsg2167
Nsg3146
g3464
sg3147
g0
(g2237
g2
Ntp3476
Rp3477
(dp3478
g6
g7
sg8
I01
sg9
g4
sg10
Nsg2241
g0
(g2242
g2
Ntp3479
Rp3480
(dp3481
g2246
g3154
sg2249
Nsg2250
g2251
sg2252
g2251
sg2254
g3066
sg2255
I400
sg2256
g2251
sbsg41
Nsg17
g18
sg2257
Nsg20
I01
sg23
Nsg55
I1
sg56
I0
sg24
Nsg11
Nsg27
I00
sg28
I00
sg29
(dp3482
sg2259
Nsg31
I00
sg2168
Nsg67
Nsg2167
Nsg2260
Nsg32
Nsg72
Nsg65
I01
sg2261
g3156
sg2263
V$25$
p3483
sg2265
Nsg57
Nsg79
I0
sg2295
Nsg80
I01
sg82
Nsg2296
F1.2
sg83
g691
sg2297
Nsg2298
I00
sg42
Nsg2299
g2300
sg2301
g3158
sg33
Nsbsg72
Nsg3159
g3471
sg65
I01
sg57
Nsg3160
F4.0
sg3161
g0
(g2658
g2
Ntp3484
Rp3485
(dp3486
g6
g7
sg8
I01
sg2663
g2664
sg9
g4
sg2665
g2666
sg2341
Nsg10
Nsg41
Nsg17
g18
sg2667
g2668
sg20
I01
sg2669
Nsg23
Nsg55
Nsg56
Nsg57
Nsg24
Nsg11
Nsg27
I00
sg2682
Nsg28
I00
sg29
(dp3487
sg2684
Nsg31
I00
sg2686
I00
sg2168
Nsg2687
Nsg2688
F0.5
sg2689
g2690
sg2691
Nsg2299
g2300
sg2692
g0
(g2693
g2
Ntp3488
Rp3489
(dp3490
g2692
I2
sg2698
Nsg2699
F1.0
sg83
g0
(g104
g2
Ntp3491
Rp3492
(dp3493
g48
I2
sg49
Nsg88
g89
(g90
(I0
tp3494
g92
tp3495
Rp3496
(I1
(I3
I3
tp3497
g99
I00
S'\x00\x00\x00\x00\x00\x00\xf0?\x00\x00\x00\x00\x00\x00\x00\x00\x00\x00\x00\x00\x00\x00\x00\x00\x00\x00\x00\x00\x00\x00\x00\x00\x00\x00\x00\x00\x00\x00\xf0?\x00\x00\x00\x00\x00\x00\x00\x00\x00\x00\x00\x00\x00\x00\x00\x00\x00\x00\x00\x00\x00\x00\x00\x00\x00\x00\x00\x00\x00\x00\xf0?'
p3498
tp3499
bsg50
g7
sg51
(dp3500
sbsg2710
I00
sg2711
g2712
sg2713
Nsg2165
g2714
sg74
g2812
sg2716
g3180
sbsg32
Nsg2732
g2733
sg69
I01
sg2734
g2735
sg72
Nsg2736
F4.0
sg65
I01
sg2737
Nsg76
g3188
sg2745
(g3471
tp3501
sg79
I0
sg2759
g2760
sg2761
I0
sg2685
I5
sg80
I01
sg82
Nsg2762
g2668
sg2763
I01
sg83
g643
sg2765
I01
sg2584
F2.01
sg42
Nsg2167
Nsg2766
g3190
sg67
Nsg66
F1.0
sg33
Nsg2716
Nsbsg80
I00
sg3191
g0
(g2658
g2
Ntp3502
Rp3503
(dp3504
g6
g7
sg8
I01
sg2663
g2664
sg9
g4
sg2665
g2666
sg2341
Nsg10
Nsg41
Nsg17
g18
sg2667
g2668
sg20
I01
sg2669
Nsg23
Nsg55
g89
(g90
(I0
tp3505
g92
tp3506
Rp3507
(I1
(I2
tp3508
g99
I00
S'\x00\x00\x00\x00\x00\x00\x00\x00\x00\x00\x00\x00\x00\x00\xf0?'
p3509
tp3510
bsg56
g89
(g90
(I0
tp3511
g92
tp3512
Rp3513
(I1
(I2
tp3514
g99
I00
S'\x00\x00\x00\x00\x00\x00\x00\x00\x00\x00\x00\x00\x00\x00\x00\x00'
p3515
tp3516
bsg57
Nsg24
Nsg11
Nsg27
I00
sg2682
Nsg28
I00
sg29
(dp3517
sg2684
Nsg31
I00
sg2686
I00
sg2168
Nsg2687
Nsg2688
F0.5
sg2689
g2690
sg2691
Nsg2299
g2300
sg2692
g0
(g2693
g2
Ntp3518
Rp3519
(dp3520
g2692
g3211
sg2698
Nsg2699
Nsg83
g0
(g44
g2
Ntp3521
Rp3522
(dp3523
g48
I1
sg49
Nsg50
g7
sg51
(dp3524
sbsg2710
I00
sg2711
g2712
sg2713
Nsg2165
g2714
sg74
g2812
sg2716
g0
(g2358
g2
Ntp3525
Rp3526
(dp3527
g2362
I00
sg2363
Nsg2364
g89
(g90
(I0
tp3528
g92
tp3529
Rp3530
(I1
(I0
I2
tp3531
g99
I00
g2509
tp3532
bsg2371
I00
sg2372
F0.1111111111111111
sg2373
I1
sg2374
I00
sbsbsg32
Nsg2732
g2733
sg69
I01
sg2734
g2735
sg72
Nsg2736
F0.0
sg65
I01
sg2737
g89
(g90
(I0
tp3533
g92
tp3534
Rp3535
(I1
(I2
I2
tp3536
g99
I00
S'\x00\x00\x00\x00\x00\x00\x00\x00\x00\x00\x00\x00\x00\x00\x00\x00\x00\x00\x00\x00\x00\x00\x00\x00\x00\x00\x00\x00\x00\x00\xf0?'
p3537
tp3538
bsg76
g3230
sg2745
g3231
sg79
I0
sg2759
g2760
sg2761
I0
sg2685
I5
sg80
I01
sg82
F1.0
sg2762
g2668
sg2763
I00
sg83
g643
sg2765
I00
sg42
Nsg2167
Nsg2766
g3232
sg67
g1409
sg66
F0.5
sg33
Nsg2716
g0
(g2358
g2
Ntp3539
Rp3540
(dp3541
g2362
I00
sg2363
Nsg2364
g3535
sg2371
I00
sg2372
F0.1111111111111111
sg2373
I180
sg2374
I00
sbsbsg82
Nsg32
Nsg3236
g0
(g2658
g2
Ntp3542
Rp3543
(dp3544
g6
g7
sg8
I01
sg2663
g2664
sg9
g4
sg2665
g2666
sg2341
Nsg10
Nsg41
Nsg17
g18
sg2667
g2668
sg20
I01
sg2669
Nsg23
Nsg55
Nsg56
Nsg57
Nsg24
Nsg11
Nsg27
I00
sg2682
Nsg28
I00
sg29
(dp3545
sg2684
Nsg31
I00
sg2686
I00
sg2168
Nsg2687
Nsg2688
F0.5
sg2689
g2690
sg2691
Nsg2299
g2300
sg2692
g0
(g2693
g2
Ntp3546
Rp3547
(dp3548
g2692
I3
sg2698
Nsg2699
F1.0
sg83
g0
(g104
g2
Ntp3549
Rp3550
(dp3551
g48
I2
sg49
Nsg88
g89
(g90
(I0
tp3552
g92
tp3553
Rp3554
(I1
(I3
I3
tp3555
g99
I00
S'\x00\x00\x00\x00\x00\x00\xf0?\x00\x00\x00\x00\x00\x00\x00\x00\x00\x00\x00\x00\x00\x00\x00\x00\x00\x00\x00\x00\x00\x00\x00\x00\x00\x00\x00\x00\x00\x00\xf0\xbf\x00\x00\x00\x00\x00\x00\x00\x00\x00\x00\x00\x00\x00\x00\x00\x00\x00\x00\x00\x00\x00\x00\x00\x00\x00\x00\x00\x00\x00\x00\xf0?'
p3556
tp3557
bsg50
g7
sg51
(dp3558
sbsg2710
I00
sg2711
g2712
sg2713
Nsg2165
g2714
sg74
g2812
sg2716
g3180
sbsg32
Nsg2732
g2733
sg69
I01
sg2734
g2735
sg72
Nsg2736
F4.0
sg65
I01
sg2737
Nsg76
g3254
sg2745
(g3471
tp3559
sg79
I0
sg2759
g2760
sg2761
I0
sg2685
I5
sg80
I01
sg82
Nsg2762
g2668
sg2763
I01
sg83
g643
sg2765
I01
sg2584
F2.01
sg42
Nsg2167
Nsg2766
g3256
sg67
Nsg66
F1.0
sg33
Nsg2716
Nsbsg83
Nsg3257
g3066
sg3258
g3259
sg42
Nsg2299
g2300
sg33
Nsbag0
(g3115
g2
Ntp3560
Rp3561
(dp3562
g6
g7
sg39
F0.5
sg9
g4
sg3119
I01
sg8
I01
sg10
Nsg79
I0
sg41
Nsg3120
F4.0
sg3121
g2300
sg3122
I00
sg2254
F4.0
sg17
g18
sg3123
g3124
sg3075
g0
(g2237
g2
Ntp3563
Rp3564
(dp3565
g6
g7
sg8
I01
sg9
g4
sg10
Nsg2241
g0
(g2242
g2
Ntp3566
Rp3567
(dp3568
g2246
g3131
sg2249
Nsg2250
g2251
sg2252
g2251
sg2254
F15.0
sg2255
I400
sg2256
g2251
sbsg41
Nsg17
g18
sg2257
Nsg20
I01
sg23
Nsg55
I0
sg56
g3067
(g99
S'\x00\x00\x00\x00\x00\x00:@'
p3569
tp3570
Rp3571
sg24
Nsg11
Nsg27
I00
sg28
I00
sg29
(dp3572
sg2259
Nsg31
I00
sg2168
Nsg67
Nsg2167
Nsg2260
Nsg32
Nsg72
Nsg65
I01
sg2261
g3136
sg2263
V$26$
p3573
sg2265
Nsg57
Nsg79
I0
sg2295
Nsg80
I01
sg82
Nsg2296
F1.2
sg83
g676
sg2297
Nsg2298
I00
sg42
Nsg2299
g2300
sg2301
g3138
sg33
Nsbsg20
I01
sg23
Nsg3139
I00
sg24
Nsg11
Nsg3140
I01
sg27
I00
sg28
I00
sg29
(dp3574
sg3142
(I2
I3
tp3575
sg31
I00
sg3144
F2.01
sg2168
g2222
sg3145
I01
sg67
Nsg2167
Nsg3146
g3564
sg3147
g0
(g2237
g2
Ntp3576
Rp3577
(dp3578
g6
g7
sg8
I01
sg9
g4
sg10
Nsg2241
g0
(g2242
g2
Ntp3579
Rp3580
(dp3581
g2246
g3154
sg2249
Nsg2250
g2251
sg2252
g2251
sg2254
g3066
sg2255
I400
sg2256
g2251
sbsg41
Nsg17
g18
sg2257
Nsg20
I01
sg23
Nsg55
I1
sg56
I0
sg24
Nsg11
Nsg27
I00
sg28
I00
sg29
(dp3582
sg2259
Nsg31
I00
sg2168
Nsg67
Nsg2167
Nsg2260
Nsg32
Nsg72
Nsg65
I01
sg2261
g3156
sg2263
V$26$
p3583
sg2265
Nsg57
Nsg79
I0
sg2295
Nsg80
I01
sg82
Nsg2296
F1.2
sg83
g691
sg2297
Nsg2298
I00
sg42
Nsg2299
g2300
sg2301
g3158
sg33
Nsbsg72
Nsg3159
g3571
sg65
I01
sg57
Nsg3160
F4.0
sg3161
g0
(g2658
g2
Ntp3584
Rp3585
(dp3586
g6
g7
sg8
I01
sg2663
g2664
sg9
g4
sg2665
g2666
sg2341
Nsg10
Nsg41
Nsg17
g18
sg2667
g2668
sg20
I01
sg2669
Nsg23
Nsg55
Nsg56
Nsg57
Nsg24
Nsg11
Nsg27
I00
sg2682
Nsg28
I00
sg29
(dp3587
sg2684
Nsg31
I00
sg2686
I00
sg2168
Nsg2687
Nsg2688
F0.5
sg2689
g2690
sg2691
Nsg2299
g2300
sg2692
g0
(g2693
g2
Ntp3588
Rp3589
(dp3590
g2692
I2
sg2698
Nsg2699
F1.0
sg83
g0
(g104
g2
Ntp3591
Rp3592
(dp3593
g48
I2
sg49
Nsg88
g89
(g90
(I0
tp3594
g92
tp3595
Rp3596
(I1
(I3
I3
tp3597
g99
I00
S'\x00\x00\x00\x00\x00\x00\xf0?\x00\x00\x00\x00\x00\x00\x00\x00\x00\x00\x00\x00\x00\x00\x00\x00\x00\x00\x00\x00\x00\x00\x00\x00\x00\x00\x00\x00\x00\x00\xf0?\x00\x00\x00\x00\x00\x00\x00\x00\x00\x00\x00\x00\x00\x00\x00\x00\x00\x00\x00\x00\x00\x00\x00\x00\x00\x00\x00\x00\x00\x00\xf0?'
p3598
tp3599
bsg50
g7
sg51
(dp3600
sbsg2710
I00
sg2711
g2712
sg2713
Nsg2165
g2714
sg74
g2812
sg2716
g3180
sbsg32
Nsg2732
g2733
sg69
I01
sg2734
g2735
sg72
Nsg2736
F4.0
sg65
I01
sg2737
Nsg76
g3188
sg2745
(g3571
tp3601
sg79
I0
sg2759
g2760
sg2761
I0
sg2685
I5
sg80
I01
sg82
Nsg2762
g2668
sg2763
I01
sg83
g643
sg2765
I01
sg2584
F2.01
sg42
Nsg2167
Nsg2766
g3190
sg67
Nsg66
F1.0
sg33
Nsg2716
Nsbsg80
I00
sg3191
g0
(g2658
g2
Ntp3602
Rp3603
(dp3604
g6
g7
sg8
I01
sg2663
g2664
sg9
g4
sg2665
g2666
sg2341
Nsg10
Nsg41
Nsg17
g18
sg2667
g2668
sg20
I01
sg2669
Nsg23
Nsg55
g89
(g90
(I0
tp3605
g92
tp3606
Rp3607
(I1
(I2
tp3608
g99
I00
S'\x00\x00\x00\x00\x00\x00\x00\x00\x00\x00\x00\x00\x00\x00\xf0?'
p3609
tp3610
bsg56
g89
(g90
(I0
tp3611
g92
tp3612
Rp3613
(I1
(I2
tp3614
g99
I00
S'\x00\x00\x00\x00\x00\x00\x00\x00\x00\x00\x00\x00\x00\x00\x00\x00'
p3615
tp3616
bsg57
Nsg24
Nsg11
Nsg27
I00
sg2682
Nsg28
I00
sg29
(dp3617
sg2684
Nsg31
I00
sg2686
I00
sg2168
Nsg2687
Nsg2688
F0.5
sg2689
g2690
sg2691
Nsg2299
g2300
sg2692
g0
(g2693
g2
Ntp3618
Rp3619
(dp3620
g2692
g3211
sg2698
Nsg2699
Nsg83
g0
(g44
g2
Ntp3621
Rp3622
(dp3623
g48
I1
sg49
Nsg50
g7
sg51
(dp3624
sbsg2710
I00
sg2711
g2712
sg2713
Nsg2165
g2714
sg74
g2812
sg2716
g0
(g2358
g2
Ntp3625
Rp3626
(dp3627
g2362
I00
sg2363
Nsg2364
g89
(g90
(I0
tp3628
g92
tp3629
Rp3630
(I1
(I0
I2
tp3631
g99
I00
g2509
tp3632
bsg2371
I00
sg2372
F0.1111111111111111
sg2373
I1
sg2374
I00
sbsbsg32
Nsg2732
g2733
sg69
I01
sg2734
g2735
sg72
Nsg2736
F0.0
sg65
I01
sg2737
g89
(g90
(I0
tp3633
g92
tp3634
Rp3635
(I1
(I2
I2
tp3636
g99
I00
S'\x00\x00\x00\x00\x00\x00\x00\x00\x00\x00\x00\x00\x00\x00\x00\x00\x00\x00\x00\x00\x00\x00\x00\x00\x00\x00\x00\x00\x00\x00\xf0?'
p3637
tp3638
bsg76
g3230
sg2745
g3231
sg79
I0
sg2759
g2760
sg2761
I0
sg2685
I5
sg80
I01
sg82
F1.0
sg2762
g2668
sg2763
I00
sg83
g643
sg2765
I00
sg42
Nsg2167
Nsg2766
g3232
sg67
g1409
sg66
F0.5
sg33
Nsg2716
g0
(g2358
g2
Ntp3639
Rp3640
(dp3641
g2362
I00
sg2363
Nsg2364
g3635
sg2371
I00
sg2372
F0.1111111111111111
sg2373
I180
sg2374
I00
sbsbsg82
Nsg32
Nsg3236
g0
(g2658
g2
Ntp3642
Rp3643
(dp3644
g6
g7
sg8
I01
sg2663
g2664
sg9
g4
sg2665
g2666
sg2341
Nsg10
Nsg41
Nsg17
g18
sg2667
g2668
sg20
I01
sg2669
Nsg23
Nsg55
Nsg56
Nsg57
Nsg24
Nsg11
Nsg27
I00
sg2682
Nsg28
I00
sg29
(dp3645
sg2684
Nsg31
I00
sg2686
I00
sg2168
Nsg2687
Nsg2688
F0.5
sg2689
g2690
sg2691
Nsg2299
g2300
sg2692
g0
(g2693
g2
Ntp3646
Rp3647
(dp3648
g2692
I3
sg2698
Nsg2699
F1.0
sg83
g0
(g104
g2
Ntp3649
Rp3650
(dp3651
g48
I2
sg49
Nsg88
g89
(g90
(I0
tp3652
g92
tp3653
Rp3654
(I1
(I3
I3
tp3655
g99
I00
S'\x00\x00\x00\x00\x00\x00\xf0?\x00\x00\x00\x00\x00\x00\x00\x00\x00\x00\x00\x00\x00\x00\x00\x00\x00\x00\x00\x00\x00\x00\x00\x00\x00\x00\x00\x00\x00\x00\xf0\xbf\x00\x00\x00\x00\x00\x00\x00\x00\x00\x00\x00\x00\x00\x00\x00\x00\x00\x00\x00\x00\x00\x00\x00\x00\x00\x00\x00\x00\x00\x00\xf0?'
p3656
tp3657
bsg50
g7
sg51
(dp3658
sbsg2710
I00
sg2711
g2712
sg2713
Nsg2165
g2714
sg74
g2812
sg2716
g3180
sbsg32
Nsg2732
g2733
sg69
I01
sg2734
g2735
sg72
Nsg2736
F4.0
sg65
I01
sg2737
Nsg76
g3254
sg2745
(g3571
tp3659
sg79
I0
sg2759
g2760
sg2761
I0
sg2685
I5
sg80
I01
sg82
Nsg2762
g2668
sg2763
I01
sg83
g643
sg2765
I01
sg2584
F2.01
sg42
Nsg2167
Nsg2766
g3256
sg67
Nsg66
F1.0
sg33
Nsg2716
Nsbsg83
Nsg3257
g3066
sg3258
g3259
sg42
Nsg2299
g2300
sg33
Nsbag0
(g3115
g2
Ntp3660
Rp3661
(dp3662
g6
g7
sg39
F0.5
sg9
g4
sg3119
I01
sg8
I01
sg10
Nsg79
I0
sg41
Nsg3120
F4.0
sg3121
g2300
sg3122
I00
sg2254
F4.0
sg17
g18
sg3123
g3124
sg3075
g0
(g2237
g2
Ntp3663
Rp3664
(dp3665
g6
g7
sg8
I01
sg9
g4
sg10
Nsg2241
g0
(g2242
g2
Ntp3666
Rp3667
(dp3668
g2246
g3131
sg2249
Nsg2250
g2251
sg2252
g2251
sg2254
F15.0
sg2255
I400
sg2256
g2251
sbsg41
Nsg17
g18
sg2257
Nsg20
I01
sg23
Nsg55
I0
sg56
g3067
(g99
S'\x00\x00\x00\x00\x00\x00;@'
p3669
tp3670
Rp3671
sg24
Nsg11
Nsg27
I00
sg28
I00
sg29
(dp3672
sg2259
Nsg31
I00
sg2168
Nsg67
Nsg2167
Nsg2260
Nsg32
Nsg72
Nsg65
I01
sg2261
g3136
sg2263
V$27$
p3673
sg2265
Nsg57
Nsg79
I0
sg2295
Nsg80
I01
sg82
Nsg2296
F1.2
sg83
g676
sg2297
Nsg2298
I00
sg42
Nsg2299
g2300
sg2301
g3138
sg33
Nsbsg20
I01
sg23
Nsg3139
I00
sg24
Nsg11
Nsg3140
I01
sg27
I00
sg28
I00
sg29
(dp3674
sg3142
(I2
I3
tp3675
sg31
I00
sg3144
F2.01
sg2168
g2222
sg3145
I01
sg67
Nsg2167
Nsg3146
g3664
sg3147
g0
(g2237
g2
Ntp3676
Rp3677
(dp3678
g6
g7
sg8
I01
sg9
g4
sg10
Nsg2241
g0
(g2242
g2
Ntp3679
Rp3680
(dp3681
g2246
g3154
sg2249
Nsg2250
g2251
sg2252
g2251
sg2254
g3066
sg2255
I400
sg2256
g2251
sbsg41
Nsg17
g18
sg2257
Nsg20
I01
sg23
Nsg55
I1
sg56
I0
sg24
Nsg11
Nsg27
I00
sg28
I00
sg29
(dp3682
sg2259
Nsg31
I00
sg2168
Nsg67
Nsg2167
Nsg2260
Nsg32
Nsg72
Nsg65
I01
sg2261
g3156
sg2263
V$27$
p3683
sg2265
Nsg57
Nsg79
I0
sg2295
Nsg80
I01
sg82
Nsg2296
F1.2
sg83
g691
sg2297
Nsg2298
I00
sg42
Nsg2299
g2300
sg2301
g3158
sg33
Nsbsg72
Nsg3159
g3671
sg65
I01
sg57
Nsg3160
F4.0
sg3161
g0
(g2658
g2
Ntp3684
Rp3685
(dp3686
g6
g7
sg8
I01
sg2663
g2664
sg9
g4
sg2665
g2666
sg2341
Nsg10
Nsg41
Nsg17
g18
sg2667
g2668
sg20
I01
sg2669
Nsg23
Nsg55
Nsg56
Nsg57
Nsg24
Nsg11
Nsg27
I00
sg2682
Nsg28
I00
sg29
(dp3687
sg2684
Nsg31
I00
sg2686
I00
sg2168
Nsg2687
Nsg2688
F0.5
sg2689
g2690
sg2691
Nsg2299
g2300
sg2692
g0
(g2693
g2
Ntp3688
Rp3689
(dp3690
g2692
I2
sg2698
Nsg2699
F1.0
sg83
g0
(g104
g2
Ntp3691
Rp3692
(dp3693
g48
I2
sg49
Nsg88
g89
(g90
(I0
tp3694
g92
tp3695
Rp3696
(I1
(I3
I3
tp3697
g99
I00
S'\x00\x00\x00\x00\x00\x00\xf0?\x00\x00\x00\x00\x00\x00\x00\x00\x00\x00\x00\x00\x00\x00\x00\x00\x00\x00\x00\x00\x00\x00\x00\x00\x00\x00\x00\x00\x00\x00\xf0?\x00\x00\x00\x00\x00\x00\x00\x00\x00\x00\x00\x00\x00\x00\x00\x00\x00\x00\x00\x00\x00\x00\x00\x00\x00\x00\x00\x00\x00\x00\xf0?'
p3698
tp3699
bsg50
g7
sg51
(dp3700
sbsg2710
I00
sg2711
g2712
sg2713
Nsg2165
g2714
sg74
g2812
sg2716
g3180
sbsg32
Nsg2732
g2733
sg69
I01
sg2734
g2735
sg72
Nsg2736
F4.0
sg65
I01
sg2737
Nsg76
g3188
sg2745
(g3671
tp3701
sg79
I0
sg2759
g2760
sg2761
I0
sg2685
I5
sg80
I01
sg82
Nsg2762
g2668
sg2763
I01
sg83
g643
sg2765
I01
sg2584
F2.01
sg42
Nsg2167
Nsg2766
g3190
sg67
Nsg66
F1.0
sg33
Nsg2716
Nsbsg80
I00
sg3191
g0
(g2658
g2
Ntp3702
Rp3703
(dp3704
g6
g7
sg8
I01
sg2663
g2664
sg9
g4
sg2665
g2666
sg2341
Nsg10
Nsg41
Nsg17
g18
sg2667
g2668
sg20
I01
sg2669
Nsg23
Nsg55
g89
(g90
(I0
tp3705
g92
tp3706
Rp3707
(I1
(I2
tp3708
g99
I00
S'\x00\x00\x00\x00\x00\x00\x00\x00\x00\x00\x00\x00\x00\x00\xf0?'
p3709
tp3710
bsg56
g89
(g90
(I0
tp3711
g92
tp3712
Rp3713
(I1
(I2
tp3714
g99
I00
S'\x00\x00\x00\x00\x00\x00\x00\x00\x00\x00\x00\x00\x00\x00\x00\x00'
p3715
tp3716
bsg57
Nsg24
Nsg11
Nsg27
I00
sg2682
Nsg28
I00
sg29
(dp3717
sg2684
Nsg31
I00
sg2686
I00
sg2168
Nsg2687
Nsg2688
F0.5
sg2689
g2690
sg2691
Nsg2299
g2300
sg2692
g0
(g2693
g2
Ntp3718
Rp3719
(dp3720
g2692
g3211
sg2698
Nsg2699
Nsg83
g0
(g44
g2
Ntp3721
Rp3722
(dp3723
g48
I1
sg49
Nsg50
g7
sg51
(dp3724
sbsg2710
I00
sg2711
g2712
sg2713
Nsg2165
g2714
sg74
g2812
sg2716
g0
(g2358
g2
Ntp3725
Rp3726
(dp3727
g2362
I00
sg2363
Nsg2364
g89
(g90
(I0
tp3728
g92
tp3729
Rp3730
(I1
(I0
I2
tp3731
g99
I00
g2509
tp3732
bsg2371
I00
sg2372
F0.1111111111111111
sg2373
I1
sg2374
I00
sbsbsg32
Nsg2732
g2733
sg69
I01
sg2734
g2735
sg72
Nsg2736
F0.0
sg65
I01
sg2737
g89
(g90
(I0
tp3733
g92
tp3734
Rp3735
(I1
(I2
I2
tp3736
g99
I00
S'\x00\x00\x00\x00\x00\x00\x00\x00\x00\x00\x00\x00\x00\x00\x00\x00\x00\x00\x00\x00\x00\x00\x00\x00\x00\x00\x00\x00\x00\x00\xf0?'
p3737
tp3738
bsg76
g3230
sg2745
g3231
sg79
I0
sg2759
g2760
sg2761
I0
sg2685
I5
sg80
I01
sg82
F1.0
sg2762
g2668
sg2763
I00
sg83
g643
sg2765
I00
sg42
Nsg2167
Nsg2766
g3232
sg67
g1409
sg66
F0.5
sg33
Nsg2716
g0
(g2358
g2
Ntp3739
Rp3740
(dp3741
g2362
I00
sg2363
Nsg2364
g3735
sg2371
I00
sg2372
F0.1111111111111111
sg2373
I180
sg2374
I00
sbsbsg82
Nsg32
Nsg3236
g0
(g2658
g2
Ntp3742
Rp3743
(dp3744
g6
g7
sg8
I01
sg2663
g2664
sg9
g4
sg2665
g2666
sg2341
Nsg10
Nsg41
Nsg17
g18
sg2667
g2668
sg20
I01
sg2669
Nsg23
Nsg55
Nsg56
Nsg57
Nsg24
Nsg11
Nsg27
I00
sg2682
Nsg28
I00
sg29
(dp3745
sg2684
Nsg31
I00
sg2686
I00
sg2168
Nsg2687
Nsg2688
F0.5
sg2689
g2690
sg2691
Nsg2299
g2300
sg2692
g0
(g2693
g2
Ntp3746
Rp3747
(dp3748
g2692
I3
sg2698
Nsg2699
F1.0
sg83
g0
(g104
g2
Ntp3749
Rp3750
(dp3751
g48
I2
sg49
Nsg88
g89
(g90
(I0
tp3752
g92
tp3753
Rp3754
(I1
(I3
I3
tp3755
g99
I00
S'\x00\x00\x00\x00\x00\x00\xf0?\x00\x00\x00\x00\x00\x00\x00\x00\x00\x00\x00\x00\x00\x00\x00\x00\x00\x00\x00\x00\x00\x00\x00\x00\x00\x00\x00\x00\x00\x00\xf0\xbf\x00\x00\x00\x00\x00\x00\x00\x00\x00\x00\x00\x00\x00\x00\x00\x00\x00\x00\x00\x00\x00\x00\x00\x00\x00\x00\x00\x00\x00\x00\xf0?'
p3756
tp3757
bsg50
g7
sg51
(dp3758
sbsg2710
I00
sg2711
g2712
sg2713
Nsg2165
g2714
sg74
g2812
sg2716
g3180
sbsg32
Nsg2732
g2733
sg69
I01
sg2734
g2735
sg72
Nsg2736
F4.0
sg65
I01
sg2737
Nsg76
g3254
sg2745
(g3671
tp3759
sg79
I0
sg2759
g2760
sg2761
I0
sg2685
I5
sg80
I01
sg82
Nsg2762
g2668
sg2763
I01
sg83
g643
sg2765
I01
sg2584
F2.01
sg42
Nsg2167
Nsg2766
g3256
sg67
Nsg66
F1.0
sg33
Nsg2716
Nsbsg83
Nsg3257
g3066
sg3258
g3259
sg42
Nsg2299
g2300
sg33
NsbasS'isDefault_majloc'
p3760
I01
sg2175
g0
(g2176
g2
Ntp3761
Rp3762
sg72
Nsg65
I01
sS'_autolabelpos'
p3763
I01
sg57
Nsg79
I0
sS'_lastNumMajorTicks'
p3764
I6
sS'converter'
p3765
Nsg80
I00
sg82
NsS'offset_text_position'
p3766
Vbottom
p3767
sg83
NsS'label_position'
p3768
Vbottom
p3769
sg42
Nsg2167
Nsg2685
I15
sS'minorTicks'
p3770
(lp3771
g0
(g3115
g2
Ntp3772
Rp3773
(dp3774
g6
g7
sg39
F0.5
sg9
g4
sg3119
I01
sg8
I01
sg10
Nsg79
I0
sg41
Nsg3120
F4.0
sg3121
g2300
sg3122
I00
sg2254
F2.0
sg17
g18
sg3123
g3124
sg3075
g0
(g2237
g2
Ntp3775
Rp3776
(dp3777
g6
g7
sg8
I01
sg9
g4
sg10
Nsg2241
g0
(g2242
g2
Ntp3778
Rp3779
(dp3780
g2246
(lp3781
g2248
asg2249
Nsg2250
g2251
sg2252
g2251
sg2254
g3066
sg2255
I400
sg2256
g2251
sbsg41
Nsg17
g18
sg2257
Nsg20
I01
sg23
Nsg55
I0
sg56
I0
sg24
Nsg11
Nsg27
I00
sg28
I00
sg29
(dp3782
sg2259
Nsg31
I00
sg2168
Nsg67
Nsg2167
Nsg2260
Nsg32
Nsg72
Nsg65
I01
sg2261
g3136
sg2263
V
p3783
sg2265
Nsg57
Nsg79
I0
sg2295
Nsg80
I01
sg82
Nsg2296
F1.2
sg83
g667
sg2297
Nsg2298
I00
sg42
Nsg2299
g2300
sg2301
g3138
sg33
Nsbsg20
I01
sg23
Nsg3139
I00
sg24
Nsg11
Nsg3140
I01
sg27
I00
sg28
I00
sg29
(dp3784
sg3142
(I2
I3
tp3785
sg31
I00
sg3144
I2
sg2168
g2222
sg3145
I01
sg67
g1567
sg2167
Nsg3146
g3776
sg3147
g0
(g2237
g2
Ntp3786
Rp3787
(dp3788
g6
g7
sg8
I01
sg9
g4
sg10
Nsg2241
g0
(g2242
g2
Ntp3789
Rp3790
(dp3791
g2246
(lp3792
g2248
asg2249
Nsg2250
g2251
sg2252
g2251
sg2254
g3066
sg2255
I400
sg2256
g2251
sbsg41
Nsg17
g18
sg2257
Nsg20
I01
sg23
Nsg55
I1
sg56
I0
sg24
Nsg11
Nsg27
I00
sg28
I00
sg29
(dp3793
sg2259
Nsg31
I00
sg2168
Nsg67
Nsg2167
Nsg2260
Nsg32
Nsg72
Nsg65
I01
sg2261
g3156
sg2263
V
p3794
sg2265
Nsg57
Nsg79
I0
sg2295
Nsg80
I01
sg82
Nsg2296
F1.2
sg83
g700
sg2297
Nsg2298
I00
sg42
Nsg2299
g2300
sg2301
g3158
sg33
Nsbsg72
Nsg3159
I0
sg65
I01
sg57
Nsg3160
F4.0
sg3161
g0
(g2658
g2
Ntp3795
Rp3796
(dp3797
g6
g7
sg8
I01
sg2663
g2664
sg9
g4
sg2665
g2666
sg2341
Nsg10
Nsg41
Nsg17
g18
sg2667
g2668
sg20
I01
sg2669
Nsg23
Nsg55
Nsg56
Nsg57
Nsg24
Nsg11
Nsg27
I00
sg2682
Nsg28
I00
sg29
(dp3798
sg2684
Nsg31
I00
sg2686
I00
sg2168
Nsg2687
Nsg2688
F0.5
sg2689
g2690
sg2691
Nsg2299
g2300
sg2692
g0
(g2693
g2
Ntp3799
Rp3800
(dp3801
g2692
I2
sg2698
Nsg2699
F1.0
sg83
g0
(g104
g2
Ntp3802
Rp3803
(dp3804
g48
I2
sg49
Nsg88
g89
(g90
(I0
tp3805
g92
tp3806
Rp3807
(I1
(I3
I3
tp3808
g99
I00
S'\x00\x00\x00\x00\x00\x00\xf0?\x00\x00\x00\x00\x00\x00\x00\x00\x00\x00\x00\x00\x00\x00\x00\x00\x00\x00\x00\x00\x00\x00\x00\x00\x00\x00\x00\x00\x00\x00\xf0?\x00\x00\x00\x00\x00\x00\x00\x00\x00\x00\x00\x00\x00\x00\x00\x00\x00\x00\x00\x00\x00\x00\x00\x00\x00\x00\x00\x00\x00\x00\xf0?'
p3809
tp3810
bsg50
g7
sg51
(dp3811
sbsg2710
I00
sg2711
g2712
sg2713
Nsg2165
g2714
sg74
g2812
sg2716
g3180
sbsg32
Nsg2732
g2733
sg69
I01
sg2734
g2735
sg72
Nsg2736
F2.0
sg65
I01
sg2737
Nsg76
g3188
sg2745
(I0
tp3812
sg79
I0
sg2759
g2760
sg2761
I0
sg2685
I5
sg80
I01
sg82
Nsg2762
g2668
sg2763
I01
sg83
g643
sg2765
I01
sg2584
I2
sg42
Nsg2167
Nsg2766
g3190
sg67
Nsg66
F1.0
sg33
Nsg2716
Nsbsg80
I00
sg3191
g0
(g2658
g2
Ntp3813
Rp3814
(dp3815
g6
g7
sg8
I01
sg2663
g2664
sg9
g4
sg2665
g2666
sg2341
Nsg10
Nsg41
Nsg17
g18
sg2667
g2668
sg20
I01
sg2669
Nsg23
Nsg55
g89
(g90
(I0
tp3816
g92
tp3817
Rp3818
(I1
(I2
tp3819
g99
I00
S'\x00\x00\x00\x00\x00\x00\x00\x00\x00\x00\x00\x00\x00\x00\xf0?'
p3820
tp3821
bsg56
g89
(g90
(I0
tp3822
g92
tp3823
Rp3824
(I1
(I2
tp3825
g99
I00
S'\x00\x00\x00\x00\x00\x00\x00\x00\x00\x00\x00\x00\x00\x00\x00\x00'
p3826
tp3827
bsg57
Nsg24
Nsg11
Nsg27
I00
sg2682
Nsg28
I00
sg29
(dp3828
sg2684
Nsg31
I00
sg2686
I00
sg2168
Nsg2687
Nsg2688
F0.5
sg2689
g2690
sg2691
Nsg2299
g2300
sg2692
g0
(g2693
g2
Ntp3829
Rp3830
(dp3831
g2692
g3211
sg2698
Nsg2699
Nsg83
g0
(g44
g2
Ntp3832
Rp3833
(dp3834
g48
I1
sg49
Nsg50
g7
sg51
(dp3835
sbsg2710
I00
sg2711
g2712
sg2713
Nsg2165
g2714
sg74
g2812
sg2716
g0
(g2358
g2
Ntp3836
Rp3837
(dp3838
g2362
I00
sg2363
Nsg2364
g89
(g90
(I0
tp3839
g92
tp3840
Rp3841
(I1
(I0
I2
tp3842
g99
I00
g2509
tp3843
bsg2371
I00
sg2372
F0.1111111111111111
sg2373
I1
sg2374
I00
sbsbsg32
Nsg2732
g2733
sg69
I01
sg2734
g2735
sg72
Nsg2736
F0.0
sg65
I01
sg2737
g89
(g90
(I0
tp3844
g92
tp3845
Rp3846
(I1
(I2
I2
tp3847
g99
I00
S'\x00\x00\x00\x00\x00\x00\x00\x00\x00\x00\x00\x00\x00\x00\x00\x00\x00\x00\x00\x00\x00\x00\x00\x00\x00\x00\x00\x00\x00\x00\xf0?'
p3848
tp3849
bsg76
g3230
sg2745
g3231
sg79
I0
sg2759
g2760
sg2761
I0
sg2685
I5
sg80
I01
sg82
F1.0
sg2762
g2668
sg2763
I00
sg83
g643
sg2765
I00
sg42
Nsg2167
Nsg2766
g3232
sg67
g891
sg66
F0.5
sg33
Nsg2716
g0
(g2358
g2
Ntp3850
Rp3851
(dp3852
g2362
I00
sg2363
Nsg2364
g3846
sg2371
I00
sg2372
F0.1111111111111111
sg2373
I180
sg2374
I00
sbsbsg82
Nsg32
Nsg3236
g0
(g2658
g2
Ntp3853
Rp3854
(dp3855
g6
g7
sg8
I01
sg2663
g2664
sg9
g4
sg2665
g2666
sg2341
Nsg10
Nsg41
Nsg17
g18
sg2667
g2668
sg20
I01
sg2669
Nsg23
Nsg55
Nsg56
Nsg57
Nsg24
Nsg11
Nsg27
I00
sg2682
Nsg28
I00
sg29
(dp3856
sg2684
Nsg31
I00
sg2686
I00
sg2168
Nsg2687
Nsg2688
F0.5
sg2689
g2690
sg2691
Nsg2299
g2300
sg2692
g0
(g2693
g2
Ntp3857
Rp3858
(dp3859
g2692
I3
sg2698
Nsg2699
F1.0
sg83
g0
(g104
g2
Ntp3860
Rp3861
(dp3862
g48
I2
sg49
Nsg88
g89
(g90
(I0
tp3863
g92
tp3864
Rp3865
(I1
(I3
I3
tp3866
g99
I00
S'\x00\x00\x00\x00\x00\x00\xf0?\x00\x00\x00\x00\x00\x00\x00\x00\x00\x00\x00\x00\x00\x00\x00\x00\x00\x00\x00\x00\x00\x00\x00\x00\x00\x00\x00\x00\x00\x00\xf0\xbf\x00\x00\x00\x00\x00\x00\x00\x00\x00\x00\x00\x00\x00\x00\x00\x00\x00\x00\x00\x00\x00\x00\x00\x00\x00\x00\x00\x00\x00\x00\xf0?'
p3867
tp3868
bsg50
g7
sg51
(dp3869
sbsg2710
I00
sg2711
g2712
sg2713
Nsg2165
g2714
sg74
g2812
sg2716
g3180
sbsg32
Nsg2732
g2733
sg69
I01
sg2734
g2735
sg72
Nsg2736
F2.0
sg65
I01
sg2737
Nsg76
g3254
sg2745
(I0
tp3870
sg79
I0
sg2759
g2760
sg2761
I0
sg2685
I5
sg80
I01
sg82
Nsg2762
g2668
sg2763
I01
sg83
g643
sg2765
I01
sg2584
I2
sg42
Nsg2167
Nsg2766
g3256
sg67
Nsg66
F1.0
sg33
Nsg2716
Nsbsg83
Nsg3257
g3066
sg3258
g3259
sg42
Nsg2299
g2300
sg33
Nsbag0
(g3115
g2
Ntp3871
Rp3872
(dp3873
g6
g7
sg39
F0.5
sg9
g4
sg3119
I01
sg8
I01
sg10
Nsg79
I0
sg41
Nsg3120
F4.0
sg3121
g2300
sg3122
I00
sg2254
F2.0
sg17
g18
sg3123
g3124
sg3075
g0
(g2237
g2
Ntp3874
Rp3875
(dp3876
g6
g7
sg8
I01
sg9
g4
sg10
Nsg2241
g0
(g2242
g2
Ntp3877
Rp3878
(dp3879
g2246
(lp3880
g2248
asg2249
Nsg2250
g2251
sg2252
g2251
sg2254
g3066
sg2255
I400
sg2256
g2251
sbsg41
Nsg17
g18
sg2257
Nsg20
I01
sg23
Nsg55
I0
sg56
I0
sg24
Nsg11
Nsg27
I00
sg28
I00
sg29
(dp3881
sg2259
Nsg31
I00
sg2168
Nsg67
Nsg2167
Nsg2260
Nsg32
Nsg72
Nsg65
I01
sg2261
g3136
sg2263
V
p3882
sg2265
Nsg57
Nsg79
I0
sg2295
Nsg80
I01
sg82
Nsg2296
F1.2
sg83
g658
sg2297
Nsg2298
I00
sg42
Nsg2299
g2300
sg2301
g3138
sg33
Nsbsg20
I01
sg23
Nsg3139
I00
sg24
Nsg11
Nsg3140
I01
sg27
I00
sg28
I00
sg29
(dp3883
sg3142
(I2
I3
tp3884
sg31
I00
sg3144
I2
sg2168
g2222
sg3145
I01
sg67
g1847
sg2167
Nsg3146
g3875
sg3147
g0
(g2237
g2
Ntp3885
Rp3886
(dp3887
g6
g7
sg8
I01
sg9
g4
sg10
Nsg2241
g0
(g2242
g2
Ntp3888
Rp3889
(dp3890
g2246
(lp3891
g2248
asg2249
Nsg2250
g2251
sg2252
g2251
sg2254
g3066
sg2255
I400
sg2256
g2251
sbsg41
Nsg17
g18
sg2257
Nsg20
I01
sg23
Nsg55
I1
sg56
I0
sg24
Nsg11
Nsg27
I00
sg28
I00
sg29
(dp3892
sg2259
Nsg31
I00
sg2168
Nsg67
Nsg2167
Nsg2260
Nsg32
Nsg72
Nsg65
I01
sg2261
g3156
sg2263
V
p3893
sg2265
Nsg57
Nsg79
I0
sg2295
Nsg80
I01
sg82
Nsg2296
F1.2
sg83
g709
sg2297
Nsg2298
I00
sg42
Nsg2299
g2300
sg2301
g3158
sg33
Nsbsg72
Nsg3159
I0
sg65
I01
sg57
Nsg3160
F4.0
sg3161
g0
(g2658
g2
Ntp3894
Rp3895
(dp3896
g6
g7
sg8
I01
sg2663
g2664
sg9
g4
sg2665
g2666
sg2341
Nsg10
Nsg41
Nsg17
g18
sg2667
g2668
sg20
I01
sg2669
Nsg23
Nsg55
Nsg56
Nsg57
Nsg24
Nsg11
Nsg27
I00
sg2682
Nsg28
I00
sg29
(dp3897
sg2684
Nsg31
I00
sg2686
I00
sg2168
Nsg2687
Nsg2688
F0.5
sg2689
g2690
sg2691
Nsg2299
g2300
sg2692
g0
(g2693
g2
Ntp3898
Rp3899
(dp3900
g2692
I2
sg2698
Nsg2699
F1.0
sg83
g0
(g104
g2
Ntp3901
Rp3902
(dp3903
g48
I2
sg49
Nsg88
g89
(g90
(I0
tp3904
g92
tp3905
Rp3906
(I1
(I3
I3
tp3907
g99
I00
S'\x00\x00\x00\x00\x00\x00\xf0?\x00\x00\x00\x00\x00\x00\x00\x00\x00\x00\x00\x00\x00\x00\x00\x00\x00\x00\x00\x00\x00\x00\x00\x00\x00\x00\x00\x00\x00\x00\xf0?\x00\x00\x00\x00\x00\x00\x00\x00\x00\x00\x00\x00\x00\x00\x00\x00\x00\x00\x00\x00\x00\x00\x00\x00\x00\x00\x00\x00\x00\x00\xf0?'
p3908
tp3909
bsg50
g7
sg51
(dp3910
sbsg2710
I00
sg2711
g2712
sg2713
Nsg2165
g2714
sg74
g2812
sg2716
g3180
sbsg32
Nsg2732
g2733
sg69
I01
sg2734
g2735
sg72
Nsg2736
F2.0
sg65
I01
sg2737
Nsg76
g3188
sg2745
(I0
tp3911
sg79
I0
sg2759
g2760
sg2761
I0
sg2685
I5
sg80
I01
sg82
Nsg2762
g2668
sg2763
I01
sg83
g643
sg2765
I01
sg2584
I2
sg42
Nsg2167
Nsg2766
g3190
sg67
Nsg66
F1.0
sg33
Nsg2716
Nsbsg80
I00
sg3191
g0
(g2658
g2
Ntp3912
Rp3913
(dp3914
g6
g7
sg8
I01
sg2663
g2664
sg9
g4
sg2665
g2666
sg2341
Nsg10
Nsg41
Nsg17
g18
sg2667
g2668
sg20
I01
sg2669
Nsg23
Nsg55
g89
(g90
(I0
tp3915
g92
tp3916
Rp3917
(I1
(I2
tp3918
g99
I00
S'\x00\x00\x00\x00\x00\x00\x00\x00\x00\x00\x00\x00\x00\x00\xf0?'
p3919
tp3920
bsg56
g89
(g90
(I0
tp3921
g92
tp3922
Rp3923
(I1
(I2
tp3924
g99
I00
S'\x00\x00\x00\x00\x00\x00\x00\x00\x00\x00\x00\x00\x00\x00\x00\x00'
p3925
tp3926
bsg57
Nsg24
Nsg11
Nsg27
I00
sg2682
Nsg28
I00
sg29
(dp3927
sg2684
Nsg31
I00
sg2686
I00
sg2168
Nsg2687
Nsg2688
F0.5
sg2689
g2690
sg2691
Nsg2299
g2300
sg2692
g0
(g2693
g2
Ntp3928
Rp3929
(dp3930
g2692
g3211
sg2698
Nsg2699
Nsg83
g0
(g44
g2
Ntp3931
Rp3932
(dp3933
g48
I1
sg49
Nsg50
g7
sg51
(dp3934
sbsg2710
I00
sg2711
g2712
sg2713
Nsg2165
g2714
sg74
g2812
sg2716
g0
(g2358
g2
Ntp3935
Rp3936
(dp3937
g2362
I00
sg2363
Nsg2364
g89
(g90
(I0
tp3938
g92
tp3939
Rp3940
(I1
(I0
I2
tp3941
g99
I00
g2509
tp3942
bsg2371
I00
sg2372
F0.1111111111111111
sg2373
I1
sg2374
I00
sbsbsg32
Nsg2732
g2733
sg69
I01
sg2734
g2735
sg72
Nsg2736
F0.0
sg65
I01
sg2737
g89
(g90
(I0
tp3943
g92
tp3944
Rp3945
(I1
(I2
I2
tp3946
g99
I00
S'\x00\x00\x00\x00\x00\x00\x00\x00\x00\x00\x00\x00\x00\x00\x00\x00\x00\x00\x00\x00\x00\x00\x00\x00\x00\x00\x00\x00\x00\x00\xf0?'
p3947
tp3948
bsg76
g3230
sg2745
g3231
sg79
I0
sg2759
g2760
sg2761
I0
sg2685
I5
sg80
I01
sg82
F1.0
sg2762
g2668
sg2763
I00
sg83
g643
sg2765
I00
sg42
Nsg2167
Nsg2766
g3232
sg67
g1031
sg66
F0.5
sg33
Nsg2716
g0
(g2358
g2
Ntp3949
Rp3950
(dp3951
g2362
I00
sg2363
Nsg2364
g3945
sg2371
I00
sg2372
F0.1111111111111111
sg2373
I180
sg2374
I00
sbsbsg82
Nsg32
Nsg3236
g0
(g2658
g2
Ntp3952
Rp3953
(dp3954
g6
g7
sg8
I01
sg2663
g2664
sg9
g4
sg2665
g2666
sg2341
Nsg10
Nsg41
Nsg17
g18
sg2667
g2668
sg20
I01
sg2669
Nsg23
Nsg55
Nsg56
Nsg57
Nsg24
Nsg11
Nsg27
I00
sg2682
Nsg28
I00
sg29
(dp3955
sg2684
Nsg31
I00
sg2686
I00
sg2168
Nsg2687
Nsg2688
F0.5
sg2689
g2690
sg2691
Nsg2299
g2300
sg2692
g0
(g2693
g2
Ntp3956
Rp3957
(dp3958
g2692
I3
sg2698
Nsg2699
F1.0
sg83
g0
(g104
g2
Ntp3959
Rp3960
(dp3961
g48
I2
sg49
Nsg88
g89
(g90
(I0
tp3962
g92
tp3963
Rp3964
(I1
(I3
I3
tp3965
g99
I00
S'\x00\x00\x00\x00\x00\x00\xf0?\x00\x00\x00\x00\x00\x00\x00\x00\x00\x00\x00\x00\x00\x00\x00\x00\x00\x00\x00\x00\x00\x00\x00\x00\x00\x00\x00\x00\x00\x00\xf0\xbf\x00\x00\x00\x00\x00\x00\x00\x00\x00\x00\x00\x00\x00\x00\x00\x00\x00\x00\x00\x00\x00\x00\x00\x00\x00\x00\x00\x00\x00\x00\xf0?'
p3966
tp3967
bsg50
g7
sg51
(dp3968
sbsg2710
I00
sg2711
g2712
sg2713
Nsg2165
g2714
sg74
g2812
sg2716
g3180
sbsg32
Nsg2732
g2733
sg69
I01
sg2734
g2735
sg72
Nsg2736
F2.0
sg65
I01
sg2737
Nsg76
g3254
sg2745
(I0
tp3969
sg79
I0
sg2759
g2760
sg2761
I0
sg2685
I5
sg80
I01
sg82
Nsg2762
g2668
sg2763
I01
sg83
g643
sg2765
I01
sg2584
I2
sg42
Nsg2167
Nsg2766
g3256
sg67
Nsg66
F1.0
sg33
Nsg2716
Nsbsg83
Nsg3257
g3066
sg3258
g3259
sg42
Nsg2299
g2300
sg33
Nsbasg33
NsS'_minor_tick_kw'
p3970
(dp3971
sS'isDefault_minfmt'
p3972
I01
sbsS'_navigate_mode'
p3973
Nsg33
NsS'transAxes'
p3974
g179
sS'_connected'
p3975
(dp3976
sS'fmt_ydata'
p3977
NsS'dataLim'
p3978
g0
(g121
g2
Ntp3979
Rp3980
(dp3981
g48
I0
sg125
g89
(g90
(I0
tp3982
g92
tp3983
Rp3984
(I1
(I2
tp3985
g99
I00
S'\x00\x00\x00\x00\x00\x00.@\xf3\xf8!a\x13\xb0-@'
p3986
tp3987
bsg51
(dp3988
sg133
g89
(g90
(I0
tp3989
g92
tp3990
Rp3991
(I1
(I2
I2
tp3992
g99
I00
S'\x00\x00\x00\x00\x00\x00\xf0\x7f\x00\x00\x00\x00\x00\x00\xf0\x7f\x00\x00\x00\x00\x00\x00\xf0\xff\x00\x00\x00\x00\x00\x00\xf0\xff'
p3993
tp3994
bsg140
g89
(g90
(I0
tp3995
g92
tp3996
Rp3997
(I1
(I2
I2
tp3998
g99
I00
S'\x00\x00\x00\x00\x00\x00.@\xf3\xf8!a\x13\xb0-@\x00\x00\x00\x00\x00\x00<@B=3f\x97(<@'
p3999
tp4000
bsg147
I01
sg50
g7
sbsS'transData'
p4001
g638
sg32
NsS'_sharey'
p4002
NsS'_sharex'
p4003
NsS'axesPatch'
p4004
g2944
sS'_ymargin'
p4005
F0.0
sS'_axes_locator'
p4006
NsS'numCols'
p4007
I1
sg82
Nsg2179
I00
sS'yaxis'
p4008
g0
(cmatplotlib.axis
YAxis
p4009
g2
Ntp4010
Rp4011
(dp4012
g6
g7
sg3011
g0
(g3012
g2
Ntp4013
Rp4014
(dp4015
g3016
g0
(g3017
g2
Ntp4016
Rp4017
(dp4018
g3021
I00
sg3022
I9
sg3023
(lp4019
I1
aI2
aI5
aI10
asg3025
Nsg3026
I00
sg3027
I01
sg3028
g4011
sbsg3029
g0
(g3030
g2
Ntp4020
Rp4021
(dp4022
g3034
g3035
sg3036
I0
sg3037
I00
sg3038
V$%1.0f$
p4023
sg3040
I00
sg3041
I01
sg3042
g89
(g90
(I0
tp4024
g92
tp4025
Rp4026
(I1
(I6
tp4027
g99
I00
S'\x00\x00\x00\x00\x00\x006@\x00\x00\x00\x00\x00\x007@\x00\x00\x00\x00\x00\x008@\x00\x00\x00\x00\x00\x009@\x00\x00\x00\x00\x00\x00:@\x00\x00\x00\x00\x00\x00;@'
p4028
tp4029
bsg3049
I0
sg2297
I01
sg3050
I01
sg3028
g4011
sbsbsg3051
I00
sg3052
g0
(g3053
g2
Ntp4030
Rp4031
sg9
g4
sg8
I01
sg3056
I00
sg10
Nsg41
Nsg3057
I00
sg17
g18
sg20
I01
sg23
Nsg3058
g0
(g2237
g2
Ntp4032
Rp4033
(dp4034
g6
g7
sg8
I01
sg9
g4
sg10
Nsg2241
g0
(g2242
g2
Ntp4035
Rp4036
(dp4037
g2246
(lp4038
g2248
asg2249
Nsg2250
g2251
sg2252
g2251
sg2254
g3066
sg2255
I400
sg2256
g2251
sbsg41
Nsg17
g18
sg2257
Nsg20
I01
sg23
Nsg55
g3067
(g99
S'UUUUU5r@'
p4039
tp4040
Rp4041
sg56
I0
sg24
Nsg11
Nsg27
I00
sg28
I00
sg29
(dp4042
sg2259
Nsg31
I00
sg2168
Nsg67
Nsg2167
Nsg2260
Nsg32
Nsg72
Nsg65
I01
sg2261
Vbaseline
p4043
sg2263
V
p4044
sg2265
Nsg57
Nsg79
I0
sg2295
Nsg80
I01
sg82
Nsg2296
F1.2
sg83
g1211
sg2297
Nsg2298
I00
sg42
Nsg2299
g2300
sg2301
Vleft
p4045
sg33
Nsbsg24
Nsg11
Nsg3075
g0
(g2237
g2
Ntp4046
Rp4047
(dp4048
g6
g7
sg8
I01
sg9
g4
sg10
Nsg2241
g0
(g2242
g2
Ntp4049
Rp4050
(dp4051
g2246
(lp4052
g2248
asg2249
Nsg2250
g2251
sg2252
g2251
sg2254
F15.0
sg2255
I400
sg2256
g2251
sbsg41
Nsg17
g18
sg2257
Nsg20
I01
sg23
Nsg55
F0.5
sg56
g3067
(g99
S'\xbb]^H\xbf{+@'
p4053
tp4054
Rp4055
sg24
Nsg11
Nsg27
I00
sg28
I00
sg29
(dp4056
sg2259
Nsg31
I00
sg2168
Nsg67
Nsg2167
Nsg2260
Vanchor
p4057
sg32
Nsg72
Nsg65
I01
sg2261
Vbottom
p4058
sg2263
V$\u005cmathrm{Spectroscopic\u005c Magnitude}$
p4059
sg2265
Nsg57
Nsg79
I0
sg2295
Vvertical
p4060
sg80
I01
sg82
Nsg2296
F1.2
sg83
g1057
sg2297
Nsg2298
I00
sg42
Nsg2299
g2300
sg2301
Vcenter
p4061
sg33
Nsbsg27
I00
sg3090
I01
sg28
I00
sg29
(dp4062
sg3092
Nsg31
I00
sg3093
g0
(g3012
g2
Ntp4063
Rp4064
(dp4065
g3016
g0
(g3097
g2
Ntp4066
Rp4067
(dp4068
g3028
g4011
sbsg3029
g0
(g3101
g2
Ntp4069
Rp4070
(dp4071
g3042
(lp4072
sg3028
g4011
sbsbsg2168
g2222
sg3106
(dp4073
g3108
I00
ssg3109
I01
sg67
g1917
sg32
Nsg3110
I00
sg3111
I0
sg3112
F5.0
sg3113
(lp4074
g0
(cmatplotlib.axis
YTick
p4075
g2
Ntp4076
Rp4077
(dp4078
g6
g7
sg39
F0.5
sg9
g4
sg3119
I01
sg8
I01
sg10
Nsg79
I0
sg41
Nsg3120
F4.0
sg3121
g2300
sg3122
I00
sg2254
F4.0
sg17
g18
sg3123
g3124
sg3075
g0
(g2237
g2
Ntp4079
Rp4080
(dp4081
g6
g7
sg8
I01
sg9
g4
sg10
Nsg2241
g0
(g2242
g2
Ntp4082
Rp4083
(dp4084
g2246
(lp4085
g2248
asg2249
Nsg2250
g2251
sg2252
g2251
sg2254
F15.0
sg2255
I400
sg2256
g2251
sbsg41
Nsg17
g18
sg2257
Nsg20
I01
sg23
Nsg55
g3067
(g99
S'\x00\x00\x00\x00\x00\x006@'
p4086
tp4087
Rp4088
sg56
I0
sg24
Nsg11
Nsg27
I00
sg28
I00
sg29
(dp4089
sg2259
Nsg31
I00
sg2168
Nsg67
Nsg2167
Nsg2260
Nsg32
Nsg72
Nsg65
I01
sg2261
Vcenter
p4090
sg2263
V$22$
p4091
sg2265
Nsg57
Nsg79
I0
sg2295
Nsg80
I01
sg82
Nsg2296
F1.2
sg83
g768
sg2297
Nsg2298
I00
sg42
Nsg2299
g2300
sg2301
Vright
p4092
sg33
Nsbsg20
I01
sg23
Nsg3139
I00
sg24
Nsg11
Nsg3140
I01
sg27
I00
sg28
I00
sg29
(dp4093
sg3142
(I1
I0
tp4094
sg31
I00
sg3144
F2.01
sg2168
g2222
sg3145
I01
sg67
g1777
sg2167
Nsg3146
g4080
sg3147
g0
(g2237
g2
Ntp4095
Rp4096
(dp4097
g6
g7
sg8
I01
sg9
g4
sg10
Nsg2241
g0
(g2242
g2
Ntp4098
Rp4099
(dp4100
g2246
(lp4101
g2248
asg2249
Nsg2250
g2251
sg2252
g2251
sg2254
g3066
sg2255
I400
sg2256
g2251
sbsg41
Nsg17
g18
sg2257
Nsg20
I01
sg23
Nsg55
I0
sg56
I1
sg24
Nsg11
Nsg27
I00
sg28
I00
sg29
(dp4102
sg2259
Nsg31
I00
sg2168
Nsg67
Nsg2167
Nsg2260
Nsg32
Nsg72
Nsg65
I01
sg2261
Vcenter
p4103
sg2263
V$22$
p4104
sg2265
Nsg57
Nsg79
I0
sg2295
Nsg80
I01
sg82
Nsg2296
F1.2
sg83
g759
sg2297
Nsg2298
I00
sg42
Nsg2299
g2300
sg2301
Vleft
p4105
sg33
Nsbsg72
Nsg3159
g4088
sg65
I01
sg57
Nsg3160
F4.0
sg3161
g0
(g2658
g2
Ntp4106
Rp4107
(dp4108
g6
g7
sg8
I01
sg2663
g2664
sg9
g4
sg2665
g2666
sg2341
Nsg10
Nsg41
Nsg17
g18
sg2667
g2668
sg20
I01
sg2669
Nsg23
Nsg55
Nsg56
Nsg57
Nsg24
Nsg11
Nsg27
I00
sg2682
Nsg28
I00
sg29
(dp4109
sg2684
Nsg31
I00
sg2686
I00
sg2168
Nsg2687
Nsg2688
F0.5
sg2689
g2690
sg2691
Nsg2299
g2300
sg2692
g0
(g2693
g2
Ntp4110
Rp4111
(dp4112
g2692
I1
sg2698
Nsg2699
F1.0
sg83
g0
(g104
g2
Ntp4113
Rp4114
(dp4115
g48
I2
sg49
Nsg88
g89
(g90
(I0
tp4116
g92
tp4117
Rp4118
(I1
(I3
I3
tp4119
g99
I00
S'\x00\x00\x00\x00\x00\x00\xf0?\x00\x00\x00\x00\x00\x00\x00\x00\x00\x00\x00\x00\x00\x00\x00\x00\x00\x00\x00\x00\x00\x00\x00\x00\x00\x00\x00\x00\x00\x00\xf0?\x00\x00\x00\x00\x00\x00\x00\x00\x00\x00\x00\x00\x00\x00\x00\x00\x00\x00\x00\x00\x00\x00\x00\x00\x00\x00\x00\x00\x00\x00\xf0?'
p4120
tp4121
bsg50
g7
sg51
(dp4122
sbsg2710
I00
sg2711
g2712
sg2713
Nsg2165
g2714
sg74
g2812
sg2716
g0
(g2358
g2
Ntp4123
Rp4124
(dp4125
g2362
I00
sg2363
Nsg2364
g89
(g90
(I0
tp4126
g92
tp4127
Rp4128
(I1
(I2
I2
tp4129
g99
I00
S'\x00\x00\x00\x00\x00\x00\x00\x00\x00\x00\x00\x00\x00\x00\x00\x00\x00\x00\x00\x00\x00\x00\xf0?\x00\x00\x00\x00\x00\x00\x00\x00'
p4130
tp4131
bsg2371
I00
sg2372
F0.1111111111111111
sg2373
I1
sg2374
I00
sbsbsg32
Nsg2732
g2733
sg69
I01
sg2734
g2735
sg72
Nsg2736
F4.0
sg65
I01
sg2737
Nsg76
VNone
p4132
sg2745
(I0
tp4133
sg79
I0
sg2759
g2760
sg2761
I0
sg2685
I5
sg80
I01
sg82
Nsg2762
g2668
sg2763
I01
sg83
g718
sg2765
I01
sg2584
F2.01
sg42
Nsg2167
Nsg2766
(g4088
tp4134
sg67
Nsg66
F1.0
sg33
Nsg2716
Nsbsg80
I00
sg3191
g0
(g2658
g2
Ntp4135
Rp4136
(dp4137
g6
g7
sg8
I01
sg2663
g2664
sg9
g4
sg2665
g2666
sg2341
Nsg10
Nsg41
Nsg17
g18
sg2667
g2668
sg20
I01
sg2669
Nsg23
Nsg55
g89
(g90
(I0
tp4138
g92
tp4139
Rp4140
(I1
(I2
tp4141
g99
I00
S'\x00\x00\x00\x00\x00\x00\x00\x00\x00\x00\x00\x00\x00\x00\x00\x00'
p4142
tp4143
bsg56
g89
(g90
(I0
tp4144
g92
tp4145
Rp4146
(I1
(I2
tp4147
g99
I00
S'\x00\x00\x00\x00\x00\x00\x00\x00\x00\x00\x00\x00\x00\x00\xf0?'
p4148
tp4149
bsg57
Nsg24
Nsg11
Nsg27
I00
sg2682
Nsg28
I00
sg29
(dp4150
sg2684
Nsg31
I00
sg2686
I00
sg2168
Nsg2687
Nsg2688
F0.5
sg2689
g2690
sg2691
Nsg2299
g2300
sg2692
g0
(g2693
g2
Ntp4151
Rp4152
(dp4153
g2692
g3211
sg2698
Nsg2699
Nsg83
g0
(g44
g2
Ntp4154
Rp4155
(dp4156
g48
I1
sg49
Nsg50
g7
sg51
(dp4157
sbsg2710
I00
sg2711
g2712
sg2713
Nsg2165
g2714
sg74
g2812
sg2716
g0
(g2358
g2
Ntp4158
Rp4159
(dp4160
g2362
I00
sg2363
Nsg2364
g89
(g90
(I0
tp4161
g92
tp4162
Rp4163
(I1
(I0
I2
tp4164
g99
I00
g2509
tp4165
bsg2371
I00
sg2372
F0.1111111111111111
sg2373
I1
sg2374
I00
sbsbsg32
Nsg2732
g2733
sg69
I01
sg2734
g2735
sg72
Nsg2736
F0.0
sg65
I01
sg2737
g89
(g90
(I0
tp4166
g92
tp4167
Rp4168
(I1
(I2
I2
tp4169
g99
I00
S'\x00\x00\x00\x00\x00\x00\x00\x00\x00\x00\x00\x00\x00\x00\x00\x00\x00\x00\x00\x00\x00\x00\xf0?\x00\x00\x00\x00\x00\x00\x00\x00'
p4170
tp4171
bsg76
g3230
sg2745
(I0
I1
tp4172
sg79
I0
sg2759
g2760
sg2761
I0
sg2685
I5
sg80
I01
sg82
F1.0
sg2762
g2668
sg2763
I00
sg83
g718
sg2765
I00
sg42
Nsg2167
Nsg2766
(I0
I0
tp4173
sg67
g2057
sg66
F0.5
sg33
Nsg2716
g0
(g2358
g2
Ntp4174
Rp4175
(dp4176
g2362
I00
sg2363
Nsg2364
g4168
sg2371
I00
sg2372
F0.1111111111111111
sg2373
I180
sg2374
I00
sbsbsg82
Nsg32
Nsg3236
g0
(g2658
g2
Ntp4177
Rp4178
(dp4179
g6
g7
sg8
I01
sg2663
g2664
sg9
g4
sg2665
g2666
sg2341
Nsg10
Nsg41
Nsg17
g18
sg2667
g2668
sg20
I01
sg2669
Nsg23
Nsg55
Nsg56
Nsg57
Nsg24
Nsg11
Nsg27
I00
sg2682
Nsg28
I00
sg29
(dp4180
sg2684
Nsg31
I00
sg2686
I00
sg2168
Nsg2687
Nsg2688
F0.5
sg2689
g2690
sg2691
Nsg2299
g2300
sg2692
g0
(g2693
g2
Ntp4181
Rp4182
(dp4183
g2692
I0
sg2698
Nsg2699
F1.0
sg83
g0
(g104
g2
Ntp4184
Rp4185
(dp4186
g48
I2
sg49
Nsg88
g89
(g90
(I0
tp4187
g92
tp4188
Rp4189
(I1
(I3
I3
tp4190
g99
I00
S'\x00\x00\x00\x00\x00\x00\xf0\xbf\x00\x00\x00\x00\x00\x00\x00\x00\x00\x00\x00\x00\x00\x00\x00\x00\x00\x00\x00\x00\x00\x00\x00\x00\x00\x00\x00\x00\x00\x00\xf0?\x00\x00\x00\x00\x00\x00\x00\x00\x00\x00\x00\x00\x00\x00\x00\x00\x00\x00\x00\x00\x00\x00\x00\x00\x00\x00\x00\x00\x00\x00\xf0?'
p4191
tp4192
bsg50
g7
sg51
(dp4193
sbsg2710
I00
sg2711
g2712
sg2713
Nsg2165
g2714
sg74
g2812
sg2716
g4124
sbsg32
Nsg2732
g2733
sg69
I01
sg2734
g2735
sg72
Nsg2736
F4.0
sg65
I01
sg2737
Nsg76
VNone
p4194
sg2745
(I1
tp4195
sg79
I0
sg2759
g2760
sg2761
I0
sg2685
I5
sg80
I01
sg82
Nsg2762
g2668
sg2763
I01
sg83
g718
sg2765
I01
sg2584
F2.01
sg42
Nsg2167
Nsg2766
(g4088
tp4196
sg67
Nsg66
F1.0
sg33
Nsg2716
Nsbsg83
Nsg3257
g3066
sg3258
Vytick
p4197
sg42
Nsg2299
g2300
sg33
Nsbag0
(g4075
g2
Ntp4198
Rp4199
(dp4200
g6
g7
sg39
F0.5
sg9
g4
sg3119
I01
sg8
I01
sg10
Nsg79
I0
sg41
Nsg3120
F4.0
sg3121
g2300
sg3122
I00
sg2254
F4.0
sg17
g18
sg3123
g3124
sg3075
g0
(g2237
g2
Ntp4201
Rp4202
(dp4203
g6
g7
sg8
I01
sg9
g4
sg10
Nsg2241
g0
(g2242
g2
Ntp4204
Rp4205
(dp4206
g2246
g4085
sg2249
Nsg2250
g2251
sg2252
g2251
sg2254
F15.0
sg2255
I400
sg2256
g2251
sbsg41
Nsg17
g18
sg2257
Nsg20
I01
sg23
Nsg55
g3067
(g99
S'\x00\x00\x00\x00\x00\x007@'
p4207
tp4208
Rp4209
sg56
I0
sg24
Nsg11
Nsg27
I00
sg28
I00
sg29
(dp4210
sg2259
Nsg31
I00
sg2168
Nsg67
Nsg2167
Nsg2260
Nsg32
Nsg72
Nsg65
I01
sg2261
g4090
sg2263
V$23$
p4211
sg2265
Nsg57
Nsg79
I0
sg2295
Nsg80
I01
sg82
Nsg2296
F1.2
sg83
g768
sg2297
Nsg2298
I00
sg42
Nsg2299
g2300
sg2301
g4092
sg33
Nsbsg20
I01
sg23
Nsg3139
I00
sg24
Nsg11
Nsg3140
I01
sg27
I00
sg28
I00
sg29
(dp4212
sg3142
(I1
I0
tp4213
sg31
I00
sg3144
F2.01
sg2168
g2222
sg3145
I01
sg67
g432
sg2167
Nsg3146
g4202
sg3147
g0
(g2237
g2
Ntp4214
Rp4215
(dp4216
g6
g7
sg8
I01
sg9
g4
sg10
Nsg2241
g0
(g2242
g2
Ntp4217
Rp4218
(dp4219
g2246
g4101
sg2249
Nsg2250
g2251
sg2252
g2251
sg2254
g3066
sg2255
I400
sg2256
g2251
sbsg41
Nsg17
g18
sg2257
Nsg20
I01
sg23
Nsg55
I0
sg56
I1
sg24
Nsg11
Nsg27
I00
sg28
I00
sg29
(dp4220
sg2259
Nsg31
I00
sg2168
Nsg67
Nsg2167
Nsg2260
Nsg32
Nsg72
Nsg65
I01
sg2261
g4103
sg2263
V$23$
p4221
sg2265
Nsg57
Nsg79
I0
sg2295
Nsg80
I01
sg82
Nsg2296
F1.2
sg83
g759
sg2297
Nsg2298
I00
sg42
Nsg2299
g2300
sg2301
g4105
sg33
Nsbsg72
Nsg3159
g4209
sg65
I01
sg57
Nsg3160
F4.0
sg3161
g0
(g2658
g2
Ntp4222
Rp4223
(dp4224
g6
g7
sg8
I01
sg2663
g2664
sg9
g4
sg2665
g2666
sg2341
Nsg10
Nsg41
Nsg17
g18
sg2667
g2668
sg20
I01
sg2669
Nsg23
Nsg55
Nsg56
Nsg57
Nsg24
Nsg11
Nsg27
I00
sg2682
Nsg28
I00
sg29
(dp4225
sg2684
Nsg31
I00
sg2686
I00
sg2168
Nsg2687
Nsg2688
F0.5
sg2689
g2690
sg2691
Nsg2299
g2300
sg2692
g0
(g2693
g2
Ntp4226
Rp4227
(dp4228
g2692
I1
sg2698
Nsg2699
F1.0
sg83
g0
(g104
g2
Ntp4229
Rp4230
(dp4231
g48
I2
sg49
Nsg88
g89
(g90
(I0
tp4232
g92
tp4233
Rp4234
(I1
(I3
I3
tp4235
g99
I00
S'\x00\x00\x00\x00\x00\x00\xf0?\x00\x00\x00\x00\x00\x00\x00\x00\x00\x00\x00\x00\x00\x00\x00\x00\x00\x00\x00\x00\x00\x00\x00\x00\x00\x00\x00\x00\x00\x00\xf0?\x00\x00\x00\x00\x00\x00\x00\x00\x00\x00\x00\x00\x00\x00\x00\x00\x00\x00\x00\x00\x00\x00\x00\x00\x00\x00\x00\x00\x00\x00\xf0?'
p4236
tp4237
bsg50
g7
sg51
(dp4238
sbsg2710
I00
sg2711
g2712
sg2713
Nsg2165
g2714
sg74
g2812
sg2716
g4124
sbsg32
Nsg2732
g2733
sg69
I01
sg2734
g2735
sg72
Nsg2736
F4.0
sg65
I01
sg2737
Nsg76
g4132
sg2745
g4133
sg79
I0
sg2759
g2760
sg2761
I0
sg2685
I5
sg80
I01
sg82
Nsg2762
g2668
sg2763
I01
sg83
g718
sg2765
I01
sg2584
F2.01
sg42
Nsg2167
Nsg2766
(g4209
tp4239
sg67
Nsg66
F1.0
sg33
Nsg2716
Nsbsg80
I00
sg3191
g0
(g2658
g2
Ntp4240
Rp4241
(dp4242
g6
g7
sg8
I01
sg2663
g2664
sg9
g4
sg2665
g2666
sg2341
Nsg10
Nsg41
Nsg17
g18
sg2667
g2668
sg20
I01
sg2669
Nsg23
Nsg55
g89
(g90
(I0
tp4243
g92
tp4244
Rp4245
(I1
(I2
tp4246
g99
I00
S'\x00\x00\x00\x00\x00\x00\x00\x00\x00\x00\x00\x00\x00\x00\x00\x00'
p4247
tp4248
bsg56
g89
(g90
(I0
tp4249
g92
tp4250
Rp4251
(I1
(I2
tp4252
g99
I00
S'\x00\x00\x00\x00\x00\x00\x00\x00\x00\x00\x00\x00\x00\x00\xf0?'
p4253
tp4254
bsg57
Nsg24
Nsg11
Nsg27
I00
sg2682
Nsg28
I00
sg29
(dp4255
sg2684
Nsg31
I00
sg2686
I00
sg2168
Nsg2687
Nsg2688
F0.5
sg2689
g2690
sg2691
Nsg2299
g2300
sg2692
g0
(g2693
g2
Ntp4256
Rp4257
(dp4258
g2692
g3211
sg2698
Nsg2699
Nsg83
g0
(g44
g2
Ntp4259
Rp4260
(dp4261
g48
I1
sg49
Nsg50
g7
sg51
(dp4262
sbsg2710
I00
sg2711
g2712
sg2713
Nsg2165
g2714
sg74
g2812
sg2716
g0
(g2358
g2
Ntp4263
Rp4264
(dp4265
g2362
I00
sg2363
Nsg2364
g89
(g90
(I0
tp4266
g92
tp4267
Rp4268
(I1
(I0
I2
tp4269
g99
I00
g2509
tp4270
bsg2371
I00
sg2372
F0.1111111111111111
sg2373
I1
sg2374
I00
sbsbsg32
Nsg2732
g2733
sg69
I01
sg2734
g2735
sg72
Nsg2736
F0.0
sg65
I01
sg2737
g89
(g90
(I0
tp4271
g92
tp4272
Rp4273
(I1
(I2
I2
tp4274
g99
I00
S'\x00\x00\x00\x00\x00\x00\x00\x00\x00\x00\x00\x00\x00\x00\x00\x00\x00\x00\x00\x00\x00\x00\xf0?\x00\x00\x00\x00\x00\x00\x00\x00'
p4275
tp4276
bsg76
g3230
sg2745
g4172
sg79
I0
sg2759
g2760
sg2761
I0
sg2685
I5
sg80
I01
sg82
F1.0
sg2762
g2668
sg2763
I00
sg83
g718
sg2765
I00
sg42
Nsg2167
Nsg2766
g4173
sg67
g2057
sg66
F0.5
sg33
Nsg2716
g0
(g2358
g2
Ntp4277
Rp4278
(dp4279
g2362
I00
sg2363
Nsg2364
g4273
sg2371
I00
sg2372
F0.1111111111111111
sg2373
I180
sg2374
I00
sbsbsg82
Nsg32
Nsg3236
g0
(g2658
g2
Ntp4280
Rp4281
(dp4282
g6
g7
sg8
I01
sg2663
g2664
sg9
g4
sg2665
g2666
sg2341
Nsg10
Nsg41
Nsg17
g18
sg2667
g2668
sg20
I01
sg2669
Nsg23
Nsg55
Nsg56
Nsg57
Nsg24
Nsg11
Nsg27
I00
sg2682
Nsg28
I00
sg29
(dp4283
sg2684
Nsg31
I00
sg2686
I00
sg2168
Nsg2687
Nsg2688
F0.5
sg2689
g2690
sg2691
Nsg2299
g2300
sg2692
g0
(g2693
g2
Ntp4284
Rp4285
(dp4286
g2692
I0
sg2698
Nsg2699
F1.0
sg83
g0
(g104
g2
Ntp4287
Rp4288
(dp4289
g48
I2
sg49
Nsg88
g89
(g90
(I0
tp4290
g92
tp4291
Rp4292
(I1
(I3
I3
tp4293
g99
I00
S'\x00\x00\x00\x00\x00\x00\xf0\xbf\x00\x00\x00\x00\x00\x00\x00\x00\x00\x00\x00\x00\x00\x00\x00\x00\x00\x00\x00\x00\x00\x00\x00\x00\x00\x00\x00\x00\x00\x00\xf0?\x00\x00\x00\x00\x00\x00\x00\x00\x00\x00\x00\x00\x00\x00\x00\x00\x00\x00\x00\x00\x00\x00\x00\x00\x00\x00\x00\x00\x00\x00\xf0?'
p4294
tp4295
bsg50
g7
sg51
(dp4296
sbsg2710
I00
sg2711
g2712
sg2713
Nsg2165
g2714
sg74
g2812
sg2716
g4124
sbsg32
Nsg2732
g2733
sg69
I01
sg2734
g2735
sg72
Nsg2736
F4.0
sg65
I01
sg2737
Nsg76
g4194
sg2745
g4195
sg79
I0
sg2759
g2760
sg2761
I0
sg2685
I5
sg80
I01
sg82
Nsg2762
g2668
sg2763
I01
sg83
g718
sg2765
I01
sg2584
F2.01
sg42
Nsg2167
Nsg2766
(g4209
tp4297
sg67
Nsg66
F1.0
sg33
Nsg2716
Nsbsg83
Nsg3257
g3066
sg3258
g4197
sg42
Nsg2299
g2300
sg33
Nsbag0
(g4075
g2
Ntp4298
Rp4299
(dp4300
g6
g7
sg39
F0.5
sg9
g4
sg3119
I01
sg8
I01
sg10
Nsg79
I0
sg41
Nsg3120
F4.0
sg3121
g2300
sg3122
I00
sg2254
F4.0
sg17
g18
sg3123
g3124
sg3075
g0
(g2237
g2
Ntp4301
Rp4302
(dp4303
g6
g7
sg8
I01
sg9
g4
sg10
Nsg2241
g0
(g2242
g2
Ntp4304
Rp4305
(dp4306
g2246
g4085
sg2249
Nsg2250
g2251
sg2252
g2251
sg2254
F15.0
sg2255
I400
sg2256
g2251
sbsg41
Nsg17
g18
sg2257
Nsg20
I01
sg23
Nsg55
g3067
(g99
S'\x00\x00\x00\x00\x00\x008@'
p4307
tp4308
Rp4309
sg56
I0
sg24
Nsg11
Nsg27
I00
sg28
I00
sg29
(dp4310
sg2259
Nsg31
I00
sg2168
Nsg67
Nsg2167
Nsg2260
Nsg32
Nsg72
Nsg65
I01
sg2261
g4090
sg2263
V$24$
p4311
sg2265
Nsg57
Nsg79
I0
sg2295
Nsg80
I01
sg82
Nsg2296
F1.2
sg83
g768
sg2297
Nsg2298
I00
sg42
Nsg2299
g2300
sg2301
g4092
sg33
Nsbsg20
I01
sg23
Nsg3139
I00
sg24
Nsg11
Nsg3140
I01
sg27
I00
sg28
I00
sg29
(dp4312
sg3142
(I1
I0
tp4313
sg31
I00
sg3144
F2.01
sg2168
g2222
sg3145
I01
sg67
Nsg2167
Nsg3146
g4302
sg3147
g0
(g2237
g2
Ntp4314
Rp4315
(dp4316
g6
g7
sg8
I01
sg9
g4
sg10
Nsg2241
g0
(g2242
g2
Ntp4317
Rp4318
(dp4319
g2246
g4101
sg2249
Nsg2250
g2251
sg2252
g2251
sg2254
g3066
sg2255
I400
sg2256
g2251
sbsg41
Nsg17
g18
sg2257
Nsg20
I01
sg23
Nsg55
I0
sg56
I1
sg24
Nsg11
Nsg27
I00
sg28
I00
sg29
(dp4320
sg2259
Nsg31
I00
sg2168
Nsg67
Nsg2167
Nsg2260
Nsg32
Nsg72
Nsg65
I01
sg2261
g4103
sg2263
V$24$
p4321
sg2265
Nsg57
Nsg79
I0
sg2295
Nsg80
I01
sg82
Nsg2296
F1.2
sg83
g759
sg2297
Nsg2298
I00
sg42
Nsg2299
g2300
sg2301
g4105
sg33
Nsbsg72
Nsg3159
g4309
sg65
I01
sg57
Nsg3160
F4.0
sg3161
g0
(g2658
g2
Ntp4322
Rp4323
(dp4324
g6
g7
sg8
I01
sg2663
g2664
sg9
g4
sg2665
g2666
sg2341
Nsg10
Nsg41
Nsg17
g18
sg2667
g2668
sg20
I01
sg2669
Nsg23
Nsg55
Nsg56
Nsg57
Nsg24
Nsg11
Nsg27
I00
sg2682
Nsg28
I00
sg29
(dp4325
sg2684
Nsg31
I00
sg2686
I00
sg2168
Nsg2687
Nsg2688
F0.5
sg2689
g2690
sg2691
Nsg2299
g2300
sg2692
g0
(g2693
g2
Ntp4326
Rp4327
(dp4328
g2692
I1
sg2698
Nsg2699
F1.0
sg83
g0
(g104
g2
Ntp4329
Rp4330
(dp4331
g48
I2
sg49
Nsg88
g89
(g90
(I0
tp4332
g92
tp4333
Rp4334
(I1
(I3
I3
tp4335
g99
I00
S'\x00\x00\x00\x00\x00\x00\xf0?\x00\x00\x00\x00\x00\x00\x00\x00\x00\x00\x00\x00\x00\x00\x00\x00\x00\x00\x00\x00\x00\x00\x00\x00\x00\x00\x00\x00\x00\x00\xf0?\x00\x00\x00\x00\x00\x00\x00\x00\x00\x00\x00\x00\x00\x00\x00\x00\x00\x00\x00\x00\x00\x00\x00\x00\x00\x00\x00\x00\x00\x00\xf0?'
p4336
tp4337
bsg50
g7
sg51
(dp4338
sbsg2710
I00
sg2711
g2712
sg2713
Nsg2165
g2714
sg74
g2812
sg2716
g4124
sbsg32
Nsg2732
g2733
sg69
I01
sg2734
g2735
sg72
Nsg2736
F4.0
sg65
I01
sg2737
Nsg76
g4132
sg2745
g4133
sg79
I0
sg2759
g2760
sg2761
I0
sg2685
I5
sg80
I01
sg82
Nsg2762
g2668
sg2763
I01
sg83
g718
sg2765
I01
sg2584
F2.01
sg42
Nsg2167
Nsg2766
(g4309
tp4339
sg67
Nsg66
F1.0
sg33
Nsg2716
Nsbsg80
I00
sg3191
g0
(g2658
g2
Ntp4340
Rp4341
(dp4342
g6
g7
sg8
I01
sg2663
g2664
sg9
g4
sg2665
g2666
sg2341
Nsg10
Nsg41
Nsg17
g18
sg2667
g2668
sg20
I01
sg2669
Nsg23
Nsg55
g89
(g90
(I0
tp4343
g92
tp4344
Rp4345
(I1
(I2
tp4346
g99
I00
S'\x00\x00\x00\x00\x00\x00\x00\x00\x00\x00\x00\x00\x00\x00\x00\x00'
p4347
tp4348
bsg56
g89
(g90
(I0
tp4349
g92
tp4350
Rp4351
(I1
(I2
tp4352
g99
I00
S'\x00\x00\x00\x00\x00\x00\x00\x00\x00\x00\x00\x00\x00\x00\xf0?'
p4353
tp4354
bsg57
Nsg24
Nsg11
Nsg27
I00
sg2682
Nsg28
I00
sg29
(dp4355
sg2684
Nsg31
I00
sg2686
I00
sg2168
Nsg2687
Nsg2688
F0.5
sg2689
g2690
sg2691
Nsg2299
g2300
sg2692
g0
(g2693
g2
Ntp4356
Rp4357
(dp4358
g2692
g3211
sg2698
Nsg2699
Nsg83
g0
(g44
g2
Ntp4359
Rp4360
(dp4361
g48
I1
sg49
Nsg50
g7
sg51
(dp4362
sbsg2710
I00
sg2711
g2712
sg2713
Nsg2165
g2714
sg74
g2812
sg2716
g0
(g2358
g2
Ntp4363
Rp4364
(dp4365
g2362
I00
sg2363
Nsg2364
g89
(g90
(I0
tp4366
g92
tp4367
Rp4368
(I1
(I0
I2
tp4369
g99
I00
g2509
tp4370
bsg2371
I00
sg2372
F0.1111111111111111
sg2373
I1
sg2374
I00
sbsbsg32
Nsg2732
g2733
sg69
I01
sg2734
g2735
sg72
Nsg2736
F0.0
sg65
I01
sg2737
g89
(g90
(I0
tp4371
g92
tp4372
Rp4373
(I1
(I2
I2
tp4374
g99
I00
S'\x00\x00\x00\x00\x00\x00\x00\x00\x00\x00\x00\x00\x00\x00\x00\x00\x00\x00\x00\x00\x00\x00\xf0?\x00\x00\x00\x00\x00\x00\x00\x00'
p4375
tp4376
bsg76
g3230
sg2745
g4172
sg79
I0
sg2759
g2760
sg2761
I0
sg2685
I5
sg80
I01
sg82
F1.0
sg2762
g2668
sg2763
I00
sg83
g718
sg2765
I00
sg42
Nsg2167
Nsg2766
g4173
sg67
g2057
sg66
F0.5
sg33
Nsg2716
g0
(g2358
g2
Ntp4377
Rp4378
(dp4379
g2362
I00
sg2363
Nsg2364
g4373
sg2371
I00
sg2372
F0.1111111111111111
sg2373
I180
sg2374
I00
sbsbsg82
Nsg32
Nsg3236
g0
(g2658
g2
Ntp4380
Rp4381
(dp4382
g6
g7
sg8
I01
sg2663
g2664
sg9
g4
sg2665
g2666
sg2341
Nsg10
Nsg41
Nsg17
g18
sg2667
g2668
sg20
I01
sg2669
Nsg23
Nsg55
Nsg56
Nsg57
Nsg24
Nsg11
Nsg27
I00
sg2682
Nsg28
I00
sg29
(dp4383
sg2684
Nsg31
I00
sg2686
I00
sg2168
Nsg2687
Nsg2688
F0.5
sg2689
g2690
sg2691
Nsg2299
g2300
sg2692
g0
(g2693
g2
Ntp4384
Rp4385
(dp4386
g2692
I0
sg2698
Nsg2699
F1.0
sg83
g0
(g104
g2
Ntp4387
Rp4388
(dp4389
g48
I2
sg49
Nsg88
g89
(g90
(I0
tp4390
g92
tp4391
Rp4392
(I1
(I3
I3
tp4393
g99
I00
S'\x00\x00\x00\x00\x00\x00\xf0\xbf\x00\x00\x00\x00\x00\x00\x00\x00\x00\x00\x00\x00\x00\x00\x00\x00\x00\x00\x00\x00\x00\x00\x00\x00\x00\x00\x00\x00\x00\x00\xf0?\x00\x00\x00\x00\x00\x00\x00\x00\x00\x00\x00\x00\x00\x00\x00\x00\x00\x00\x00\x00\x00\x00\x00\x00\x00\x00\x00\x00\x00\x00\xf0?'
p4394
tp4395
bsg50
g7
sg51
(dp4396
sbsg2710
I00
sg2711
g2712
sg2713
Nsg2165
g2714
sg74
g2812
sg2716
g4124
sbsg32
Nsg2732
g2733
sg69
I01
sg2734
g2735
sg72
Nsg2736
F4.0
sg65
I01
sg2737
Nsg76
g4194
sg2745
g4195
sg79
I0
sg2759
g2760
sg2761
I0
sg2685
I5
sg80
I01
sg82
Nsg2762
g2668
sg2763
I01
sg83
g718
sg2765
I01
sg2584
F2.01
sg42
Nsg2167
Nsg2766
(g4309
tp4397
sg67
Nsg66
F1.0
sg33
Nsg2716
Nsbsg83
Nsg3257
g3066
sg3258
g4197
sg42
Nsg2299
g2300
sg33
Nsbag0
(g4075
g2
Ntp4398
Rp4399
(dp4400
g6
g7
sg39
F0.5
sg9
g4
sg3119
I01
sg8
I01
sg10
Nsg79
I0
sg41
Nsg3120
F4.0
sg3121
g2300
sg3122
I00
sg2254
F4.0
sg17
g18
sg3123
g3124
sg3075
g0
(g2237
g2
Ntp4401
Rp4402
(dp4403
g6
g7
sg8
I01
sg9
g4
sg10
Nsg2241
g0
(g2242
g2
Ntp4404
Rp4405
(dp4406
g2246
g4085
sg2249
Nsg2250
g2251
sg2252
g2251
sg2254
F15.0
sg2255
I400
sg2256
g2251
sbsg41
Nsg17
g18
sg2257
Nsg20
I01
sg23
Nsg55
g3067
(g99
S'\x00\x00\x00\x00\x00\x009@'
p4407
tp4408
Rp4409
sg56
I0
sg24
Nsg11
Nsg27
I00
sg28
I00
sg29
(dp4410
sg2259
Nsg31
I00
sg2168
Nsg67
Nsg2167
Nsg2260
Nsg32
Nsg72
Nsg65
I01
sg2261
g4090
sg2263
V$25$
p4411
sg2265
Nsg57
Nsg79
I0
sg2295
Nsg80
I01
sg82
Nsg2296
F1.2
sg83
g768
sg2297
Nsg2298
I00
sg42
Nsg2299
g2300
sg2301
g4092
sg33
Nsbsg20
I01
sg23
Nsg3139
I00
sg24
Nsg11
Nsg3140
I01
sg27
I00
sg28
I00
sg29
(dp4412
sg3142
(I1
I0
tp4413
sg31
I00
sg3144
F2.01
sg2168
g2222
sg3145
I01
sg67
Nsg2167
Nsg3146
g4402
sg3147
g0
(g2237
g2
Ntp4414
Rp4415
(dp4416
g6
g7
sg8
I01
sg9
g4
sg10
Nsg2241
g0
(g2242
g2
Ntp4417
Rp4418
(dp4419
g2246
g4101
sg2249
Nsg2250
g2251
sg2252
g2251
sg2254
g3066
sg2255
I400
sg2256
g2251
sbsg41
Nsg17
g18
sg2257
Nsg20
I01
sg23
Nsg55
I0
sg56
I1
sg24
Nsg11
Nsg27
I00
sg28
I00
sg29
(dp4420
sg2259
Nsg31
I00
sg2168
Nsg67
Nsg2167
Nsg2260
Nsg32
Nsg72
Nsg65
I01
sg2261
g4103
sg2263
V$25$
p4421
sg2265
Nsg57
Nsg79
I0
sg2295
Nsg80
I01
sg82
Nsg2296
F1.2
sg83
g759
sg2297
Nsg2298
I00
sg42
Nsg2299
g2300
sg2301
g4105
sg33
Nsbsg72
Nsg3159
g4409
sg65
I01
sg57
Nsg3160
F4.0
sg3161
g0
(g2658
g2
Ntp4422
Rp4423
(dp4424
g6
g7
sg8
I01
sg2663
g2664
sg9
g4
sg2665
g2666
sg2341
Nsg10
Nsg41
Nsg17
g18
sg2667
g2668
sg20
I01
sg2669
Nsg23
Nsg55
Nsg56
Nsg57
Nsg24
Nsg11
Nsg27
I00
sg2682
Nsg28
I00
sg29
(dp4425
sg2684
Nsg31
I00
sg2686
I00
sg2168
Nsg2687
Nsg2688
F0.5
sg2689
g2690
sg2691
Nsg2299
g2300
sg2692
g0
(g2693
g2
Ntp4426
Rp4427
(dp4428
g2692
I1
sg2698
Nsg2699
F1.0
sg83
g0
(g104
g2
Ntp4429
Rp4430
(dp4431
g48
I2
sg49
Nsg88
g89
(g90
(I0
tp4432
g92
tp4433
Rp4434
(I1
(I3
I3
tp4435
g99
I00
S'\x00\x00\x00\x00\x00\x00\xf0?\x00\x00\x00\x00\x00\x00\x00\x00\x00\x00\x00\x00\x00\x00\x00\x00\x00\x00\x00\x00\x00\x00\x00\x00\x00\x00\x00\x00\x00\x00\xf0?\x00\x00\x00\x00\x00\x00\x00\x00\x00\x00\x00\x00\x00\x00\x00\x00\x00\x00\x00\x00\x00\x00\x00\x00\x00\x00\x00\x00\x00\x00\xf0?'
p4436
tp4437
bsg50
g7
sg51
(dp4438
sbsg2710
I00
sg2711
g2712
sg2713
Nsg2165
g2714
sg74
g2812
sg2716
g4124
sbsg32
Nsg2732
g2733
sg69
I01
sg2734
g2735
sg72
Nsg2736
F4.0
sg65
I01
sg2737
Nsg76
g4132
sg2745
g4133
sg79
I0
sg2759
g2760
sg2761
I0
sg2685
I5
sg80
I01
sg82
Nsg2762
g2668
sg2763
I01
sg83
g718
sg2765
I01
sg2584
F2.01
sg42
Nsg2167
Nsg2766
(g4409
tp4439
sg67
Nsg66
F1.0
sg33
Nsg2716
Nsbsg80
I00
sg3191
g0
(g2658
g2
Ntp4440
Rp4441
(dp4442
g6
g7
sg8
I01
sg2663
g2664
sg9
g4
sg2665
g2666
sg2341
Nsg10
Nsg41
Nsg17
g18
sg2667
g2668
sg20
I01
sg2669
Nsg23
Nsg55
g89
(g90
(I0
tp4443
g92
tp4444
Rp4445
(I1
(I2
tp4446
g99
I00
S'\x00\x00\x00\x00\x00\x00\x00\x00\x00\x00\x00\x00\x00\x00\x00\x00'
p4447
tp4448
bsg56
g89
(g90
(I0
tp4449
g92
tp4450
Rp4451
(I1
(I2
tp4452
g99
I00
S'\x00\x00\x00\x00\x00\x00\x00\x00\x00\x00\x00\x00\x00\x00\xf0?'
p4453
tp4454
bsg57
Nsg24
Nsg11
Nsg27
I00
sg2682
Nsg28
I00
sg29
(dp4455
sg2684
Nsg31
I00
sg2686
I00
sg2168
Nsg2687
Nsg2688
F0.5
sg2689
g2690
sg2691
Nsg2299
g2300
sg2692
g0
(g2693
g2
Ntp4456
Rp4457
(dp4458
g2692
g3211
sg2698
Nsg2699
Nsg83
g0
(g44
g2
Ntp4459
Rp4460
(dp4461
g48
I1
sg49
Nsg50
g7
sg51
(dp4462
sbsg2710
I00
sg2711
g2712
sg2713
Nsg2165
g2714
sg74
g2812
sg2716
g0
(g2358
g2
Ntp4463
Rp4464
(dp4465
g2362
I00
sg2363
Nsg2364
g89
(g90
(I0
tp4466
g92
tp4467
Rp4468
(I1
(I0
I2
tp4469
g99
I00
g2509
tp4470
bsg2371
I00
sg2372
F0.1111111111111111
sg2373
I1
sg2374
I00
sbsbsg32
Nsg2732
g2733
sg69
I01
sg2734
g2735
sg72
Nsg2736
F0.0
sg65
I01
sg2737
g89
(g90
(I0
tp4471
g92
tp4472
Rp4473
(I1
(I2
I2
tp4474
g99
I00
S'\x00\x00\x00\x00\x00\x00\x00\x00\x00\x00\x00\x00\x00\x00\x00\x00\x00\x00\x00\x00\x00\x00\xf0?\x00\x00\x00\x00\x00\x00\x00\x00'
p4475
tp4476
bsg76
g3230
sg2745
g4172
sg79
I0
sg2759
g2760
sg2761
I0
sg2685
I5
sg80
I01
sg82
F1.0
sg2762
g2668
sg2763
I00
sg83
g718
sg2765
I00
sg42
Nsg2167
Nsg2766
g4173
sg67
g2057
sg66
F0.5
sg33
Nsg2716
g0
(g2358
g2
Ntp4477
Rp4478
(dp4479
g2362
I00
sg2363
Nsg2364
g4473
sg2371
I00
sg2372
F0.1111111111111111
sg2373
I180
sg2374
I00
sbsbsg82
Nsg32
Nsg3236
g0
(g2658
g2
Ntp4480
Rp4481
(dp4482
g6
g7
sg8
I01
sg2663
g2664
sg9
g4
sg2665
g2666
sg2341
Nsg10
Nsg41
Nsg17
g18
sg2667
g2668
sg20
I01
sg2669
Nsg23
Nsg55
Nsg56
Nsg57
Nsg24
Nsg11
Nsg27
I00
sg2682
Nsg28
I00
sg29
(dp4483
sg2684
Nsg31
I00
sg2686
I00
sg2168
Nsg2687
Nsg2688
F0.5
sg2689
g2690
sg2691
Nsg2299
g2300
sg2692
g0
(g2693
g2
Ntp4484
Rp4485
(dp4486
g2692
I0
sg2698
Nsg2699
F1.0
sg83
g0
(g104
g2
Ntp4487
Rp4488
(dp4489
g48
I2
sg49
Nsg88
g89
(g90
(I0
tp4490
g92
tp4491
Rp4492
(I1
(I3
I3
tp4493
g99
I00
S'\x00\x00\x00\x00\x00\x00\xf0\xbf\x00\x00\x00\x00\x00\x00\x00\x00\x00\x00\x00\x00\x00\x00\x00\x00\x00\x00\x00\x00\x00\x00\x00\x00\x00\x00\x00\x00\x00\x00\xf0?\x00\x00\x00\x00\x00\x00\x00\x00\x00\x00\x00\x00\x00\x00\x00\x00\x00\x00\x00\x00\x00\x00\x00\x00\x00\x00\x00\x00\x00\x00\xf0?'
p4494
tp4495
bsg50
g7
sg51
(dp4496
sbsg2710
I00
sg2711
g2712
sg2713
Nsg2165
g2714
sg74
g2812
sg2716
g4124
sbsg32
Nsg2732
g2733
sg69
I01
sg2734
g2735
sg72
Nsg2736
F4.0
sg65
I01
sg2737
Nsg76
g4194
sg2745
g4195
sg79
I0
sg2759
g2760
sg2761
I0
sg2685
I5
sg80
I01
sg82
Nsg2762
g2668
sg2763
I01
sg83
g718
sg2765
I01
sg2584
F2.01
sg42
Nsg2167
Nsg2766
(g4409
tp4497
sg67
Nsg66
F1.0
sg33
Nsg2716
Nsbsg83
Nsg3257
g3066
sg3258
g4197
sg42
Nsg2299
g2300
sg33
Nsbag0
(g4075
g2
Ntp4498
Rp4499
(dp4500
g6
g7
sg39
F0.5
sg9
g4
sg3119
I01
sg8
I01
sg10
Nsg79
I0
sg41
Nsg3120
F4.0
sg3121
g2300
sg3122
I00
sg2254
F4.0
sg17
g18
sg3123
g3124
sg3075
g0
(g2237
g2
Ntp4501
Rp4502
(dp4503
g6
g7
sg8
I01
sg9
g4
sg10
Nsg2241
g0
(g2242
g2
Ntp4504
Rp4505
(dp4506
g2246
g4085
sg2249
Nsg2250
g2251
sg2252
g2251
sg2254
F15.0
sg2255
I400
sg2256
g2251
sbsg41
Nsg17
g18
sg2257
Nsg20
I01
sg23
Nsg55
g3067
(g99
S'\x00\x00\x00\x00\x00\x00:@'
p4507
tp4508
Rp4509
sg56
I0
sg24
Nsg11
Nsg27
I00
sg28
I00
sg29
(dp4510
sg2259
Nsg31
I00
sg2168
Nsg67
Nsg2167
Nsg2260
Nsg32
Nsg72
Nsg65
I01
sg2261
g4090
sg2263
V$26$
p4511
sg2265
Nsg57
Nsg79
I0
sg2295
Nsg80
I01
sg82
Nsg2296
F1.2
sg83
g768
sg2297
Nsg2298
I00
sg42
Nsg2299
g2300
sg2301
g4092
sg33
Nsbsg20
I01
sg23
Nsg3139
I00
sg24
Nsg11
Nsg3140
I01
sg27
I00
sg28
I00
sg29
(dp4512
sg3142
(I1
I0
tp4513
sg31
I00
sg3144
F2.01
sg2168
g2222
sg3145
I01
sg67
Nsg2167
Nsg3146
g4502
sg3147
g0
(g2237
g2
Ntp4514
Rp4515
(dp4516
g6
g7
sg8
I01
sg9
g4
sg10
Nsg2241
g0
(g2242
g2
Ntp4517
Rp4518
(dp4519
g2246
g4101
sg2249
Nsg2250
g2251
sg2252
g2251
sg2254
g3066
sg2255
I400
sg2256
g2251
sbsg41
Nsg17
g18
sg2257
Nsg20
I01
sg23
Nsg55
I0
sg56
I1
sg24
Nsg11
Nsg27
I00
sg28
I00
sg29
(dp4520
sg2259
Nsg31
I00
sg2168
Nsg67
Nsg2167
Nsg2260
Nsg32
Nsg72
Nsg65
I01
sg2261
g4103
sg2263
V$26$
p4521
sg2265
Nsg57
Nsg79
I0
sg2295
Nsg80
I01
sg82
Nsg2296
F1.2
sg83
g759
sg2297
Nsg2298
I00
sg42
Nsg2299
g2300
sg2301
g4105
sg33
Nsbsg72
Nsg3159
g4509
sg65
I01
sg57
Nsg3160
F4.0
sg3161
g0
(g2658
g2
Ntp4522
Rp4523
(dp4524
g6
g7
sg8
I01
sg2663
g2664
sg9
g4
sg2665
g2666
sg2341
Nsg10
Nsg41
Nsg17
g18
sg2667
g2668
sg20
I01
sg2669
Nsg23
Nsg55
Nsg56
Nsg57
Nsg24
Nsg11
Nsg27
I00
sg2682
Nsg28
I00
sg29
(dp4525
sg2684
Nsg31
I00
sg2686
I00
sg2168
Nsg2687
Nsg2688
F0.5
sg2689
g2690
sg2691
Nsg2299
g2300
sg2692
g0
(g2693
g2
Ntp4526
Rp4527
(dp4528
g2692
I1
sg2698
Nsg2699
F1.0
sg83
g0
(g104
g2
Ntp4529
Rp4530
(dp4531
g48
I2
sg49
Nsg88
g89
(g90
(I0
tp4532
g92
tp4533
Rp4534
(I1
(I3
I3
tp4535
g99
I00
S'\x00\x00\x00\x00\x00\x00\xf0?\x00\x00\x00\x00\x00\x00\x00\x00\x00\x00\x00\x00\x00\x00\x00\x00\x00\x00\x00\x00\x00\x00\x00\x00\x00\x00\x00\x00\x00\x00\xf0?\x00\x00\x00\x00\x00\x00\x00\x00\x00\x00\x00\x00\x00\x00\x00\x00\x00\x00\x00\x00\x00\x00\x00\x00\x00\x00\x00\x00\x00\x00\xf0?'
p4536
tp4537
bsg50
g7
sg51
(dp4538
sbsg2710
I00
sg2711
g2712
sg2713
Nsg2165
g2714
sg74
g2812
sg2716
g4124
sbsg32
Nsg2732
g2733
sg69
I01
sg2734
g2735
sg72
Nsg2736
F4.0
sg65
I01
sg2737
Nsg76
g4132
sg2745
g4133
sg79
I0
sg2759
g2760
sg2761
I0
sg2685
I5
sg80
I01
sg82
Nsg2762
g2668
sg2763
I01
sg83
g718
sg2765
I01
sg2584
F2.01
sg42
Nsg2167
Nsg2766
(g4509
tp4539
sg67
Nsg66
F1.0
sg33
Nsg2716
Nsbsg80
I00
sg3191
g0
(g2658
g2
Ntp4540
Rp4541
(dp4542
g6
g7
sg8
I01
sg2663
g2664
sg9
g4
sg2665
g2666
sg2341
Nsg10
Nsg41
Nsg17
g18
sg2667
g2668
sg20
I01
sg2669
Nsg23
Nsg55
g89
(g90
(I0
tp4543
g92
tp4544
Rp4545
(I1
(I2
tp4546
g99
I00
S'\x00\x00\x00\x00\x00\x00\x00\x00\x00\x00\x00\x00\x00\x00\x00\x00'
p4547
tp4548
bsg56
g89
(g90
(I0
tp4549
g92
tp4550
Rp4551
(I1
(I2
tp4552
g99
I00
S'\x00\x00\x00\x00\x00\x00\x00\x00\x00\x00\x00\x00\x00\x00\xf0?'
p4553
tp4554
bsg57
Nsg24
Nsg11
Nsg27
I00
sg2682
Nsg28
I00
sg29
(dp4555
sg2684
Nsg31
I00
sg2686
I00
sg2168
Nsg2687
Nsg2688
F0.5
sg2689
g2690
sg2691
Nsg2299
g2300
sg2692
g0
(g2693
g2
Ntp4556
Rp4557
(dp4558
g2692
g3211
sg2698
Nsg2699
Nsg83
g0
(g44
g2
Ntp4559
Rp4560
(dp4561
g48
I1
sg49
Nsg50
g7
sg51
(dp4562
sbsg2710
I00
sg2711
g2712
sg2713
Nsg2165
g2714
sg74
g2812
sg2716
g0
(g2358
g2
Ntp4563
Rp4564
(dp4565
g2362
I00
sg2363
Nsg2364
g89
(g90
(I0
tp4566
g92
tp4567
Rp4568
(I1
(I0
I2
tp4569
g99
I00
g2509
tp4570
bsg2371
I00
sg2372
F0.1111111111111111
sg2373
I1
sg2374
I00
sbsbsg32
Nsg2732
g2733
sg69
I01
sg2734
g2735
sg72
Nsg2736
F0.0
sg65
I01
sg2737
g89
(g90
(I0
tp4571
g92
tp4572
Rp4573
(I1
(I2
I2
tp4574
g99
I00
S'\x00\x00\x00\x00\x00\x00\x00\x00\x00\x00\x00\x00\x00\x00\x00\x00\x00\x00\x00\x00\x00\x00\xf0?\x00\x00\x00\x00\x00\x00\x00\x00'
p4575
tp4576
bsg76
g3230
sg2745
g4172
sg79
I0
sg2759
g2760
sg2761
I0
sg2685
I5
sg80
I01
sg82
F1.0
sg2762
g2668
sg2763
I00
sg83
g718
sg2765
I00
sg42
Nsg2167
Nsg2766
g4173
sg67
g2057
sg66
F0.5
sg33
Nsg2716
g0
(g2358
g2
Ntp4577
Rp4578
(dp4579
g2362
I00
sg2363
Nsg2364
g4573
sg2371
I00
sg2372
F0.1111111111111111
sg2373
I180
sg2374
I00
sbsbsg82
Nsg32
Nsg3236
g0
(g2658
g2
Ntp4580
Rp4581
(dp4582
g6
g7
sg8
I01
sg2663
g2664
sg9
g4
sg2665
g2666
sg2341
Nsg10
Nsg41
Nsg17
g18
sg2667
g2668
sg20
I01
sg2669
Nsg23
Nsg55
Nsg56
Nsg57
Nsg24
Nsg11
Nsg27
I00
sg2682
Nsg28
I00
sg29
(dp4583
sg2684
Nsg31
I00
sg2686
I00
sg2168
Nsg2687
Nsg2688
F0.5
sg2689
g2690
sg2691
Nsg2299
g2300
sg2692
g0
(g2693
g2
Ntp4584
Rp4585
(dp4586
g2692
I0
sg2698
Nsg2699
F1.0
sg83
g0
(g104
g2
Ntp4587
Rp4588
(dp4589
g48
I2
sg49
Nsg88
g89
(g90
(I0
tp4590
g92
tp4591
Rp4592
(I1
(I3
I3
tp4593
g99
I00
S'\x00\x00\x00\x00\x00\x00\xf0\xbf\x00\x00\x00\x00\x00\x00\x00\x00\x00\x00\x00\x00\x00\x00\x00\x00\x00\x00\x00\x00\x00\x00\x00\x00\x00\x00\x00\x00\x00\x00\xf0?\x00\x00\x00\x00\x00\x00\x00\x00\x00\x00\x00\x00\x00\x00\x00\x00\x00\x00\x00\x00\x00\x00\x00\x00\x00\x00\x00\x00\x00\x00\xf0?'
p4594
tp4595
bsg50
g7
sg51
(dp4596
sbsg2710
I00
sg2711
g2712
sg2713
Nsg2165
g2714
sg74
g2812
sg2716
g4124
sbsg32
Nsg2732
g2733
sg69
I01
sg2734
g2735
sg72
Nsg2736
F4.0
sg65
I01
sg2737
Nsg76
g4194
sg2745
g4195
sg79
I0
sg2759
g2760
sg2761
I0
sg2685
I5
sg80
I01
sg82
Nsg2762
g2668
sg2763
I01
sg83
g718
sg2765
I01
sg2584
F2.01
sg42
Nsg2167
Nsg2766
(g4509
tp4597
sg67
Nsg66
F1.0
sg33
Nsg2716
Nsbsg83
Nsg3257
g3066
sg3258
g4197
sg42
Nsg2299
g2300
sg33
Nsbag0
(g4075
g2
Ntp4598
Rp4599
(dp4600
g6
g7
sg39
F0.5
sg9
g4
sg3119
I01
sg8
I01
sg10
Nsg79
I0
sg41
Nsg3120
F4.0
sg3121
g2300
sg3122
I00
sg2254
F4.0
sg17
g18
sg3123
g3124
sg3075
g0
(g2237
g2
Ntp4601
Rp4602
(dp4603
g6
g7
sg8
I01
sg9
g4
sg10
Nsg2241
g0
(g2242
g2
Ntp4604
Rp4605
(dp4606
g2246
g4085
sg2249
Nsg2250
g2251
sg2252
g2251
sg2254
F15.0
sg2255
I400
sg2256
g2251
sbsg41
Nsg17
g18
sg2257
Nsg20
I01
sg23
Nsg55
g3067
(g99
S'\x00\x00\x00\x00\x00\x00;@'
p4607
tp4608
Rp4609
sg56
I0
sg24
Nsg11
Nsg27
I00
sg28
I00
sg29
(dp4610
sg2259
Nsg31
I00
sg2168
Nsg67
Nsg2167
Nsg2260
Nsg32
Nsg72
Nsg65
I01
sg2261
g4090
sg2263
V$27$
p4611
sg2265
Nsg57
Nsg79
I0
sg2295
Nsg80
I01
sg82
Nsg2296
F1.2
sg83
g768
sg2297
Nsg2298
I00
sg42
Nsg2299
g2300
sg2301
g4092
sg33
Nsbsg20
I01
sg23
Nsg3139
I00
sg24
Nsg11
Nsg3140
I01
sg27
I00
sg28
I00
sg29
(dp4612
sg3142
(I1
I0
tp4613
sg31
I00
sg3144
F2.01
sg2168
g2222
sg3145
I01
sg67
Nsg2167
Nsg3146
g4602
sg3147
g0
(g2237
g2
Ntp4614
Rp4615
(dp4616
g6
g7
sg8
I01
sg9
g4
sg10
Nsg2241
g0
(g2242
g2
Ntp4617
Rp4618
(dp4619
g2246
g4101
sg2249
Nsg2250
g2251
sg2252
g2251
sg2254
g3066
sg2255
I400
sg2256
g2251
sbsg41
Nsg17
g18
sg2257
Nsg20
I01
sg23
Nsg55
I0
sg56
I1
sg24
Nsg11
Nsg27
I00
sg28
I00
sg29
(dp4620
sg2259
Nsg31
I00
sg2168
Nsg67
Nsg2167
Nsg2260
Nsg32
Nsg72
Nsg65
I01
sg2261
g4103
sg2263
V$27$
p4621
sg2265
Nsg57
Nsg79
I0
sg2295
Nsg80
I01
sg82
Nsg2296
F1.2
sg83
g759
sg2297
Nsg2298
I00
sg42
Nsg2299
g2300
sg2301
g4105
sg33
Nsbsg72
Nsg3159
g4609
sg65
I01
sg57
Nsg3160
F4.0
sg3161
g0
(g2658
g2
Ntp4622
Rp4623
(dp4624
g6
g7
sg8
I01
sg2663
g2664
sg9
g4
sg2665
g2666
sg2341
Nsg10
Nsg41
Nsg17
g18
sg2667
g2668
sg20
I01
sg2669
Nsg23
Nsg55
Nsg56
Nsg57
Nsg24
Nsg11
Nsg27
I00
sg2682
Nsg28
I00
sg29
(dp4625
sg2684
Nsg31
I00
sg2686
I00
sg2168
Nsg2687
Nsg2688
F0.5
sg2689
g2690
sg2691
Nsg2299
g2300
sg2692
g0
(g2693
g2
Ntp4626
Rp4627
(dp4628
g2692
I1
sg2698
Nsg2699
F1.0
sg83
g0
(g104
g2
Ntp4629
Rp4630
(dp4631
g48
I2
sg49
Nsg88
g89
(g90
(I0
tp4632
g92
tp4633
Rp4634
(I1
(I3
I3
tp4635
g99
I00
S'\x00\x00\x00\x00\x00\x00\xf0?\x00\x00\x00\x00\x00\x00\x00\x00\x00\x00\x00\x00\x00\x00\x00\x00\x00\x00\x00\x00\x00\x00\x00\x00\x00\x00\x00\x00\x00\x00\xf0?\x00\x00\x00\x00\x00\x00\x00\x00\x00\x00\x00\x00\x00\x00\x00\x00\x00\x00\x00\x00\x00\x00\x00\x00\x00\x00\x00\x00\x00\x00\xf0?'
p4636
tp4637
bsg50
g7
sg51
(dp4638
sbsg2710
I00
sg2711
g2712
sg2713
Nsg2165
g2714
sg74
g2812
sg2716
g4124
sbsg32
Nsg2732
g2733
sg69
I01
sg2734
g2735
sg72
Nsg2736
F4.0
sg65
I01
sg2737
Nsg76
g4132
sg2745
g4133
sg79
I0
sg2759
g2760
sg2761
I0
sg2685
I5
sg80
I01
sg82
Nsg2762
g2668
sg2763
I01
sg83
g718
sg2765
I01
sg2584
F2.01
sg42
Nsg2167
Nsg2766
(g4609
tp4639
sg67
Nsg66
F1.0
sg33
Nsg2716
Nsbsg80
I00
sg3191
g0
(g2658
g2
Ntp4640
Rp4641
(dp4642
g6
g7
sg8
I01
sg2663
g2664
sg9
g4
sg2665
g2666
sg2341
Nsg10
Nsg41
Nsg17
g18
sg2667
g2668
sg20
I01
sg2669
Nsg23
Nsg55
g89
(g90
(I0
tp4643
g92
tp4644
Rp4645
(I1
(I2
tp4646
g99
I00
S'\x00\x00\x00\x00\x00\x00\x00\x00\x00\x00\x00\x00\x00\x00\x00\x00'
p4647
tp4648
bsg56
g89
(g90
(I0
tp4649
g92
tp4650
Rp4651
(I1
(I2
tp4652
g99
I00
S'\x00\x00\x00\x00\x00\x00\x00\x00\x00\x00\x00\x00\x00\x00\xf0?'
p4653
tp4654
bsg57
Nsg24
Nsg11
Nsg27
I00
sg2682
Nsg28
I00
sg29
(dp4655
sg2684
Nsg31
I00
sg2686
I00
sg2168
Nsg2687
Nsg2688
F0.5
sg2689
g2690
sg2691
Nsg2299
g2300
sg2692
g0
(g2693
g2
Ntp4656
Rp4657
(dp4658
g2692
g3211
sg2698
Nsg2699
Nsg83
g0
(g44
g2
Ntp4659
Rp4660
(dp4661
g48
I1
sg49
Nsg50
g7
sg51
(dp4662
sbsg2710
I00
sg2711
g2712
sg2713
Nsg2165
g2714
sg74
g2812
sg2716
g0
(g2358
g2
Ntp4663
Rp4664
(dp4665
g2362
I00
sg2363
Nsg2364
g89
(g90
(I0
tp4666
g92
tp4667
Rp4668
(I1
(I0
I2
tp4669
g99
I00
g2509
tp4670
bsg2371
I00
sg2372
F0.1111111111111111
sg2373
I1
sg2374
I00
sbsbsg32
Nsg2732
g2733
sg69
I01
sg2734
g2735
sg72
Nsg2736
F0.0
sg65
I01
sg2737
g89
(g90
(I0
tp4671
g92
tp4672
Rp4673
(I1
(I2
I2
tp4674
g99
I00
S'\x00\x00\x00\x00\x00\x00\x00\x00\x00\x00\x00\x00\x00\x00\x00\x00\x00\x00\x00\x00\x00\x00\xf0?\x00\x00\x00\x00\x00\x00\x00\x00'
p4675
tp4676
bsg76
g3230
sg2745
g4172
sg79
I0
sg2759
g2760
sg2761
I0
sg2685
I5
sg80
I01
sg82
F1.0
sg2762
g2668
sg2763
I00
sg83
g718
sg2765
I00
sg42
Nsg2167
Nsg2766
g4173
sg67
g2057
sg66
F0.5
sg33
Nsg2716
g0
(g2358
g2
Ntp4677
Rp4678
(dp4679
g2362
I00
sg2363
Nsg2364
g4673
sg2371
I00
sg2372
F0.1111111111111111
sg2373
I180
sg2374
I00
sbsbsg82
Nsg32
Nsg3236
g0
(g2658
g2
Ntp4680
Rp4681
(dp4682
g6
g7
sg8
I01
sg2663
g2664
sg9
g4
sg2665
g2666
sg2341
Nsg10
Nsg41
Nsg17
g18
sg2667
g2668
sg20
I01
sg2669
Nsg23
Nsg55
Nsg56
Nsg57
Nsg24
Nsg11
Nsg27
I00
sg2682
Nsg28
I00
sg29
(dp4683
sg2684
Nsg31
I00
sg2686
I00
sg2168
Nsg2687
Nsg2688
F0.5
sg2689
g2690
sg2691
Nsg2299
g2300
sg2692
g0
(g2693
g2
Ntp4684
Rp4685
(dp4686
g2692
I0
sg2698
Nsg2699
F1.0
sg83
g0
(g104
g2
Ntp4687
Rp4688
(dp4689
g48
I2
sg49
Nsg88
g89
(g90
(I0
tp4690
g92
tp4691
Rp4692
(I1
(I3
I3
tp4693
g99
I00
S'\x00\x00\x00\x00\x00\x00\xf0\xbf\x00\x00\x00\x00\x00\x00\x00\x00\x00\x00\x00\x00\x00\x00\x00\x00\x00\x00\x00\x00\x00\x00\x00\x00\x00\x00\x00\x00\x00\x00\xf0?\x00\x00\x00\x00\x00\x00\x00\x00\x00\x00\x00\x00\x00\x00\x00\x00\x00\x00\x00\x00\x00\x00\x00\x00\x00\x00\x00\x00\x00\x00\xf0?'
p4694
tp4695
bsg50
g7
sg51
(dp4696
sbsg2710
I00
sg2711
g2712
sg2713
Nsg2165
g2714
sg74
g2812
sg2716
g4124
sbsg32
Nsg2732
g2733
sg69
I01
sg2734
g2735
sg72
Nsg2736
F4.0
sg65
I01
sg2737
Nsg76
g4194
sg2745
g4195
sg79
I0
sg2759
g2760
sg2761
I0
sg2685
I5
sg80
I01
sg82
Nsg2762
g2668
sg2763
I01
sg83
g718
sg2765
I01
sg2584
F2.01
sg42
Nsg2167
Nsg2766
(g4609
tp4697
sg67
Nsg66
F1.0
sg33
Nsg2716
Nsbsg83
Nsg3257
g3066
sg3258
g4197
sg42
Nsg2299
g2300
sg33
Nsbasg3760
I01
sg2175
g0
(g2176
g2
Ntp4698
Rp4699
sg72
Nsg65
I01
sg3763
I01
sg57
Nsg79
I0
sg3764
I6
sg3765
Nsg80
I00
sg82
Nsg3766
g4045
sg83
Nsg3768
Vleft
p4700
sg42
Nsg2167
Nsg2685
I15
sg3770
(lp4701
g0
(g4075
g2
Ntp4702
Rp4703
(dp4704
g6
g7
sg39
F0.5
sg9
g4
sg3119
I01
sg8
I01
sg10
Nsg79
I0
sg41
Nsg3120
F4.0
sg3121
g2300
sg3122
I00
sg2254
F2.0
sg17
g18
sg3123
g3124
sg3075
g0
(g2237
g2
Ntp4705
Rp4706
(dp4707
g6
g7
sg8
I01
sg9
g4
sg10
Nsg2241
g0
(g2242
g2
Ntp4708
Rp4709
(dp4710
g2246
(lp4711
g2248
asg2249
Nsg2250
g2251
sg2252
g2251
sg2254
g3066
sg2255
I400
sg2256
g2251
sbsg41
Nsg17
g18
sg2257
Nsg20
I01
sg23
Nsg55
I0
sg56
I0
sg24
Nsg11
Nsg27
I00
sg28
I00
sg29
(dp4712
sg2259
Nsg31
I00
sg2168
Nsg67
Nsg2167
Nsg2260
Nsg32
Nsg72
Nsg65
I01
sg2261
g4090
sg2263
V
p4713
sg2265
Nsg57
Nsg79
I0
sg2295
Nsg80
I01
sg82
Nsg2296
F1.2
sg83
g783
sg2297
Nsg2298
I00
sg42
Nsg2299
g2300
sg2301
g4092
sg33
Nsbsg20
I01
sg23
Nsg3139
I00
sg24
Nsg11
Nsg3140
I01
sg27
I00
sg28
I00
sg29
(dp4714
sg3142
(I1
I0
tp4715
sg31
I00
sg3144
I2
sg2168
g2222
sg3145
I01
sg67
g572
sg2167
Nsg3146
g4706
sg3147
g0
(g2237
g2
Ntp4716
Rp4717
(dp4718
g6
g7
sg8
I01
sg9
g4
sg10
Nsg2241
g0
(g2242
g2
Ntp4719
Rp4720
(dp4721
g2246
(lp4722
g2248
asg2249
Nsg2250
g2251
sg2252
g2251
sg2254
g3066
sg2255
I400
sg2256
g2251
sbsg41
Nsg17
g18
sg2257
Nsg20
I01
sg23
Nsg55
I0
sg56
I1
sg24
Nsg11
Nsg27
I00
sg28
I00
sg29
(dp4723
sg2259
Nsg31
I00
sg2168
Nsg67
Nsg2167
Nsg2260
Nsg32
Nsg72
Nsg65
I01
sg2261
g4103
sg2263
V
p4724
sg2265
Nsg57
Nsg79
I0
sg2295
Nsg80
I01
sg82
Nsg2296
F1.2
sg83
g732
sg2297
Nsg2298
I00
sg42
Nsg2299
g2300
sg2301
g4105
sg33
Nsbsg72
Nsg3159
I0
sg65
I01
sg57
Nsg3160
F4.0
sg3161
g0
(g2658
g2
Ntp4725
Rp4726
(dp4727
g6
g7
sg8
I01
sg2663
g2664
sg9
g4
sg2665
g2666
sg2341
Nsg10
Nsg41
Nsg17
g18
sg2667
g2668
sg20
I01
sg2669
Nsg23
Nsg55
Nsg56
Nsg57
Nsg24
Nsg11
Nsg27
I00
sg2682
Nsg28
I00
sg29
(dp4728
sg2684
Nsg31
I00
sg2686
I00
sg2168
Nsg2687
Nsg2688
F0.5
sg2689
g2690
sg2691
Nsg2299
g2300
sg2692
g0
(g2693
g2
Ntp4729
Rp4730
(dp4731
g2692
I1
sg2698
Nsg2699
F1.0
sg83
g0
(g104
g2
Ntp4732
Rp4733
(dp4734
g48
I2
sg49
Nsg88
g89
(g90
(I0
tp4735
g92
tp4736
Rp4737
(I1
(I3
I3
tp4738
g99
I00
S'\x00\x00\x00\x00\x00\x00\xf0?\x00\x00\x00\x00\x00\x00\x00\x00\x00\x00\x00\x00\x00\x00\x00\x00\x00\x00\x00\x00\x00\x00\x00\x00\x00\x00\x00\x00\x00\x00\xf0?\x00\x00\x00\x00\x00\x00\x00\x00\x00\x00\x00\x00\x00\x00\x00\x00\x00\x00\x00\x00\x00\x00\x00\x00\x00\x00\x00\x00\x00\x00\xf0?'
p4739
tp4740
bsg50
g7
sg51
(dp4741
sbsg2710
I00
sg2711
g2712
sg2713
Nsg2165
g2714
sg74
g2812
sg2716
g4124
sbsg32
Nsg2732
g2733
sg69
I01
sg2734
g2735
sg72
Nsg2736
F2.0
sg65
I01
sg2737
Nsg76
g4132
sg2745
g4133
sg79
I0
sg2759
g2760
sg2761
I0
sg2685
I5
sg80
I01
sg82
Nsg2762
g2668
sg2763
I01
sg83
g718
sg2765
I01
sg2584
I2
sg42
Nsg2167
Nsg2766
(I0
tp4742
sg67
Nsg66
F1.0
sg33
Nsg2716
Nsbsg80
I00
sg3191
g0
(g2658
g2
Ntp4743
Rp4744
(dp4745
g6
g7
sg8
I01
sg2663
g2664
sg9
g4
sg2665
g2666
sg2341
Nsg10
Nsg41
Nsg17
g18
sg2667
g2668
sg20
I01
sg2669
Nsg23
Nsg55
g89
(g90
(I0
tp4746
g92
tp4747
Rp4748
(I1
(I2
tp4749
g99
I00
S'\x00\x00\x00\x00\x00\x00\x00\x00\x00\x00\x00\x00\x00\x00\x00\x00'
p4750
tp4751
bsg56
g89
(g90
(I0
tp4752
g92
tp4753
Rp4754
(I1
(I2
tp4755
g99
I00
S'\x00\x00\x00\x00\x00\x00\x00\x00\x00\x00\x00\x00\x00\x00\xf0?'
p4756
tp4757
bsg57
Nsg24
Nsg11
Nsg27
I00
sg2682
Nsg28
I00
sg29
(dp4758
sg2684
Nsg31
I00
sg2686
I00
sg2168
Nsg2687
Nsg2688
F0.5
sg2689
g2690
sg2691
Nsg2299
g2300
sg2692
g0
(g2693
g2
Ntp4759
Rp4760
(dp4761
g2692
g3211
sg2698
Nsg2699
Nsg83
g0
(g44
g2
Ntp4762
Rp4763
(dp4764
g48
I1
sg49
Nsg50
g7
sg51
(dp4765
sbsg2710
I00
sg2711
g2712
sg2713
Nsg2165
g2714
sg74
g2812
sg2716
g0
(g2358
g2
Ntp4766
Rp4767
(dp4768
g2362
I00
sg2363
Nsg2364
g89
(g90
(I0
tp4769
g92
tp4770
Rp4771
(I1
(I0
I2
tp4772
g99
I00
g2509
tp4773
bsg2371
I00
sg2372
F0.1111111111111111
sg2373
I1
sg2374
I00
sbsbsg32
Nsg2732
g2733
sg69
I01
sg2734
g2735
sg72
Nsg2736
F0.0
sg65
I01
sg2737
g89
(g90
(I0
tp4774
g92
tp4775
Rp4776
(I1
(I2
I2
tp4777
g99
I00
S'\x00\x00\x00\x00\x00\x00\x00\x00\x00\x00\x00\x00\x00\x00\x00\x00\x00\x00\x00\x00\x00\x00\xf0?\x00\x00\x00\x00\x00\x00\x00\x00'
p4778
tp4779
bsg76
g3230
sg2745
g4172
sg79
I0
sg2759
g2760
sg2761
I0
sg2685
I5
sg80
I01
sg82
F1.0
sg2762
g2668
sg2763
I00
sg83
g718
sg2765
I00
sg42
Nsg2167
Nsg2766
g4173
sg67
g1637
sg66
F0.5
sg33
Nsg2716
g0
(g2358
g2
Ntp4780
Rp4781
(dp4782
g2362
I00
sg2363
Nsg2364
g4776
sg2371
I00
sg2372
F0.1111111111111111
sg2373
I180
sg2374
I00
sbsbsg82
Nsg32
Nsg3236
g0
(g2658
g2
Ntp4783
Rp4784
(dp4785
g6
g7
sg8
I01
sg2663
g2664
sg9
g4
sg2665
g2666
sg2341
Nsg10
Nsg41
Nsg17
g18
sg2667
g2668
sg20
I01
sg2669
Nsg23
Nsg55
Nsg56
Nsg57
Nsg24
Nsg11
Nsg27
I00
sg2682
Nsg28
I00
sg29
(dp4786
sg2684
Nsg31
I00
sg2686
I00
sg2168
Nsg2687
Nsg2688
F0.5
sg2689
g2690
sg2691
Nsg2299
g2300
sg2692
g0
(g2693
g2
Ntp4787
Rp4788
(dp4789
g2692
I0
sg2698
Nsg2699
F1.0
sg83
g0
(g104
g2
Ntp4790
Rp4791
(dp4792
g48
I2
sg49
Nsg88
g89
(g90
(I0
tp4793
g92
tp4794
Rp4795
(I1
(I3
I3
tp4796
g99
I00
S'\x00\x00\x00\x00\x00\x00\xf0\xbf\x00\x00\x00\x00\x00\x00\x00\x00\x00\x00\x00\x00\x00\x00\x00\x00\x00\x00\x00\x00\x00\x00\x00\x00\x00\x00\x00\x00\x00\x00\xf0?\x00\x00\x00\x00\x00\x00\x00\x00\x00\x00\x00\x00\x00\x00\x00\x00\x00\x00\x00\x00\x00\x00\x00\x00\x00\x00\x00\x00\x00\x00\xf0?'
p4797
tp4798
bsg50
g7
sg51
(dp4799
sbsg2710
I00
sg2711
g2712
sg2713
Nsg2165
g2714
sg74
g2812
sg2716
g4124
sbsg32
Nsg2732
g2733
sg69
I01
sg2734
g2735
sg72
Nsg2736
F2.0
sg65
I01
sg2737
Nsg76
g4194
sg2745
g4195
sg79
I0
sg2759
g2760
sg2761
I0
sg2685
I5
sg80
I01
sg82
Nsg2762
g2668
sg2763
I01
sg83
g718
sg2765
I01
sg2584
I2
sg42
Nsg2167
Nsg2766
(I0
tp4800
sg67
Nsg66
F1.0
sg33
Nsg2716
Nsbsg83
Nsg3257
g3066
sg3258
g4197
sg42
Nsg2299
g2300
sg33
Nsbag0
(g4075
g2
Ntp4801
Rp4802
(dp4803
g6
g7
sg39
F0.5
sg9
g4
sg3119
I01
sg8
I01
sg10
Nsg79
I0
sg41
Nsg3120
F4.0
sg3121
g2300
sg3122
I00
sg2254
F2.0
sg17
g18
sg3123
g3124
sg3075
g0
(g2237
g2
Ntp4804
Rp4805
(dp4806
g6
g7
sg8
I01
sg9
g4
sg10
Nsg2241
g0
(g2242
g2
Ntp4807
Rp4808
(dp4809
g2246
(lp4810
g2248
asg2249
Nsg2250
g2251
sg2252
g2251
sg2254
g3066
sg2255
I400
sg2256
g2251
sbsg41
Nsg17
g18
sg2257
Nsg20
I01
sg23
Nsg55
I0
sg56
I0
sg24
Nsg11
Nsg27
I00
sg28
I00
sg29
(dp4811
sg2259
Nsg31
I00
sg2168
Nsg67
Nsg2167
Nsg2260
Nsg32
Nsg72
Nsg65
I01
sg2261
g4090
sg2263
V
p4812
sg2265
Nsg57
Nsg79
I0
sg2295
Nsg80
I01
sg82
Nsg2296
F1.2
sg83
g741
sg2297
Nsg2298
I00
sg42
Nsg2299
g2300
sg2301
g4092
sg33
Nsbsg20
I01
sg23
Nsg3139
I00
sg24
Nsg11
Nsg3140
I01
sg27
I00
sg28
I00
sg29
(dp4813
sg3142
(I1
I0
tp4814
sg31
I00
sg3144
I2
sg2168
g2222
sg3145
I01
sg67
g1185
sg2167
Nsg3146
g4805
sg3147
g0
(g2237
g2
Ntp4815
Rp4816
(dp4817
g6
g7
sg8
I01
sg9
g4
sg10
Nsg2241
g0
(g2242
g2
Ntp4818
Rp4819
(dp4820
g2246
(lp4821
g2248
asg2249
Nsg2250
g2251
sg2252
g2251
sg2254
g3066
sg2255
I400
sg2256
g2251
sbsg41
Nsg17
g18
sg2257
Nsg20
I01
sg23
Nsg55
I0
sg56
I1
sg24
Nsg11
Nsg27
I00
sg28
I00
sg29
(dp4822
sg2259
Nsg31
I00
sg2168
Nsg67
Nsg2167
Nsg2260
Nsg32
Nsg72
Nsg65
I01
sg2261
g4103
sg2263
V
p4823
sg2265
Nsg57
Nsg79
I0
sg2295
Nsg80
I01
sg82
Nsg2296
F1.2
sg83
g750
sg2297
Nsg2298
I00
sg42
Nsg2299
g2300
sg2301
g4105
sg33
Nsbsg72
Nsg3159
I0
sg65
I01
sg57
Nsg3160
F4.0
sg3161
g0
(g2658
g2
Ntp4824
Rp4825
(dp4826
g6
g7
sg8
I01
sg2663
g2664
sg9
g4
sg2665
g2666
sg2341
Nsg10
Nsg41
Nsg17
g18
sg2667
g2668
sg20
I01
sg2669
Nsg23
Nsg55
Nsg56
Nsg57
Nsg24
Nsg11
Nsg27
I00
sg2682
Nsg28
I00
sg29
(dp4827
sg2684
Nsg31
I00
sg2686
I00
sg2168
Nsg2687
Nsg2688
F0.5
sg2689
g2690
sg2691
Nsg2299
g2300
sg2692
g0
(g2693
g2
Ntp4828
Rp4829
(dp4830
g2692
I1
sg2698
Nsg2699
F1.0
sg83
g0
(g104
g2
Ntp4831
Rp4832
(dp4833
g48
I2
sg49
Nsg88
g89
(g90
(I0
tp4834
g92
tp4835
Rp4836
(I1
(I3
I3
tp4837
g99
I00
S'\x00\x00\x00\x00\x00\x00\xf0?\x00\x00\x00\x00\x00\x00\x00\x00\x00\x00\x00\x00\x00\x00\x00\x00\x00\x00\x00\x00\x00\x00\x00\x00\x00\x00\x00\x00\x00\x00\xf0?\x00\x00\x00\x00\x00\x00\x00\x00\x00\x00\x00\x00\x00\x00\x00\x00\x00\x00\x00\x00\x00\x00\x00\x00\x00\x00\x00\x00\x00\x00\xf0?'
p4838
tp4839
bsg50
g7
sg51
(dp4840
sbsg2710
I00
sg2711
g2712
sg2713
Nsg2165
g2714
sg74
g2812
sg2716
g4124
sbsg32
Nsg2732
g2733
sg69
I01
sg2734
g2735
sg72
Nsg2736
F2.0
sg65
I01
sg2737
Nsg76
g4132
sg2745
g4133
sg79
I0
sg2759
g2760
sg2761
I0
sg2685
I5
sg80
I01
sg82
Nsg2762
g2668
sg2763
I01
sg83
g718
sg2765
I01
sg2584
I2
sg42
Nsg2167
Nsg2766
(I0
tp4841
sg67
Nsg66
F1.0
sg33
Nsg2716
Nsbsg80
I00
sg3191
g0
(g2658
g2
Ntp4842
Rp4843
(dp4844
g6
g7
sg8
I01
sg2663
g2664
sg9
g4
sg2665
g2666
sg2341
Nsg10
Nsg41
Nsg17
g18
sg2667
g2668
sg20
I01
sg2669
Nsg23
Nsg55
g89
(g90
(I0
tp4845
g92
tp4846
Rp4847
(I1
(I2
tp4848
g99
I00
S'\x00\x00\x00\x00\x00\x00\x00\x00\x00\x00\x00\x00\x00\x00\x00\x00'
p4849
tp4850
bsg56
g89
(g90
(I0
tp4851
g92
tp4852
Rp4853
(I1
(I2
tp4854
g99
I00
S'\x00\x00\x00\x00\x00\x00\x00\x00\x00\x00\x00\x00\x00\x00\xf0?'
p4855
tp4856
bsg57
Nsg24
Nsg11
Nsg27
I00
sg2682
Nsg28
I00
sg29
(dp4857
sg2684
Nsg31
I00
sg2686
I00
sg2168
Nsg2687
Nsg2688
F0.5
sg2689
g2690
sg2691
Nsg2299
g2300
sg2692
g0
(g2693
g2
Ntp4858
Rp4859
(dp4860
g2692
g3211
sg2698
Nsg2699
Nsg83
g0
(g44
g2
Ntp4861
Rp4862
(dp4863
g48
I1
sg49
Nsg50
g7
sg51
(dp4864
sbsg2710
I00
sg2711
g2712
sg2713
Nsg2165
g2714
sg74
g2812
sg2716
g0
(g2358
g2
Ntp4865
Rp4866
(dp4867
g2362
I00
sg2363
Nsg2364
g89
(g90
(I0
tp4868
g92
tp4869
Rp4870
(I1
(I0
I2
tp4871
g99
I00
g2509
tp4872
bsg2371
I00
sg2372
F0.1111111111111111
sg2373
I1
sg2374
I00
sbsbsg32
Nsg2732
g2733
sg69
I01
sg2734
g2735
sg72
Nsg2736
F0.0
sg65
I01
sg2737
g89
(g90
(I0
tp4873
g92
tp4874
Rp4875
(I1
(I2
I2
tp4876
g99
I00
S'\x00\x00\x00\x00\x00\x00\x00\x00\x00\x00\x00\x00\x00\x00\x00\x00\x00\x00\x00\x00\x00\x00\xf0?\x00\x00\x00\x00\x00\x00\x00\x00'
p4877
tp4878
bsg76
g3230
sg2745
g4172
sg79
I0
sg2759
g2760
sg2761
I0
sg2685
I5
sg80
I01
sg82
F1.0
sg2762
g2668
sg2763
I00
sg83
g718
sg2765
I00
sg42
Nsg2167
Nsg2766
g4173
sg67
g1269
sg66
F0.5
sg33
Nsg2716
g0
(g2358
g2
Ntp4879
Rp4880
(dp4881
g2362
I00
sg2363
Nsg2364
g4875
sg2371
I00
sg2372
F0.1111111111111111
sg2373
I180
sg2374
I00
sbsbsg82
Nsg32
Nsg3236
g0
(g2658
g2
Ntp4882
Rp4883
(dp4884
g6
g7
sg8
I01
sg2663
g2664
sg9
g4
sg2665
g2666
sg2341
Nsg10
Nsg41
Nsg17
g18
sg2667
g2668
sg20
I01
sg2669
Nsg23
Nsg55
Nsg56
Nsg57
Nsg24
Nsg11
Nsg27
I00
sg2682
Nsg28
I00
sg29
(dp4885
sg2684
Nsg31
I00
sg2686
I00
sg2168
Nsg2687
Nsg2688
F0.5
sg2689
g2690
sg2691
Nsg2299
g2300
sg2692
g0
(g2693
g2
Ntp4886
Rp4887
(dp4888
g2692
I0
sg2698
Nsg2699
F1.0
sg83
g0
(g104
g2
Ntp4889
Rp4890
(dp4891
g48
I2
sg49
Nsg88
g89
(g90
(I0
tp4892
g92
tp4893
Rp4894
(I1
(I3
I3
tp4895
g99
I00
S'\x00\x00\x00\x00\x00\x00\xf0\xbf\x00\x00\x00\x00\x00\x00\x00\x00\x00\x00\x00\x00\x00\x00\x00\x00\x00\x00\x00\x00\x00\x00\x00\x00\x00\x00\x00\x00\x00\x00\xf0?\x00\x00\x00\x00\x00\x00\x00\x00\x00\x00\x00\x00\x00\x00\x00\x00\x00\x00\x00\x00\x00\x00\x00\x00\x00\x00\x00\x00\x00\x00\xf0?'
p4896
tp4897
bsg50
g7
sg51
(dp4898
sbsg2710
I00
sg2711
g2712
sg2713
Nsg2165
g2714
sg74
g2812
sg2716
g4124
sbsg32
Nsg2732
g2733
sg69
I01
sg2734
g2735
sg72
Nsg2736
F2.0
sg65
I01
sg2737
Nsg76
g4194
sg2745
g4195
sg79
I0
sg2759
g2760
sg2761
I0
sg2685
I5
sg80
I01
sg82
Nsg2762
g2668
sg2763
I01
sg83
g718
sg2765
I01
sg2584
I2
sg42
Nsg2167
Nsg2766
(I0
tp4899
sg67
Nsg66
F1.0
sg33
Nsg2716
Nsbsg83
Nsg3257
g3066
sg3258
g4197
sg42
Nsg2299
g2300
sg33
Nsbasg33
Nsg3970
(dp4900
sg3972
I01
sbsS'_axisbelow'
p4901
I00
sg8
I01
sg2902
(lp4902
g2782
ag2845
ag2660
ag0
(g2658
g2
Ntp4903
Rp4904
(dp4905
g6
V_line3
p4906
sg8
I01
sg2663
g2664
sg9
g4
sg2665
g2666
sg2341
Nsg10
Nsg41
Nsg17
g18
sg2667
g2668
sg20
I01
sg2669
Nsg23
Nsg55
g89
(g90
(I0
tp4907
g92
tp4908
Rp4909
(I1
(I3
tp4910
g99
I00
S'\x00\x00\x00\x00\x00\x00.@\x00\x00\x00\x00\x00\x007@\x00\x00\x00\x00\x00\x00<@'
p4911
tp4912
bsg56
g89
(g90
(I0
tp4913
g92
tp4914
Rp4915
(I1
(I3
tp4916
g99
I00
S'\x00\x00\x00\x00\x00\x00.@\x00\x00\x00\x00\x00\x007@\x00\x00\x00\x00\x00\x00<@'
p4917
tp4918
bsg57
Nsg24
Nsg11
Nsg27
I00
sg2682
Nsg28
I00
sg29
(dp4919
sg2684
Nsg2685
I5
sg31
I00
sg2686
I00
sg2168
g2222
sg2687
Nsg2688
F0.5
sg2689
g2690
sg2691
Nsg2299
V.3
p4920
sg2692
g0
(g2693
g2
Ntp4921
Rp4922
(dp4923
g2692
g3211
sg2698
Nsg2699
Nsg83
g0
(g44
g2
Ntp4924
Rp4925
(dp4926
g48
I1
sg49
Nsg50
g7
sg51
(dp4927
sbsg2710
I00
sg2711
g2712
sg2713
Nsg2165
g2714
sg74
g2812
sg2716
g0
(g2358
g2
Ntp4928
Rp4929
(dp4930
g2362
I00
sg2363
Nsg2364
g89
(g90
(I0
tp4931
g92
tp4932
Rp4933
(I1
(I0
I2
tp4934
g99
I00
g2509
tp4935
bsg2371
I00
sg2372
F0.1111111111111111
sg2373
I1
sg2374
I00
sbsbsg32
Nsg2732
g2733
sg69
I01
sg2734
g2735
sg72
Nsg2736
F6.0
sg65
I01
sg2737
g89
(g90
(I0
tp4936
g92
tp4937
Rp4938
(I1
(I3
I2
tp4939
g99
I00
S'\x00\x00\x00\x00\x00\x00.@\x00\x00\x00\x00\x00\x00.@\x00\x00\x00\x00\x00\x007@\x00\x00\x00\x00\x00\x007@\x00\x00\x00\x00\x00\x00<@\x00\x00\x00\x00\x00\x00<@'
p4940
tp4941
bsg76
V--
p4942
sg2745
g89
(g90
(I0
tp4943
g92
tp4944
Rp4945
(I1
(I3
tp4946
g96
(S'i8'
p4947
I0
I1
tp4948
Rp4949
(I3
S'<'
p4950
NNNI-1
I-1
I0
tp4951
bI00
S'\x0f\x00\x00\x00\x00\x00\x00\x00\x17\x00\x00\x00\x00\x00\x00\x00\x1c\x00\x00\x00\x00\x00\x00\x00'
p4952
tp4953
bsg79
I0
sg2759
g2760
sg2761
I0
sg2233
I5
sg80
I01
sg82
Nsg2762
g2668
sg2763
I00
sg83
g638
sg2764
I5
sg2765
I00
sg42
Nsg2167
Nsg2766
g89
(g90
(I0
tp4954
g92
tp4955
Rp4956
(I1
(I3
tp4957
g4949
I00
S'\x0f\x00\x00\x00\x00\x00\x00\x00\x17\x00\x00\x00\x00\x00\x00\x00\x1c\x00\x00\x00\x00\x00\x00\x00'
p4958
tp4959
bsg67
g961
sg66
F1.0
sg33
Nsg2716
g0
(g2358
g2
Ntp4960
Rp4961
(dp4962
g2362
I00
sg2363
Nsg2364
g4938
sg2371
I00
sg2372
F0.1111111111111111
sg2373
I1
sg2374
I00
sbsbasg2764
I1
sS'spines'
p4963
(dp4964
Vtop
p4965
g0
(cmatplotlib.spines
Spine
p4966
g2
Ntp4967
Rp4968
(dp4969
g6
g7
sg3057
I00
sg40
I01
sg9
g4
sS'_bounds'
p4970
Nsg8
I01
sg10
Nsg41
Nsg17
g18
sg42
Nsg20
I01
sg3028
g3009
sg43
g0
(g44
g2
Ntp4971
Rp4972
(dp4973
g48
I1
sg49
Nsg50
g7
sg51
(dp4974
sbsg53
(F0.0
F0.0
F0.0
F1.0
tp4975
sg23
Nsg57
Nsg24
Nsg11
Nsg27
I00
sg28
I00
sg29
(dp4976
sg2967
(Voutward
p4977
F0.0
tp4978
sg31
I00
sg64
Nsg65
I01
sg66
F1.0
sS'_patch_type'
p4979
Vline
p4980
sg32
Nsg69
I01
sg70
Vnone
p4981
sg72
Nsg73
g2950
sg74
g75
sS'_patch_transform'
p4982
g0
(g44
g2
Ntp4983
Rp4984
(dp4985
g48
I1
sg49
Nsg50
g7
sg51
(dp4986
sbsg76
g77
sg78
g2300
sg79
I0
sS'_spine_transform'
p4987
(Videntity
p4988
g0
(g44
g2
Ntp4989
Rp4990
(dp4991
g48
I1
sg49
Nsg50
g7
sg51
(dp4992
sbtp4993
sg80
I01
sg82
NsS'spine_type'
p4994
g4965
sg83
g643
sg67
Nsg2584
F2.5
sg2165
Vprojecting
p4995
sg2167
Nsg2168
g2222
sg33
Nsg2716
g0
(g2358
g2
Ntp4996
Rp4997
(dp4998
g2362
I00
sg2363
Nsg2364
g89
(g90
(I0
tp4999
g92
tp5000
Rp5001
(I1
(I2
I2
tp5002
g99
I00
S'\x00\x00\x00\x00\x00\x00*@\x00\x00\x00\x00\x00\x00\xf0?\x00\x00\x00\x00\x00\x00*@\x00\x00\x00\x00\x00\x00\xf0?'
p5003
tp5004
bsg2371
I00
sg2372
F0.1111111111111111
sg2373
I1
sg2374
I00
sbsbsVright
p5005
g0
(g4966
g2
Ntp5006
Rp5007
(dp5008
g6
g7
sg3057
I00
sg40
I01
sg9
g4
sg4970
Nsg8
I01
sg10
Nsg41
Nsg17
g18
sg42
Nsg20
I01
sg3028
g4011
sg43
g0
(g44
g2
Ntp5009
Rp5010
(dp5011
g48
I1
sg49
Nsg50
g7
sg51
(dp5012
sbsg53
(F0.0
F0.0
F0.0
F1.0
tp5013
sg23
Nsg57
Nsg24
Nsg11
Nsg27
I00
sg28
I00
sg29
(dp5014
sg2967
g4978
sg31
I00
sg64
Nsg65
I01
sg66
F1.0
sg4979
g4980
sg32
Nsg69
I01
sg70
g4981
sg72
Nsg73
g2950
sg74
g75
sg4982
g0
(g44
g2
Ntp5015
Rp5016
(dp5017
g48
I1
sg49
Nsg50
g7
sg51
(dp5018
sbsg76
g77
sg78
g2300
sg79
I0
sg4987
(g4988
g0
(g44
g2
Ntp5019
Rp5020
(dp5021
g48
I1
sg49
Nsg50
g7
sg51
(dp5022
sbtp5023
sg80
I01
sg82
Nsg4994
g5005
sg83
g718
sg67
Nsg2584
F2.5
sg2165
g4995
sg2167
Nsg2168
g2222
sg33
Nsg2716
g0
(g2358
g2
Ntp5024
Rp5025
(dp5026
g2362
I00
sg2363
Nsg2364
g89
(g90
(I0
tp5027
g92
tp5028
Rp5029
(I1
(I2
I2
tp5030
g99
I00
S'\x00\x00\x00\x00\x00\x00\xf0?\x00\x00\x00\x00\x00\x00*@\x00\x00\x00\x00\x00\x00\xf0?\x00\x00\x00\x00\x00\x00*@'
p5031
tp5032
bsg2371
I00
sg2372
F0.1111111111111111
sg2373
I1
sg2374
I00
sbsbsVbottom
p5033
g0
(g4966
g2
Ntp5034
Rp5035
(dp5036
g6
g7
sg3057
I00
sg40
I01
sg9
g4
sg4970
Nsg8
I01
sg10
Nsg41
Nsg17
g18
sg42
Nsg20
I01
sg3028
g3009
sg43
g0
(g44
g2
Ntp5037
Rp5038
(dp5039
g48
I1
sg49
Nsg50
g7
sg51
(dp5040
sbsg53
(F0.0
F0.0
F0.0
F1.0
tp5041
sg23
Nsg57
Nsg24
Nsg11
Nsg27
I00
sg28
I00
sg29
(dp5042
sg2967
g4978
sg31
I00
sg64
Nsg65
I01
sg66
F1.0
sg4979
g4980
sg32
Nsg69
I01
sg70
g4981
sg72
Nsg73
g2950
sg74
g75
sg4982
g0
(g44
g2
Ntp5043
Rp5044
(dp5045
g48
I1
sg49
Nsg50
g7
sg51
(dp5046
sbsg76
g77
sg78
g2300
sg79
I0
sg4987
(g4988
g0
(g44
g2
Ntp5047
Rp5048
(dp5049
g48
I1
sg49
Nsg50
g7
sg51
(dp5050
sbtp5051
sg80
I01
sg82
Nsg4994
g5033
sg83
g643
sg67
Nsg2584
F2.5
sg2165
g4995
sg2167
Nsg2168
g2222
sg33
Nsg2716
g0
(g2358
g2
Ntp5052
Rp5053
(dp5054
g2362
I00
sg2363
Nsg2364
g89
(g90
(I0
tp5055
g92
tp5056
Rp5057
(I1
(I2
I2
tp5058
g99
I00
S'\x00\x00\x00\x00\x00\x00*@\x00\x00\x00\x00\x00\x00\x00\x00\x00\x00\x00\x00\x00\x00*@\x00\x00\x00\x00\x00\x00\x00\x00'
p5059
tp5060
bsg2371
I00
sg2372
F0.1111111111111111
sg2373
I1
sg2374
I00
sbsbsVleft
p5061
g0
(g4966
g2
Ntp5062
Rp5063
(dp5064
g6
g7
sg3057
I00
sg40
I01
sg9
g4
sg4970
Nsg8
I01
sg10
Nsg41
Nsg17
g18
sg42
Nsg20
I01
sg3028
g4011
sg43
g0
(g44
g2
Ntp5065
Rp5066
(dp5067
g48
I1
sg49
Nsg50
g7
sg51
(dp5068
sbsg53
(F0.0
F0.0
F0.0
F1.0
tp5069
sg23
Nsg57
Nsg24
Nsg11
Nsg27
I00
sg28
I00
sg29
(dp5070
sg2967
g4978
sg31
I00
sg64
Nsg65
I01
sg66
F1.0
sg4979
g4980
sg32
Nsg69
I01
sg70
g4981
sg72
Nsg73
g2950
sg74
g75
sg4982
g0
(g44
g2
Ntp5071
Rp5072
(dp5073
g48
I1
sg49
Nsg50
g7
sg51
(dp5074
sbsg76
g77
sg78
g2300
sg79
I0
sg4987
(g4988
g0
(g44
g2
Ntp5075
Rp5076
(dp5077
g48
I1
sg49
Nsg50
g7
sg51
(dp5078
sbtp5079
sg80
I01
sg82
Nsg4994
g5061
sg83
g718
sg67
Nsg2584
F2.5
sg2165
g4995
sg2167
Nsg2168
g2222
sg33
Nsg2716
g0
(g2358
g2
Ntp5080
Rp5081
(dp5082
g2362
I00
sg2363
Nsg2364
g89
(g90
(I0
tp5083
g92
tp5084
Rp5085
(I1
(I2
I2
tp5086
g99
I00
S'\x00\x00\x00\x00\x00\x00\x00\x00\x00\x00\x00\x00\x00\x00*@\x00\x00\x00\x00\x00\x00\x00\x00\x00\x00\x00\x00\x00\x00*@'
p5087
tp5088
bsg2371
I00
sg2372
F0.1111111111111111
sg2373
I1
sg2374
I00
sbsbssg42
Nsg2167
NsS'_axisbg'
p5089
g2952
sbtp5090
tp5091
asS'_ind'
p5092
I1
sS'_pos'
p5093
I0
sbsg83
Nsg2902
(lp5094
sg2942
g37
sS'subplotpars'
p5095
g0
(cmatplotlib.figure
SubplotParams
p5096
g2
Ntp5097
Rp5098
(dp5099
g2206
g3067
(g99
S'\xf2[\x02\x95\xb1\xfc\xed?'
p5100
tp5101
Rp5102
sg2208
g3067
(g99
S'\x1eB\xfdD\x1a.\xc5?'
p5103
tp5104
Rp5105
sg2209
g3067
(g99
S'x\xc5I\xf5\xb7\x06\xee?'
p5106
tp5107
Rp5108
sg2210
F0.2
sS'validate'
p5109
I01
sg2212
F0.2
sg2214
g3067
(g99
S'Q\x8e8GM~\xc5?'
p5110
tp5111
Rp5112
sbsg42
Nsg2167
NsS'bbox_inches'
p5113
g123
sS'transFigure'
p5114
g86
sS'_dpi'
p5115
F80.0
sb.